Archive member included because of file (symbol)

/home/linux/devkitPro/libnds/lib/libfilesystem.a(nitrofs.o)
                              Game.o (nitroFSInit)
/home/linux/devkitPro/libnds/lib/libfat.a(libfat.o)
                              /home/linux/devkitPro/libnds/lib/libfilesystem.a(nitrofs.o) (fatInitDefault)
/home/linux/devkitPro/libnds/lib/libfat.a(partition.o)
                              /home/linux/devkitPro/libnds/lib/libfat.a(libfat.o) (_FAT_partition_constructor)
/home/linux/devkitPro/libnds/lib/libfat.a(cache.o)
                              /home/linux/devkitPro/libnds/lib/libfat.a(partition.o) (_FAT_cache_constructor)
/home/linux/devkitPro/libnds/lib/libfat.a(directory.o)
                              /home/linux/devkitPro/libnds/lib/libfat.a(libfat.o) (_FAT_directory_getVolumeLabel)
/home/linux/devkitPro/libnds/lib/libfat.a(disc.o)
                              /home/linux/devkitPro/libnds/lib/libfat.a(libfat.o) (_FAT_disc_interfaces)
/home/linux/devkitPro/libnds/lib/libfat.a(fatdir.o)
                              /home/linux/devkitPro/libnds/lib/libfat.a(libfat.o) (_FAT_stat_r)
/home/linux/devkitPro/libnds/lib/libfat.a(fatfile.o)
                              /home/linux/devkitPro/libnds/lib/libfat.a(libfat.o) (_FAT_open_r)
/home/linux/devkitPro/libnds/lib/libfat.a(file_allocation_table.o)
                              /home/linux/devkitPro/libnds/lib/libfat.a(directory.o) (_FAT_fat_nextCluster)
/home/linux/devkitPro/libnds/lib/libfat.a(filetime.o)
                              /home/linux/devkitPro/libnds/lib/libfat.a(fatdir.o) (_FAT_filetime_getTimeFromRTC)
/home/linux/devkitPro/libnds/lib/libfat.a(lock.o)
                              /home/linux/devkitPro/libnds/lib/libfat.a(partition.o) (_FAT_lock_init)
/home/linux/devkitPro/libnds/lib/libnds9.a(background.o)
                              Map.o (bgUpdate)
/home/linux/devkitPro/libnds/lib/libnds9.a(console.o)
                              Game.o (consoleDemoInit)
/home/linux/devkitPro/libnds/lib/libnds9.a(gurumeditation.o)
                              Game.o (defaultExceptionHandler)
/home/linux/devkitPro/libnds/lib/libnds9.a(keys.o)
                              Game.o (scanKeys)
/home/linux/devkitPro/libnds/lib/libnds9.a(sassert.o)
                              MapManager.o (__sassert)
/home/linux/devkitPro/libnds/lib/libnds9.a(trig.o)
                              /home/linux/devkitPro/libnds/lib/libnds9.a(background.o) (sinLerp)
/home/linux/devkitPro/libnds/lib/libnds9.a(dldi.o)
                              /home/linux/devkitPro/libnds/lib/libfat.a(disc.o) (dldiGetInternal)
/home/linux/devkitPro/libnds/lib/libnds9.a(dsi_sd.o)
                              /home/linux/devkitPro/libnds/lib/libfat.a(disc.o) (__io_dsisd)
/home/linux/devkitPro/libnds/lib/libnds9.a(initSystem.o)
                              /home/linux/devkitPro/devkitARM/bin/../lib/gcc/arm-none-eabi/4.8.2/../../../../arm-none-eabi/lib/thumb/ds_arm9_crt0.o (initSystem)
/home/linux/devkitPro/libnds/lib/libnds9.a(card.o)
                              /home/linux/devkitPro/libnds/lib/libfilesystem.a(nitrofs.o) (cardParamCommand)
/home/linux/devkitPro/libnds/lib/libnds9.a(fifosystem.o)
                              /home/linux/devkitPro/libnds/lib/libnds9.a(dsi_sd.o) (fifoSendValue32)
/home/linux/devkitPro/libnds/lib/libnds9.a(interrupts.o)
                              Timer.o (irqSet)
/home/linux/devkitPro/libnds/lib/libnds9.a(libnds_exit.arm.o)
                              /home/linux/devkitPro/devkitARM/bin/../lib/gcc/arm-none-eabi/4.8.2/../../../../arm-none-eabi/lib/thumb/ds_arm9_crt0.o (__libnds_exit)
/home/linux/devkitPro/libnds/lib/libnds9.a(dcache.o)
                              /home/linux/devkitPro/libnds/lib/libnds9.a(dsi_sd.o) (DC_FlushRange)
/home/linux/devkitPro/libnds/lib/libnds9.a(exceptionHandler.o)
                              /home/linux/devkitPro/libnds/lib/libnds9.a(gurumeditation.o) (getCPSR)
/home/linux/devkitPro/libnds/lib/libnds9.a(dldi_stub.o)
                              /home/linux/devkitPro/libnds/lib/libnds9.a(dldi.o) (_io_dldi_stub)
/home/linux/devkitPro/libnds/lib/libnds9.a(mpu_setup.o)
                              /home/linux/devkitPro/devkitARM/bin/../lib/gcc/arm-none-eabi/4.8.2/../../../../arm-none-eabi/lib/thumb/ds_arm9_crt0.o (__libnds_mpu_setup)
/home/linux/devkitPro/libnds/lib/libnds9.a(biosCalls.o)
                              /home/linux/devkitPro/libnds/lib/libnds9.a(card.o) (swiDelay)
/home/linux/devkitPro/libnds/lib/libnds9.a(debugprint.o)
                              /home/linux/devkitPro/libnds/lib/libnds9.a(console.o) (nocashWrite)
/home/linux/devkitPro/libnds/lib/libnds9.a(interruptDispatcher.o)
                              /home/linux/devkitPro/libnds/lib/libnds9.a(interrupts.o) (IntrMain)
/home/linux/devkitPro/libnds/lib/libnds9.a(swiSoftReset.o)
                              /home/linux/devkitPro/libnds/lib/libnds9.a(fifosystem.o) (swiSoftReset)
/home/linux/devkitPro/libnds/lib/libnds9.a(default_font.bin.o)
                              /home/linux/devkitPro/libnds/lib/libnds9.a(console.o) (default_font_bin)
/home/linux/devkitPro/libnds/lib/libnds9.a(exceptions.o)
                              /home/linux/devkitPro/libnds/lib/libnds9.a(gurumeditation.o) (setExceptionHandler)
/home/linux/devkitPro/libnds/lib/libnds9.a(system.o)
                              /home/linux/devkitPro/libnds/lib/libnds9.a(initSystem.o) (systemMsgHandler)
/home/linux/devkitPro/libnds/lib/libnds9.a(video.o)
                              /home/linux/devkitPro/libnds/lib/libnds9.a(initSystem.o) (vramDefault)
/home/linux/devkitPro/devkitARM/bin/../lib/gcc/arm-none-eabi/4.8.2/../../../../arm-none-eabi/lib/thumb/libstdc++.a(new_op.o)
                              CharacterManager.o (operator new(unsigned int))
/home/linux/devkitPro/devkitARM/bin/../lib/gcc/arm-none-eabi/4.8.2/../../../../arm-none-eabi/lib/thumb/libstdc++.a(eh_call.o)
                              /home/linux/devkitPro/devkitARM/bin/../lib/gcc/arm-none-eabi/4.8.2/../../../../arm-none-eabi/lib/thumb/libstdc++.a(new_op.o) (__cxa_call_unexpected)
/home/linux/devkitPro/devkitARM/bin/../lib/gcc/arm-none-eabi/4.8.2/../../../../arm-none-eabi/lib/thumb/libstdc++.a(new_opv.o)
                              Map.o (operator new[](unsigned int))
/home/linux/devkitPro/devkitARM/bin/../lib/gcc/arm-none-eabi/4.8.2/../../../../arm-none-eabi/lib/thumb/libstdc++.a(eh_personality.o)
                              /home/linux/devkitPro/devkitARM/bin/../lib/gcc/arm-none-eabi/4.8.2/../../../../arm-none-eabi/lib/thumb/libstdc++.a(new_op.o) (__gxx_personality_v0)
/home/linux/devkitPro/devkitARM/bin/../lib/gcc/arm-none-eabi/4.8.2/../../../../arm-none-eabi/lib/thumb/libstdc++.a(del_op.o)
                              CharacterManager.o (operator delete(void*))
/home/linux/devkitPro/devkitARM/bin/../lib/gcc/arm-none-eabi/4.8.2/../../../../arm-none-eabi/lib/thumb/libstdc++.a(atexit_arm.o)
                              MapManager.o (__aeabi_atexit)
/home/linux/devkitPro/devkitARM/bin/../lib/gcc/arm-none-eabi/4.8.2/../../../../arm-none-eabi/lib/thumb/libstdc++.a(eh_terminate.o)
                              /home/linux/devkitPro/devkitARM/bin/../lib/gcc/arm-none-eabi/4.8.2/../../../../arm-none-eabi/lib/thumb/libstdc++.a(eh_call.o) (__cxxabiv1::__terminate(void (*)()))
/home/linux/devkitPro/devkitARM/bin/../lib/gcc/arm-none-eabi/4.8.2/../../../../arm-none-eabi/lib/thumb/libstdc++.a(eh_exception.o)
                              /home/linux/devkitPro/devkitARM/bin/../lib/gcc/arm-none-eabi/4.8.2/../../../../arm-none-eabi/lib/thumb/libstdc++.a(eh_call.o) (std::bad_exception::~bad_exception())
/home/linux/devkitPro/devkitARM/bin/../lib/gcc/arm-none-eabi/4.8.2/../../../../arm-none-eabi/lib/thumb/libstdc++.a(eh_alloc.o)
                              /home/linux/devkitPro/devkitARM/bin/../lib/gcc/arm-none-eabi/4.8.2/../../../../arm-none-eabi/lib/thumb/libstdc++.a(new_op.o) (__cxa_allocate_exception)
/home/linux/devkitPro/devkitARM/bin/../lib/gcc/arm-none-eabi/4.8.2/../../../../arm-none-eabi/lib/thumb/libstdc++.a(bad_alloc.o)
                              /home/linux/devkitPro/devkitARM/bin/../lib/gcc/arm-none-eabi/4.8.2/../../../../arm-none-eabi/lib/thumb/libstdc++.a(new_op.o) (std::bad_alloc::~bad_alloc())
/home/linux/devkitPro/devkitARM/bin/../lib/gcc/arm-none-eabi/4.8.2/../../../../arm-none-eabi/lib/thumb/libstdc++.a(del_opv.o)
                              Map.o (operator delete[](void*))
/home/linux/devkitPro/devkitARM/bin/../lib/gcc/arm-none-eabi/4.8.2/../../../../arm-none-eabi/lib/thumb/libstdc++.a(class_type_info.o)
                              /home/linux/devkitPro/devkitARM/bin/../lib/gcc/arm-none-eabi/4.8.2/../../../../arm-none-eabi/lib/thumb/libstdc++.a(eh_exception.o) (vtable for __cxxabiv1::__class_type_info)
/home/linux/devkitPro/devkitARM/bin/../lib/gcc/arm-none-eabi/4.8.2/../../../../arm-none-eabi/lib/thumb/libstdc++.a(new_handler.o)
                              /home/linux/devkitPro/devkitARM/bin/../lib/gcc/arm-none-eabi/4.8.2/../../../../arm-none-eabi/lib/thumb/libstdc++.a(new_op.o) (__new_handler)
/home/linux/devkitPro/devkitARM/bin/../lib/gcc/arm-none-eabi/4.8.2/../../../../arm-none-eabi/lib/thumb/libstdc++.a(string-inst.o)
                              MapManager.o (std::string::_Rep::_S_empty_rep_storage)
/home/linux/devkitPro/devkitARM/bin/../lib/gcc/arm-none-eabi/4.8.2/../../../../arm-none-eabi/lib/thumb/libstdc++.a(functexcept.o)
                              MapManager.o (std::__throw_bad_alloc())
/home/linux/devkitPro/devkitARM/bin/../lib/gcc/arm-none-eabi/4.8.2/../../../../arm-none-eabi/lib/thumb/libstdc++.a(eh_arm.o)
                              /home/linux/devkitPro/devkitARM/bin/../lib/gcc/arm-none-eabi/4.8.2/../../../../arm-none-eabi/lib/thumb/libstdc++.a(new_op.o) (__cxa_end_cleanup)
/home/linux/devkitPro/devkitARM/bin/../lib/gcc/arm-none-eabi/4.8.2/../../../../arm-none-eabi/lib/thumb/libstdc++.a(eh_throw.o)
                              /home/linux/devkitPro/devkitARM/bin/../lib/gcc/arm-none-eabi/4.8.2/../../../../arm-none-eabi/lib/thumb/libstdc++.a(new_op.o) (__cxa_throw)
/home/linux/devkitPro/devkitARM/bin/../lib/gcc/arm-none-eabi/4.8.2/../../../../arm-none-eabi/lib/thumb/libstdc++.a(pure.o)
                              /home/linux/devkitPro/devkitARM/bin/../lib/gcc/arm-none-eabi/4.8.2/../../../../arm-none-eabi/lib/thumb/libstdc++.a(eh_exception.o) (__cxa_pure_virtual)
/home/linux/devkitPro/devkitARM/bin/../lib/gcc/arm-none-eabi/4.8.2/../../../../arm-none-eabi/lib/thumb/libstdc++.a(bad_cast.o)
                              /home/linux/devkitPro/devkitARM/bin/../lib/gcc/arm-none-eabi/4.8.2/../../../../arm-none-eabi/lib/thumb/libstdc++.a(functexcept.o) (std::bad_cast::~bad_cast())
/home/linux/devkitPro/devkitARM/bin/../lib/gcc/arm-none-eabi/4.8.2/../../../../arm-none-eabi/lib/thumb/libstdc++.a(eh_globals.o)
                              /home/linux/devkitPro/devkitARM/bin/../lib/gcc/arm-none-eabi/4.8.2/../../../../arm-none-eabi/lib/thumb/libstdc++.a(eh_call.o) (__cxa_get_globals_fast)
/home/linux/devkitPro/devkitARM/bin/../lib/gcc/arm-none-eabi/4.8.2/../../../../arm-none-eabi/lib/thumb/libstdc++.a(eh_catch.o)
                              /home/linux/devkitPro/devkitARM/bin/../lib/gcc/arm-none-eabi/4.8.2/../../../../arm-none-eabi/lib/thumb/libstdc++.a(eh_call.o) (__cxa_begin_catch)
/home/linux/devkitPro/devkitARM/bin/../lib/gcc/arm-none-eabi/4.8.2/../../../../arm-none-eabi/lib/thumb/libstdc++.a(si_class_type_info.o)
                              /home/linux/devkitPro/devkitARM/bin/../lib/gcc/arm-none-eabi/4.8.2/../../../../arm-none-eabi/lib/thumb/libstdc++.a(eh_exception.o) (vtable for __cxxabiv1::__si_class_type_info)
/home/linux/devkitPro/devkitARM/bin/../lib/gcc/arm-none-eabi/4.8.2/../../../../arm-none-eabi/lib/thumb/libstdc++.a(eh_unex_handler.o)
                              /home/linux/devkitPro/devkitARM/bin/../lib/gcc/arm-none-eabi/4.8.2/../../../../arm-none-eabi/lib/thumb/libstdc++.a(eh_terminate.o) (__cxxabiv1::__unexpected_handler)
/home/linux/devkitPro/devkitARM/bin/../lib/gcc/arm-none-eabi/4.8.2/../../../../arm-none-eabi/lib/thumb/libstdc++.a(tinfo.o)
                              /home/linux/devkitPro/devkitARM/bin/../lib/gcc/arm-none-eabi/4.8.2/../../../../arm-none-eabi/lib/thumb/libstdc++.a(class_type_info.o) (std::type_info::~type_info())
/home/linux/devkitPro/devkitARM/bin/../lib/gcc/arm-none-eabi/4.8.2/../../../../arm-none-eabi/lib/thumb/libstdc++.a(bad_typeid.o)
                              /home/linux/devkitPro/devkitARM/bin/../lib/gcc/arm-none-eabi/4.8.2/../../../../arm-none-eabi/lib/thumb/libstdc++.a(functexcept.o) (std::bad_typeid::~bad_typeid())
/home/linux/devkitPro/devkitARM/bin/../lib/gcc/arm-none-eabi/4.8.2/../../../../arm-none-eabi/lib/thumb/libstdc++.a(eh_term_handler.o)
                              /home/linux/devkitPro/devkitARM/bin/../lib/gcc/arm-none-eabi/4.8.2/../../../../arm-none-eabi/lib/thumb/libstdc++.a(eh_terminate.o) (__cxxabiv1::__terminate_handler)
/home/linux/devkitPro/devkitARM/bin/../lib/gcc/arm-none-eabi/4.8.2/../../../../arm-none-eabi/lib/thumb/libstdc++.a(ios_failure.o)
                              /home/linux/devkitPro/devkitARM/bin/../lib/gcc/arm-none-eabi/4.8.2/../../../../arm-none-eabi/lib/thumb/libstdc++.a(functexcept.o) (std::ios_base::failure::~failure())
/home/linux/devkitPro/devkitARM/bin/../lib/gcc/arm-none-eabi/4.8.2/../../../../arm-none-eabi/lib/thumb/libstdc++.a(stdexcept.o)
                              /home/linux/devkitPro/devkitARM/bin/../lib/gcc/arm-none-eabi/4.8.2/../../../../arm-none-eabi/lib/thumb/libstdc++.a(functexcept.o) (std::logic_error::~logic_error())
/home/linux/devkitPro/devkitARM/bin/../lib/gcc/arm-none-eabi/4.8.2/../../../../arm-none-eabi/lib/thumb/libstdc++.a(functional.o)
                              /home/linux/devkitPro/devkitARM/bin/../lib/gcc/arm-none-eabi/4.8.2/../../../../arm-none-eabi/lib/thumb/libstdc++.a(functexcept.o) (std::bad_function_call::~bad_function_call())
/home/linux/devkitPro/devkitARM/bin/../lib/gcc/arm-none-eabi/4.8.2/../../../../arm-none-eabi/lib/thumb/libstdc++.a(future.o)
                              /home/linux/devkitPro/devkitARM/bin/../lib/gcc/arm-none-eabi/4.8.2/../../../../arm-none-eabi/lib/thumb/libstdc++.a(functexcept.o) (std::future_error::~future_error())
/home/linux/devkitPro/devkitARM/bin/../lib/gcc/arm-none-eabi/4.8.2/../../../../arm-none-eabi/lib/thumb/libstdc++.a(regex.o)
                              /home/linux/devkitPro/devkitARM/bin/../lib/gcc/arm-none-eabi/4.8.2/../../../../arm-none-eabi/lib/thumb/libstdc++.a(functexcept.o) (std::regex_error::~regex_error())
/home/linux/devkitPro/devkitARM/bin/../lib/gcc/arm-none-eabi/4.8.2/../../../../arm-none-eabi/lib/thumb/libstdc++.a(system_error.o)
                              /home/linux/devkitPro/devkitARM/bin/../lib/gcc/arm-none-eabi/4.8.2/../../../../arm-none-eabi/lib/thumb/libstdc++.a(future.o) (std::error_category::~error_category())
/home/linux/devkitPro/devkitARM/bin/../lib/gcc/arm-none-eabi/4.8.2/../../../../arm-none-eabi/lib/thumb/libstdc++.a(guard.o)
                              /home/linux/devkitPro/devkitARM/bin/../lib/gcc/arm-none-eabi/4.8.2/../../../../arm-none-eabi/lib/thumb/libstdc++.a(future.o) (__cxa_guard_acquire)
/home/linux/devkitPro/devkitARM/bin/../lib/gcc/arm-none-eabi/4.8.2/../../../../arm-none-eabi/lib/thumb/libstdc++.a(vterminate.o)
                              /home/linux/devkitPro/devkitARM/bin/../lib/gcc/arm-none-eabi/4.8.2/../../../../arm-none-eabi/lib/thumb/libstdc++.a(eh_term_handler.o) (__gnu_cxx::__verbose_terminate_handler())
/home/linux/devkitPro/devkitARM/bin/../lib/gcc/arm-none-eabi/4.8.2/../../../../arm-none-eabi/lib/thumb/libstdc++.a(guard_error.o)
                              /home/linux/devkitPro/devkitARM/bin/../lib/gcc/arm-none-eabi/4.8.2/../../../../arm-none-eabi/lib/thumb/libstdc++.a(guard.o) (__gnu_cxx::recursive_init_error::~recursive_init_error())
/home/linux/devkitPro/devkitARM/bin/../lib/gcc/arm-none-eabi/4.8.2/../../../../arm-none-eabi/lib/thumb/libstdc++.a(eh_type.o)
                              /home/linux/devkitPro/devkitARM/bin/../lib/gcc/arm-none-eabi/4.8.2/../../../../arm-none-eabi/lib/thumb/libstdc++.a(vterminate.o) (__cxa_current_exception_type)
/home/linux/devkitPro/devkitARM/bin/../lib/gcc/arm-none-eabi/4.8.2/../../../../arm-none-eabi/lib/thumb/libstdc++.a(cp-demangle.o)
                              /home/linux/devkitPro/devkitARM/bin/../lib/gcc/arm-none-eabi/4.8.2/../../../../arm-none-eabi/lib/thumb/libstdc++.a(vterminate.o) (__cxa_demangle)
/home/linux/devkitPro/devkitARM/bin/../lib/gcc/arm-none-eabi/4.8.2/../../../../arm-none-eabi/lib/thumb/libm.a(lib_a-w_sqrt.o)
                              MapManager.o (sqrt)
/home/linux/devkitPro/devkitARM/bin/../lib/gcc/arm-none-eabi/4.8.2/../../../../arm-none-eabi/lib/thumb/libm.a(lib_a-e_sqrt.o)
                              /home/linux/devkitPro/devkitARM/bin/../lib/gcc/arm-none-eabi/4.8.2/../../../../arm-none-eabi/lib/thumb/libm.a(lib_a-w_sqrt.o) (__ieee754_sqrt)
/home/linux/devkitPro/devkitARM/bin/../lib/gcc/arm-none-eabi/4.8.2/../../../../arm-none-eabi/lib/thumb/libm.a(lib_a-s_fpclassify.o)
                              /home/linux/devkitPro/devkitARM/bin/../lib/gcc/arm-none-eabi/4.8.2/../../../../arm-none-eabi/lib/thumb/libm.a(lib_a-w_sqrt.o) (__fpclassifyd)
/home/linux/devkitPro/devkitARM/bin/../lib/gcc/arm-none-eabi/4.8.2/../../../../arm-none-eabi/lib/thumb/libm.a(lib_a-s_lib_ver.o)
                              /home/linux/devkitPro/devkitARM/bin/../lib/gcc/arm-none-eabi/4.8.2/../../../../arm-none-eabi/lib/thumb/libm.a(lib_a-w_sqrt.o) (__fdlib_version)
/home/linux/devkitPro/devkitARM/bin/../lib/gcc/arm-none-eabi/4.8.2/../../../../arm-none-eabi/lib/thumb/libm.a(lib_a-s_matherr.o)
                              /home/linux/devkitPro/devkitARM/bin/../lib/gcc/arm-none-eabi/4.8.2/../../../../arm-none-eabi/lib/thumb/libm.a(lib_a-w_sqrt.o) (matherr)
/home/linux/devkitPro/devkitARM/bin/../lib/gcc/arm-none-eabi/4.8.2/thumb/libgcc.a(_udivsi3.o)
                              /home/linux/devkitPro/libnds/lib/libfat.a(partition.o) (__aeabi_uidiv)
/home/linux/devkitPro/devkitARM/bin/../lib/gcc/arm-none-eabi/4.8.2/thumb/libgcc.a(_divsi3.o)
                              /home/linux/devkitPro/libnds/lib/libfat.a(directory.o) (__aeabi_idiv)
/home/linux/devkitPro/devkitARM/bin/../lib/gcc/arm-none-eabi/4.8.2/thumb/libgcc.a(_dvmd_tls.o)
                              /home/linux/devkitPro/devkitARM/bin/../lib/gcc/arm-none-eabi/4.8.2/thumb/libgcc.a(_udivsi3.o) (__aeabi_idiv0)
/home/linux/devkitPro/devkitARM/bin/../lib/gcc/arm-none-eabi/4.8.2/thumb/libgcc.a(_arm_addsubdf3.o)
                              /home/linux/devkitPro/devkitARM/bin/../lib/gcc/arm-none-eabi/4.8.2/../../../../arm-none-eabi/lib/thumb/libm.a(lib_a-e_sqrt.o) (__aeabi_dsub)
/home/linux/devkitPro/devkitARM/bin/../lib/gcc/arm-none-eabi/4.8.2/thumb/libgcc.a(_arm_muldivdf3.o)
                              MapManager.o (__aeabi_dmul)
/home/linux/devkitPro/devkitARM/bin/../lib/gcc/arm-none-eabi/4.8.2/thumb/libgcc.a(_arm_cmpdf2.o)
                              /home/linux/devkitPro/devkitARM/bin/../lib/gcc/arm-none-eabi/4.8.2/../../../../arm-none-eabi/lib/thumb/libm.a(lib_a-w_sqrt.o) (__aeabi_dcmplt)
/home/linux/devkitPro/devkitARM/bin/../lib/gcc/arm-none-eabi/4.8.2/thumb/libgcc.a(_arm_fixunsdfsi.o)
                              MapManager.o (__aeabi_d2uiz)
/home/linux/devkitPro/devkitARM/bin/../lib/gcc/arm-none-eabi/4.8.2/thumb/libgcc.a(_muldi3.o)
                              /home/linux/devkitPro/libnds/lib/libfat.a(partition.o) (__aeabi_lmul)
/home/linux/devkitPro/devkitARM/bin/../lib/gcc/arm-none-eabi/4.8.2/thumb/libgcc.a(unwind-arm.o)
                              /home/linux/devkitPro/devkitARM/bin/../lib/gcc/arm-none-eabi/4.8.2/../../../../arm-none-eabi/lib/thumb/libstdc++.a(eh_personality.o) (__aeabi_unwind_cpp_pr0)
/home/linux/devkitPro/devkitARM/bin/../lib/gcc/arm-none-eabi/4.8.2/thumb/libgcc.a(libunwind.o)
                              /home/linux/devkitPro/devkitARM/bin/../lib/gcc/arm-none-eabi/4.8.2/thumb/libgcc.a(unwind-arm.o) (restore_core_regs)
/home/linux/devkitPro/devkitARM/bin/../lib/gcc/arm-none-eabi/4.8.2/thumb/libgcc.a(pr-support.o)
                              /home/linux/devkitPro/devkitARM/bin/../lib/gcc/arm-none-eabi/4.8.2/thumb/libgcc.a(unwind-arm.o) (__gnu_unwind_execute)
/home/linux/devkitPro/devkitARM/bin/../lib/gcc/arm-none-eabi/4.8.2/../../../../arm-none-eabi/lib/thumb/libg.a(lib_a-abort.o)
                              /home/linux/devkitPro/devkitARM/bin/../lib/gcc/arm-none-eabi/4.8.2/../../../../arm-none-eabi/lib/thumb/libstdc++.a(eh_personality.o) (abort)
/home/linux/devkitPro/devkitARM/bin/../lib/gcc/arm-none-eabi/4.8.2/../../../../arm-none-eabi/lib/thumb/libg.a(lib_a-bsearch.o)
                              /home/linux/devkitPro/libnds/lib/libnds9.a(trig.o) (bsearch)
/home/linux/devkitPro/devkitARM/bin/../lib/gcc/arm-none-eabi/4.8.2/../../../../arm-none-eabi/lib/thumb/libg.a(lib_a-ctype_.o)
                              /home/linux/devkitPro/libnds/lib/libfat.a(directory.o) (__ctype_ptr__)
/home/linux/devkitPro/devkitARM/bin/../lib/gcc/arm-none-eabi/4.8.2/../../../../arm-none-eabi/lib/thumb/libg.a(lib_a-cxa_atexit.o)
                              /home/linux/devkitPro/devkitARM/bin/../lib/gcc/arm-none-eabi/4.8.2/../../../../arm-none-eabi/lib/thumb/libstdc++.a(atexit_arm.o) (__cxa_atexit)
/home/linux/devkitPro/devkitARM/bin/../lib/gcc/arm-none-eabi/4.8.2/../../../../arm-none-eabi/lib/thumb/libg.a(lib_a-errno.o)
                              /home/linux/devkitPro/devkitARM/bin/../lib/gcc/arm-none-eabi/4.8.2/../../../../arm-none-eabi/lib/thumb/libm.a(lib_a-w_sqrt.o) (__errno)
/home/linux/devkitPro/devkitARM/bin/../lib/gcc/arm-none-eabi/4.8.2/../../../../arm-none-eabi/lib/thumb/libg.a(lib_a-fclose.o)
                              Map.o (fclose)
/home/linux/devkitPro/devkitARM/bin/../lib/gcc/arm-none-eabi/4.8.2/../../../../arm-none-eabi/lib/thumb/libg.a(lib_a-fflush.o)
                              /home/linux/devkitPro/devkitARM/bin/../lib/gcc/arm-none-eabi/4.8.2/../../../../arm-none-eabi/lib/thumb/libg.a(lib_a-fclose.o) (_fflush_r)
/home/linux/devkitPro/devkitARM/bin/../lib/gcc/arm-none-eabi/4.8.2/../../../../arm-none-eabi/lib/thumb/libg.a(lib_a-findfp.o)
                              /home/linux/devkitPro/devkitARM/bin/../lib/gcc/arm-none-eabi/4.8.2/../../../../arm-none-eabi/lib/thumb/libg.a(lib_a-fclose.o) (__sinit)
/home/linux/devkitPro/devkitARM/bin/../lib/gcc/arm-none-eabi/4.8.2/../../../../arm-none-eabi/lib/thumb/libg.a(lib_a-fopen.o)
                              Map.o (fopen)
/home/linux/devkitPro/devkitARM/bin/../lib/gcc/arm-none-eabi/4.8.2/../../../../arm-none-eabi/lib/thumb/libg.a(lib_a-fputc.o)
                              /home/linux/devkitPro/devkitARM/bin/../lib/gcc/arm-none-eabi/4.8.2/../../../../arm-none-eabi/lib/thumb/libstdc++.a(vterminate.o) (fputc)
/home/linux/devkitPro/devkitARM/bin/../lib/gcc/arm-none-eabi/4.8.2/../../../../arm-none-eabi/lib/thumb/libg.a(lib_a-fputs.o)
                              /home/linux/devkitPro/devkitARM/bin/../lib/gcc/arm-none-eabi/4.8.2/../../../../arm-none-eabi/lib/thumb/libstdc++.a(vterminate.o) (fputs)
/home/linux/devkitPro/devkitARM/bin/../lib/gcc/arm-none-eabi/4.8.2/../../../../arm-none-eabi/lib/thumb/libg.a(lib_a-fread.o)
                              Map.o (fread)
/home/linux/devkitPro/devkitARM/bin/../lib/gcc/arm-none-eabi/4.8.2/../../../../arm-none-eabi/lib/thumb/libg.a(lib_a-freer.o)
                              /home/linux/devkitPro/devkitARM/bin/../lib/gcc/arm-none-eabi/4.8.2/../../../../arm-none-eabi/lib/thumb/libg.a(lib_a-fclose.o) (_free_r)
/home/linux/devkitPro/devkitARM/bin/../lib/gcc/arm-none-eabi/4.8.2/../../../../arm-none-eabi/lib/thumb/libg.a(lib_a-fseek.o)
                              /home/linux/devkitPro/devkitARM/bin/../lib/gcc/arm-none-eabi/4.8.2/../../../../arm-none-eabi/lib/thumb/libg.a(lib_a-fopen.o) (_fseek_r)
/home/linux/devkitPro/devkitARM/bin/../lib/gcc/arm-none-eabi/4.8.2/../../../../arm-none-eabi/lib/thumb/libg.a(lib_a-fseeko.o)
                              /home/linux/devkitPro/devkitARM/bin/../lib/gcc/arm-none-eabi/4.8.2/../../../../arm-none-eabi/lib/thumb/libg.a(lib_a-fseek.o) (_fseeko_r)
/home/linux/devkitPro/devkitARM/bin/../lib/gcc/arm-none-eabi/4.8.2/../../../../arm-none-eabi/lib/thumb/libg.a(lib_a-fvwrite.o)
                              /home/linux/devkitPro/devkitARM/bin/../lib/gcc/arm-none-eabi/4.8.2/../../../../arm-none-eabi/lib/thumb/libg.a(lib_a-fputs.o) (__sfvwrite_r)
/home/linux/devkitPro/devkitARM/bin/../lib/gcc/arm-none-eabi/4.8.2/../../../../arm-none-eabi/lib/thumb/libg.a(lib_a-fwalk.o)
                              /home/linux/devkitPro/devkitARM/bin/../lib/gcc/arm-none-eabi/4.8.2/../../../../arm-none-eabi/lib/thumb/libg.a(lib_a-findfp.o) (_fwalk)
/home/linux/devkitPro/devkitARM/bin/../lib/gcc/arm-none-eabi/4.8.2/../../../../arm-none-eabi/lib/thumb/libg.a(lib_a-fwrite.o)
                              /home/linux/devkitPro/devkitARM/bin/../lib/gcc/arm-none-eabi/4.8.2/../../../../arm-none-eabi/lib/thumb/libstdc++.a(vterminate.o) (fwrite)
/home/linux/devkitPro/devkitARM/bin/../lib/gcc/arm-none-eabi/4.8.2/../../../../arm-none-eabi/lib/thumb/libg.a(lib_a-impure.o)
                              /home/linux/devkitPro/devkitARM/bin/../lib/gcc/arm-none-eabi/4.8.2/../../../../arm-none-eabi/lib/thumb/libg.a(lib_a-fflush.o) (_global_impure_ptr)
/home/linux/devkitPro/devkitARM/bin/../lib/gcc/arm-none-eabi/4.8.2/../../../../arm-none-eabi/lib/thumb/libg.a(lib_a-init.o)
                              /home/linux/devkitPro/devkitARM/bin/../lib/gcc/arm-none-eabi/4.8.2/../../../../arm-none-eabi/lib/thumb/ds_arm9_crt0.o (__libc_init_array)
/home/linux/devkitPro/devkitARM/bin/../lib/gcc/arm-none-eabi/4.8.2/../../../../arm-none-eabi/lib/thumb/libg.a(lib_a-iprintf.o)
                              /home/linux/devkitPro/libnds/lib/libnds9.a(console.o) (iprintf)
/home/linux/devkitPro/devkitARM/bin/../lib/gcc/arm-none-eabi/4.8.2/../../../../arm-none-eabi/lib/thumb/libg.a(lib_a-lcltime_r.o)
                              /home/linux/devkitPro/libnds/lib/libfat.a(filetime.o) (localtime_r)
/home/linux/devkitPro/devkitARM/bin/../lib/gcc/arm-none-eabi/4.8.2/../../../../arm-none-eabi/lib/thumb/libg.a(lib_a-locale.o)
                              /home/linux/devkitPro/libnds/lib/libfat.a(directory.o) (__locale_mb_cur_max)
/home/linux/devkitPro/devkitARM/bin/../lib/gcc/arm-none-eabi/4.8.2/../../../../arm-none-eabi/lib/thumb/libg.a(lib_a-makebuf.o)
                              /home/linux/devkitPro/devkitARM/bin/../lib/gcc/arm-none-eabi/4.8.2/../../../../arm-none-eabi/lib/thumb/libg.a(lib_a-fseeko.o) (__smakebuf_r)
/home/linux/devkitPro/devkitARM/bin/../lib/gcc/arm-none-eabi/4.8.2/../../../../arm-none-eabi/lib/thumb/libg.a(lib_a-malloc.o)
                              /home/linux/devkitPro/libnds/lib/libfilesystem.a(nitrofs.o) (malloc)
/home/linux/devkitPro/devkitARM/bin/../lib/gcc/arm-none-eabi/4.8.2/../../../../arm-none-eabi/lib/thumb/libg.a(lib_a-mallocr.o)
                              /home/linux/devkitPro/devkitARM/bin/../lib/gcc/arm-none-eabi/4.8.2/../../../../arm-none-eabi/lib/thumb/libg.a(lib_a-findfp.o) (_malloc_r)
/home/linux/devkitPro/devkitARM/bin/../lib/gcc/arm-none-eabi/4.8.2/../../../../arm-none-eabi/lib/thumb/libg.a(lib_a-mbrtowc.o)
                              /home/linux/devkitPro/libnds/lib/libfat.a(directory.o) (mbrtowc)
/home/linux/devkitPro/devkitARM/bin/../lib/gcc/arm-none-eabi/4.8.2/../../../../arm-none-eabi/lib/thumb/libg.a(lib_a-mbsrtowcs.o)
                              /home/linux/devkitPro/libnds/lib/libfat.a(directory.o) (mbsrtowcs)
/home/linux/devkitPro/devkitARM/bin/../lib/gcc/arm-none-eabi/4.8.2/../../../../arm-none-eabi/lib/thumb/libg.a(lib_a-mbtowc_r.o)
                              /home/linux/devkitPro/devkitARM/bin/../lib/gcc/arm-none-eabi/4.8.2/../../../../arm-none-eabi/lib/thumb/libg.a(lib_a-locale.o) (__utf8_mbtowc)
/home/linux/devkitPro/devkitARM/bin/../lib/gcc/arm-none-eabi/4.8.2/../../../../arm-none-eabi/lib/thumb/libg.a(lib_a-memchr-stub.o)
                              /home/linux/devkitPro/devkitARM/bin/../lib/gcc/arm-none-eabi/4.8.2/../../../../arm-none-eabi/lib/thumb/libstdc++.a(string-inst.o) (memchr)
/home/linux/devkitPro/devkitARM/bin/../lib/gcc/arm-none-eabi/4.8.2/../../../../arm-none-eabi/lib/thumb/libg.a(lib_a-memcmp.o)
                              /home/linux/devkitPro/libnds/lib/libfilesystem.a(nitrofs.o) (memcmp)
/home/linux/devkitPro/devkitARM/bin/../lib/gcc/arm-none-eabi/4.8.2/../../../../arm-none-eabi/lib/thumb/libg.a(lib_a-memcpy-stub.o)
                              /home/linux/devkitPro/libnds/lib/libfilesystem.a(nitrofs.o) (memcpy)
/home/linux/devkitPro/devkitARM/bin/../lib/gcc/arm-none-eabi/4.8.2/../../../../arm-none-eabi/lib/thumb/libg.a(lib_a-memmove.o)
                              MapManager.o (memmove)
/home/linux/devkitPro/devkitARM/bin/../lib/gcc/arm-none-eabi/4.8.2/../../../../arm-none-eabi/lib/thumb/libg.a(lib_a-memset.o)
                              /home/linux/devkitPro/libnds/lib/libfat.a(partition.o) (memset)
/home/linux/devkitPro/devkitARM/bin/../lib/gcc/arm-none-eabi/4.8.2/../../../../arm-none-eabi/lib/thumb/libg.a(lib_a-mktime.o)
                              /home/linux/devkitPro/libnds/lib/libfat.a(filetime.o) (mktime)
/home/linux/devkitPro/devkitARM/bin/../lib/gcc/arm-none-eabi/4.8.2/../../../../arm-none-eabi/lib/thumb/libg.a(lib_a-mktm_r.o)
                              /home/linux/devkitPro/devkitARM/bin/../lib/gcc/arm-none-eabi/4.8.2/../../../../arm-none-eabi/lib/thumb/libg.a(lib_a-mktime.o) (__tzcalc_limits)
/home/linux/devkitPro/devkitARM/bin/../lib/gcc/arm-none-eabi/4.8.2/../../../../arm-none-eabi/lib/thumb/libg.a(lib_a-mlock.o)
                              /home/linux/devkitPro/devkitARM/bin/../lib/gcc/arm-none-eabi/4.8.2/../../../../arm-none-eabi/lib/thumb/libg.a(lib_a-freer.o) (__malloc_lock)
/home/linux/devkitPro/devkitARM/bin/../lib/gcc/arm-none-eabi/4.8.2/../../../../arm-none-eabi/lib/thumb/libg.a(lib_a-printf.o)
                              Game.o (printf)
/home/linux/devkitPro/devkitARM/bin/../lib/gcc/arm-none-eabi/4.8.2/../../../../arm-none-eabi/lib/thumb/libg.a(lib_a-putc.o)
                              /home/linux/devkitPro/devkitARM/bin/../lib/gcc/arm-none-eabi/4.8.2/../../../../arm-none-eabi/lib/thumb/libg.a(lib_a-fputc.o) (_putc_r)
/home/linux/devkitPro/devkitARM/bin/../lib/gcc/arm-none-eabi/4.8.2/../../../../arm-none-eabi/lib/thumb/libg.a(lib_a-puts.o)
                              Game.o (puts)
/home/linux/devkitPro/devkitARM/bin/../lib/gcc/arm-none-eabi/4.8.2/../../../../arm-none-eabi/lib/thumb/libg.a(lib_a-realloc.o)
                              /home/linux/devkitPro/devkitARM/bin/../lib/gcc/arm-none-eabi/4.8.2/../../../../arm-none-eabi/lib/thumb/libstdc++.a(cp-demangle.o) (realloc)
/home/linux/devkitPro/devkitARM/bin/../lib/gcc/arm-none-eabi/4.8.2/../../../../arm-none-eabi/lib/thumb/libg.a(lib_a-reallocr.o)
                              /home/linux/devkitPro/devkitARM/bin/../lib/gcc/arm-none-eabi/4.8.2/../../../../arm-none-eabi/lib/thumb/libg.a(lib_a-fvwrite.o) (_realloc_r)
/home/linux/devkitPro/devkitARM/bin/../lib/gcc/arm-none-eabi/4.8.2/../../../../arm-none-eabi/lib/thumb/libg.a(lib_a-refill.o)
                              /home/linux/devkitPro/devkitARM/bin/../lib/gcc/arm-none-eabi/4.8.2/../../../../arm-none-eabi/lib/thumb/libg.a(lib_a-fread.o) (__srefill_r)
/home/linux/devkitPro/devkitARM/bin/../lib/gcc/arm-none-eabi/4.8.2/../../../../arm-none-eabi/lib/thumb/libg.a(lib_a-setvbuf.o)
                              /home/linux/devkitPro/libnds/lib/libnds9.a(console.o) (setvbuf)
/home/linux/devkitPro/devkitARM/bin/../lib/gcc/arm-none-eabi/4.8.2/../../../../arm-none-eabi/lib/thumb/libg.a(lib_a-signal.o)
                              /home/linux/devkitPro/devkitARM/bin/../lib/gcc/arm-none-eabi/4.8.2/../../../../arm-none-eabi/lib/thumb/libg.a(lib_a-abort.o) (raise)
/home/linux/devkitPro/devkitARM/bin/../lib/gcc/arm-none-eabi/4.8.2/../../../../arm-none-eabi/lib/thumb/libg.a(lib_a-siscanf.o)
                              /home/linux/devkitPro/libnds/lib/libnds9.a(console.o) (siscanf)
/home/linux/devkitPro/devkitARM/bin/../lib/gcc/arm-none-eabi/4.8.2/../../../../arm-none-eabi/lib/thumb/libg.a(lib_a-sprintf.o)
                              /home/linux/devkitPro/devkitARM/bin/../lib/gcc/arm-none-eabi/4.8.2/../../../../arm-none-eabi/lib/thumb/libstdc++.a(cp-demangle.o) (sprintf)
/home/linux/devkitPro/devkitARM/bin/../lib/gcc/arm-none-eabi/4.8.2/../../../../arm-none-eabi/lib/thumb/libg.a(lib_a-stdio.o)
                              /home/linux/devkitPro/devkitARM/bin/../lib/gcc/arm-none-eabi/4.8.2/../../../../arm-none-eabi/lib/thumb/libg.a(lib_a-findfp.o) (__sread)
/home/linux/devkitPro/devkitARM/bin/../lib/gcc/arm-none-eabi/4.8.2/../../../../arm-none-eabi/lib/thumb/libg.a(lib_a-stpcpy.o)
                              /home/linux/devkitPro/libnds/lib/libfat.a(libfat.o) (stpcpy)
/home/linux/devkitPro/devkitARM/bin/../lib/gcc/arm-none-eabi/4.8.2/../../../../arm-none-eabi/lib/thumb/libg.a(lib_a-strcasecmp.o)
                              /home/linux/devkitPro/devkitARM/bin/../lib/gcc/arm-none-eabi/4.8.2/../../../../arm-none-eabi/lib/thumb/libg.a(lib_a-locale.o) (strcasecmp)
/home/linux/devkitPro/devkitARM/bin/../lib/gcc/arm-none-eabi/4.8.2/../../../../arm-none-eabi/lib/thumb/libg.a(lib_a-strcat.o)
                              /home/linux/devkitPro/devkitARM/bin/../lib/gcc/arm-none-eabi/4.8.2/../../../../arm-none-eabi/lib/thumb/libg.a(lib_a-locale.o) (strcat)
/home/linux/devkitPro/devkitARM/bin/../lib/gcc/arm-none-eabi/4.8.2/../../../../arm-none-eabi/lib/thumb/libg.a(lib_a-strchr.o)
                              /home/linux/devkitPro/libnds/lib/libfilesystem.a(nitrofs.o) (strchr)
/home/linux/devkitPro/devkitARM/bin/../lib/gcc/arm-none-eabi/4.8.2/../../../../arm-none-eabi/lib/thumb/libg.a(lib_a-strcmp.o)
                              /home/linux/devkitPro/libnds/lib/libfilesystem.a(nitrofs.o) (strcmp)
/home/linux/devkitPro/devkitARM/bin/../lib/gcc/arm-none-eabi/4.8.2/../../../../arm-none-eabi/lib/thumb/libg.a(lib_a-strcpy.o)
                              /home/linux/devkitPro/libnds/lib/libfilesystem.a(nitrofs.o) (strcpy)
/home/linux/devkitPro/devkitARM/bin/../lib/gcc/arm-none-eabi/4.8.2/../../../../arm-none-eabi/lib/thumb/libg.a(lib_a-strdup.o)
                              /home/linux/devkitPro/libnds/lib/libfilesystem.a(nitrofs.o) (strdup)
/home/linux/devkitPro/devkitARM/bin/../lib/gcc/arm-none-eabi/4.8.2/../../../../arm-none-eabi/lib/thumb/libg.a(lib_a-strdup_r.o)
                              /home/linux/devkitPro/devkitARM/bin/../lib/gcc/arm-none-eabi/4.8.2/../../../../arm-none-eabi/lib/thumb/libg.a(lib_a-strdup.o) (_strdup_r)
/home/linux/devkitPro/devkitARM/bin/../lib/gcc/arm-none-eabi/4.8.2/../../../../arm-none-eabi/lib/thumb/libg.a(lib_a-strerror.o)
                              /home/linux/devkitPro/devkitARM/bin/../lib/gcc/arm-none-eabi/4.8.2/../../../../arm-none-eabi/lib/thumb/libstdc++.a(system_error.o) (strerror)
/home/linux/devkitPro/devkitARM/bin/../lib/gcc/arm-none-eabi/4.8.2/../../../../arm-none-eabi/lib/thumb/libg.a(lib_a-strlcpy.o)
                              /home/linux/devkitPro/devkitARM/bin/../lib/gcc/arm-none-eabi/4.8.2/../../../../arm-none-eabi/lib/thumb/libg.a(lib_a-locale.o) (strlcpy)
/home/linux/devkitPro/devkitARM/bin/../lib/gcc/arm-none-eabi/4.8.2/../../../../arm-none-eabi/lib/thumb/libg.a(lib_a-strlen.o)
                              /home/linux/devkitPro/libnds/lib/libfilesystem.a(nitrofs.o) (strlen)
/home/linux/devkitPro/devkitARM/bin/../lib/gcc/arm-none-eabi/4.8.2/../../../../arm-none-eabi/lib/thumb/libg.a(lib_a-strncasecmp.o)
                              /home/linux/devkitPro/libnds/lib/libfat.a(libfat.o) (strncasecmp)
/home/linux/devkitPro/devkitARM/bin/../lib/gcc/arm-none-eabi/4.8.2/../../../../arm-none-eabi/lib/thumb/libg.a(lib_a-strncmp.o)
                              /home/linux/devkitPro/libnds/lib/libfilesystem.a(nitrofs.o) (strncmp)
/home/linux/devkitPro/devkitARM/bin/../lib/gcc/arm-none-eabi/4.8.2/../../../../arm-none-eabi/lib/thumb/libg.a(lib_a-strncpy.o)
                              /home/linux/devkitPro/libnds/lib/libfilesystem.a(nitrofs.o) (strncpy)
/home/linux/devkitPro/devkitARM/bin/../lib/gcc/arm-none-eabi/4.8.2/../../../../arm-none-eabi/lib/thumb/libg.a(lib_a-strnlen.o)
                              /home/linux/devkitPro/libnds/lib/libfat.a(directory.o) (strnlen)
/home/linux/devkitPro/devkitARM/bin/../lib/gcc/arm-none-eabi/4.8.2/../../../../arm-none-eabi/lib/thumb/libg.a(lib_a-strpbrk.o)
                              /home/linux/devkitPro/libnds/lib/libfat.a(directory.o) (strpbrk)
/home/linux/devkitPro/devkitARM/bin/../lib/gcc/arm-none-eabi/4.8.2/../../../../arm-none-eabi/lib/thumb/libg.a(lib_a-strrchr.o)
                              /home/linux/devkitPro/libnds/lib/libfat.a(libfat.o) (strrchr)
/home/linux/devkitPro/devkitARM/bin/../lib/gcc/arm-none-eabi/4.8.2/../../../../arm-none-eabi/lib/thumb/libg.a(lib_a-strtol.o)
                              /home/linux/devkitPro/devkitARM/bin/../lib/gcc/arm-none-eabi/4.8.2/../../../../arm-none-eabi/lib/thumb/libg.a(lib_a-locale.o) (_strtol_r)
/home/linux/devkitPro/devkitARM/bin/../lib/gcc/arm-none-eabi/4.8.2/../../../../arm-none-eabi/lib/thumb/libg.a(lib_a-svfiscanf.o)
                              /home/linux/devkitPro/devkitARM/bin/../lib/gcc/arm-none-eabi/4.8.2/../../../../arm-none-eabi/lib/thumb/libg.a(lib_a-siscanf.o) (__ssvfiscanf_r)
/home/linux/devkitPro/devkitARM/bin/../lib/gcc/arm-none-eabi/4.8.2/../../../../arm-none-eabi/lib/thumb/libg.a(lib_a-svfprintf.o)
                              /home/linux/devkitPro/devkitARM/bin/../lib/gcc/arm-none-eabi/4.8.2/../../../../arm-none-eabi/lib/thumb/libg.a(lib_a-sprintf.o) (_svfprintf_r)
/home/linux/devkitPro/devkitARM/bin/../lib/gcc/arm-none-eabi/4.8.2/../../../../arm-none-eabi/lib/thumb/libg.a(lib_a-sysclose.o)
                              /home/linux/devkitPro/libnds/lib/libnds9.a(dldi.o) (close)
/home/linux/devkitPro/devkitARM/bin/../lib/gcc/arm-none-eabi/4.8.2/../../../../arm-none-eabi/lib/thumb/libg.a(lib_a-syslseek.o)
                              /home/linux/devkitPro/libnds/lib/libfilesystem.a(nitrofs.o) (lseek)
/home/linux/devkitPro/devkitARM/bin/../lib/gcc/arm-none-eabi/4.8.2/../../../../arm-none-eabi/lib/thumb/libg.a(lib_a-sysopen.o)
                              /home/linux/devkitPro/libnds/lib/libfilesystem.a(nitrofs.o) (open)
/home/linux/devkitPro/devkitARM/bin/../lib/gcc/arm-none-eabi/4.8.2/../../../../arm-none-eabi/lib/thumb/libg.a(lib_a-sysread.o)
                              /home/linux/devkitPro/libnds/lib/libfilesystem.a(nitrofs.o) (read)
/home/linux/devkitPro/devkitARM/bin/../lib/gcc/arm-none-eabi/4.8.2/../../../../arm-none-eabi/lib/thumb/libg.a(lib_a-syswrite.o)
                              /home/linux/devkitPro/devkitARM/bin/../lib/gcc/arm-none-eabi/4.8.2/../../../../arm-none-eabi/lib/thumb/libstdc++.a(pure.o) (write)
/home/linux/devkitPro/devkitARM/bin/../lib/gcc/arm-none-eabi/4.8.2/../../../../arm-none-eabi/lib/thumb/libg.a(lib_a-time.o)
                              /home/linux/devkitPro/libnds/lib/libfat.a(filetime.o) (time)
/home/linux/devkitPro/devkitARM/bin/../lib/gcc/arm-none-eabi/4.8.2/../../../../arm-none-eabi/lib/thumb/libg.a(lib_a-towlower.o)
                              /home/linux/devkitPro/libnds/lib/libfat.a(directory.o) (towlower)
/home/linux/devkitPro/devkitARM/bin/../lib/gcc/arm-none-eabi/4.8.2/../../../../arm-none-eabi/lib/thumb/libg.a(lib_a-towupper.o)
                              /home/linux/devkitPro/libnds/lib/libfat.a(directory.o) (towupper)
/home/linux/devkitPro/devkitARM/bin/../lib/gcc/arm-none-eabi/4.8.2/../../../../arm-none-eabi/lib/thumb/libg.a(lib_a-tzlock.o)
                              /home/linux/devkitPro/devkitARM/bin/../lib/gcc/arm-none-eabi/4.8.2/../../../../arm-none-eabi/lib/thumb/libg.a(lib_a-mktime.o) (__tz_lock)
/home/linux/devkitPro/devkitARM/bin/../lib/gcc/arm-none-eabi/4.8.2/../../../../arm-none-eabi/lib/thumb/libg.a(lib_a-tzvars.o)
                              /home/linux/devkitPro/devkitARM/bin/../lib/gcc/arm-none-eabi/4.8.2/../../../../arm-none-eabi/lib/thumb/libg.a(lib_a-mktime.o) (_daylight)
/home/linux/devkitPro/devkitARM/bin/../lib/gcc/arm-none-eabi/4.8.2/../../../../arm-none-eabi/lib/thumb/libg.a(lib_a-ungetc.o)
                              /home/linux/devkitPro/devkitARM/bin/../lib/gcc/arm-none-eabi/4.8.2/../../../../arm-none-eabi/lib/thumb/libg.a(lib_a-svfiscanf.o) (__submore)
/home/linux/devkitPro/devkitARM/bin/../lib/gcc/arm-none-eabi/4.8.2/../../../../arm-none-eabi/lib/thumb/libg.a(lib_a-u_strerr.o)
                              /home/linux/devkitPro/devkitARM/bin/../lib/gcc/arm-none-eabi/4.8.2/../../../../arm-none-eabi/lib/thumb/libg.a(lib_a-strerror.o) (_user_strerror)
/home/linux/devkitPro/devkitARM/bin/../lib/gcc/arm-none-eabi/4.8.2/../../../../arm-none-eabi/lib/thumb/libg.a(lib_a-vfiprintf.o)
                              /home/linux/devkitPro/devkitARM/bin/../lib/gcc/arm-none-eabi/4.8.2/../../../../arm-none-eabi/lib/thumb/libg.a(lib_a-iprintf.o) (_vfiprintf_r)
/home/linux/devkitPro/devkitARM/bin/../lib/gcc/arm-none-eabi/4.8.2/../../../../arm-none-eabi/lib/thumb/libg.a(lib_a-vfprintf.o)
                              /home/linux/devkitPro/devkitARM/bin/../lib/gcc/arm-none-eabi/4.8.2/../../../../arm-none-eabi/lib/thumb/libg.a(lib_a-printf.o) (_vfprintf_r)
/home/linux/devkitPro/devkitARM/bin/../lib/gcc/arm-none-eabi/4.8.2/../../../../arm-none-eabi/lib/thumb/libg.a(lib_a-viprintf.o)
                              /home/linux/devkitPro/libnds/lib/libnds9.a(sassert.o) (viprintf)
/home/linux/devkitPro/devkitARM/bin/../lib/gcc/arm-none-eabi/4.8.2/../../../../arm-none-eabi/lib/thumb/libg.a(lib_a-wbuf.o)
                              /home/linux/devkitPro/devkitARM/bin/../lib/gcc/arm-none-eabi/4.8.2/../../../../arm-none-eabi/lib/thumb/libg.a(lib_a-putc.o) (__swbuf_r)
/home/linux/devkitPro/devkitARM/bin/../lib/gcc/arm-none-eabi/4.8.2/../../../../arm-none-eabi/lib/thumb/libg.a(lib_a-wcrtomb.o)
                              /home/linux/devkitPro/devkitARM/bin/../lib/gcc/arm-none-eabi/4.8.2/../../../../arm-none-eabi/lib/thumb/libg.a(lib_a-svfprintf.o) (_wcrtomb_r)
/home/linux/devkitPro/devkitARM/bin/../lib/gcc/arm-none-eabi/4.8.2/../../../../arm-none-eabi/lib/thumb/libg.a(lib_a-wcsrtombs.o)
                              /home/linux/devkitPro/devkitARM/bin/../lib/gcc/arm-none-eabi/4.8.2/../../../../arm-none-eabi/lib/thumb/libg.a(lib_a-svfprintf.o) (_wcsrtombs_r)
/home/linux/devkitPro/devkitARM/bin/../lib/gcc/arm-none-eabi/4.8.2/../../../../arm-none-eabi/lib/thumb/libg.a(lib_a-wctob.o)
                              /home/linux/devkitPro/libnds/lib/libfat.a(directory.o) (wctob)
/home/linux/devkitPro/devkitARM/bin/../lib/gcc/arm-none-eabi/4.8.2/../../../../arm-none-eabi/lib/thumb/libg.a(lib_a-wctomb_r.o)
                              /home/linux/devkitPro/devkitARM/bin/../lib/gcc/arm-none-eabi/4.8.2/../../../../arm-none-eabi/lib/thumb/libg.a(lib_a-locale.o) (__utf8_wctomb)
/home/linux/devkitPro/devkitARM/bin/../lib/gcc/arm-none-eabi/4.8.2/../../../../arm-none-eabi/lib/thumb/libg.a(lib_a-wsetup.o)
                              /home/linux/devkitPro/devkitARM/bin/../lib/gcc/arm-none-eabi/4.8.2/../../../../arm-none-eabi/lib/thumb/libg.a(lib_a-fvwrite.o) (__swsetup_r)
/home/linux/devkitPro/devkitARM/bin/../lib/gcc/arm-none-eabi/4.8.2/../../../../arm-none-eabi/lib/thumb/libg.a(lib_a-__atexit.o)
                              /home/linux/devkitPro/devkitARM/bin/../lib/gcc/arm-none-eabi/4.8.2/../../../../arm-none-eabi/lib/thumb/libg.a(lib_a-cxa_atexit.o) (__register_exitproc)
/home/linux/devkitPro/devkitARM/bin/../lib/gcc/arm-none-eabi/4.8.2/../../../../arm-none-eabi/lib/thumb/libg.a(lib_a-div.o)
                              /home/linux/devkitPro/devkitARM/bin/../lib/gcc/arm-none-eabi/4.8.2/../../../../arm-none-eabi/lib/thumb/libg.a(lib_a-mktime.o) (div)
/home/linux/devkitPro/devkitARM/bin/../lib/gcc/arm-none-eabi/4.8.2/../../../../arm-none-eabi/lib/thumb/libg.a(lib_a-dtoa.o)
                              /home/linux/devkitPro/devkitARM/bin/../lib/gcc/arm-none-eabi/4.8.2/../../../../arm-none-eabi/lib/thumb/libg.a(lib_a-svfprintf.o) (_dtoa_r)
/home/linux/devkitPro/devkitARM/bin/../lib/gcc/arm-none-eabi/4.8.2/../../../../arm-none-eabi/lib/thumb/libg.a(lib_a-flags.o)
                              /home/linux/devkitPro/devkitARM/bin/../lib/gcc/arm-none-eabi/4.8.2/../../../../arm-none-eabi/lib/thumb/libg.a(lib_a-fopen.o) (__sflags)
/home/linux/devkitPro/devkitARM/bin/../lib/gcc/arm-none-eabi/4.8.2/../../../../arm-none-eabi/lib/thumb/libg.a(lib_a-fputwc.o)
                              /home/linux/devkitPro/devkitARM/bin/../lib/gcc/arm-none-eabi/4.8.2/../../../../arm-none-eabi/lib/thumb/libg.a(lib_a-vfiprintf.o) (_fputwc_r)
/home/linux/devkitPro/devkitARM/bin/../lib/gcc/arm-none-eabi/4.8.2/../../../../arm-none-eabi/lib/thumb/libg.a(lib_a-getenv_r.o)
                              /home/linux/devkitPro/devkitARM/bin/../lib/gcc/arm-none-eabi/4.8.2/../../../../arm-none-eabi/lib/thumb/libg.a(lib_a-locale.o) (_getenv_r)
/home/linux/devkitPro/devkitARM/bin/../lib/gcc/arm-none-eabi/4.8.2/../../../../arm-none-eabi/lib/thumb/libg.a(lib_a-gettzinfo.o)
                              /home/linux/devkitPro/devkitARM/bin/../lib/gcc/arm-none-eabi/4.8.2/../../../../arm-none-eabi/lib/thumb/libg.a(lib_a-mktime.o) (__gettzinfo)
/home/linux/devkitPro/devkitARM/bin/../lib/gcc/arm-none-eabi/4.8.2/../../../../arm-none-eabi/lib/thumb/libg.a(lib_a-iswspace.o)
                              /home/linux/devkitPro/devkitARM/bin/../lib/gcc/arm-none-eabi/4.8.2/../../../../arm-none-eabi/lib/thumb/libg.a(lib_a-svfiscanf.o) (iswspace)
/home/linux/devkitPro/devkitARM/bin/../lib/gcc/arm-none-eabi/4.8.2/../../../../arm-none-eabi/lib/thumb/libg.a(lib_a-jp2uc.o)
                              /home/linux/devkitPro/devkitARM/bin/../lib/gcc/arm-none-eabi/4.8.2/../../../../arm-none-eabi/lib/thumb/libg.a(lib_a-towlower.o) (_jp2uc)
/home/linux/devkitPro/devkitARM/bin/../lib/gcc/arm-none-eabi/4.8.2/../../../../arm-none-eabi/lib/thumb/libg.a(lib_a-mbsnrtowcs.o)
                              /home/linux/devkitPro/devkitARM/bin/../lib/gcc/arm-none-eabi/4.8.2/../../../../arm-none-eabi/lib/thumb/libg.a(lib_a-mbsrtowcs.o) (_mbsnrtowcs_r)
/home/linux/devkitPro/devkitARM/bin/../lib/gcc/arm-none-eabi/4.8.2/../../../../arm-none-eabi/lib/thumb/libg.a(lib_a-mprec.o)
                              /home/linux/devkitPro/devkitARM/bin/../lib/gcc/arm-none-eabi/4.8.2/../../../../arm-none-eabi/lib/thumb/libg.a(lib_a-dtoa.o) (_Balloc)
/home/linux/devkitPro/devkitARM/bin/../lib/gcc/arm-none-eabi/4.8.2/../../../../arm-none-eabi/lib/thumb/libg.a(lib_a-sccl.o)
                              /home/linux/devkitPro/devkitARM/bin/../lib/gcc/arm-none-eabi/4.8.2/../../../../arm-none-eabi/lib/thumb/libg.a(lib_a-svfiscanf.o) (__sccl)
/home/linux/devkitPro/devkitARM/bin/../lib/gcc/arm-none-eabi/4.8.2/../../../../arm-none-eabi/lib/thumb/libg.a(lib_a-strtoll_r.o)
                              /home/linux/devkitPro/devkitARM/bin/../lib/gcc/arm-none-eabi/4.8.2/../../../../arm-none-eabi/lib/thumb/libg.a(lib_a-svfiscanf.o) (_strtoll_r)
/home/linux/devkitPro/devkitARM/bin/../lib/gcc/arm-none-eabi/4.8.2/../../../../arm-none-eabi/lib/thumb/libg.a(lib_a-strtoull_r.o)
                              /home/linux/devkitPro/devkitARM/bin/../lib/gcc/arm-none-eabi/4.8.2/../../../../arm-none-eabi/lib/thumb/libg.a(lib_a-svfiscanf.o) (_strtoull_r)
/home/linux/devkitPro/devkitARM/bin/../lib/gcc/arm-none-eabi/4.8.2/../../../../arm-none-eabi/lib/thumb/libg.a(lib_a-strtoul.o)
                              /home/linux/devkitPro/devkitARM/bin/../lib/gcc/arm-none-eabi/4.8.2/../../../../arm-none-eabi/lib/thumb/libg.a(lib_a-svfiscanf.o) (_strtoul_r)
/home/linux/devkitPro/devkitARM/bin/../lib/gcc/arm-none-eabi/4.8.2/../../../../arm-none-eabi/lib/thumb/libg.a(lib_a-svfiprintf.o)
                              /home/linux/devkitPro/devkitARM/bin/../lib/gcc/arm-none-eabi/4.8.2/../../../../arm-none-eabi/lib/thumb/libg.a(lib_a-svfprintf.o) (__ssprint_r)
/home/linux/devkitPro/devkitARM/bin/../lib/gcc/arm-none-eabi/4.8.2/../../../../arm-none-eabi/lib/thumb/libg.a(lib_a-wcsnrtombs.o)
                              /home/linux/devkitPro/devkitARM/bin/../lib/gcc/arm-none-eabi/4.8.2/../../../../arm-none-eabi/lib/thumb/libg.a(lib_a-wcsrtombs.o) (_wcsnrtombs_r)
/home/linux/devkitPro/devkitARM/bin/../lib/gcc/arm-none-eabi/4.8.2/../../../../arm-none-eabi/lib/thumb/libg.a(lib_a-callocr.o)
                              /home/linux/devkitPro/devkitARM/bin/../lib/gcc/arm-none-eabi/4.8.2/../../../../arm-none-eabi/lib/thumb/libg.a(lib_a-mprec.o) (_calloc_r)
/home/linux/devkitPro/devkitARM/bin/../lib/gcc/arm-none-eabi/4.8.2/../../../../arm-none-eabi/lib/thumb/libg.a(lib_a-environ.o)
                              /home/linux/devkitPro/devkitARM/bin/../lib/gcc/arm-none-eabi/4.8.2/../../../../arm-none-eabi/lib/thumb/libg.a(lib_a-getenv_r.o) (environ)
/home/linux/devkitPro/devkitARM/bin/../lib/gcc/arm-none-eabi/4.8.2/../../../../arm-none-eabi/lib/thumb/libg.a(lib_a-envlock.o)
                              /home/linux/devkitPro/devkitARM/bin/../lib/gcc/arm-none-eabi/4.8.2/../../../../arm-none-eabi/lib/thumb/libg.a(lib_a-getenv_r.o) (__env_lock)
/home/linux/devkitPro/devkitARM/bin/../lib/gcc/arm-none-eabi/4.8.2/../../../../arm-none-eabi/lib/thumb/libsysbase.a(iosupport.o)
                              /home/linux/devkitPro/libnds/lib/libfat.a(libfat.o) (FindDevice)
/home/linux/devkitPro/devkitARM/bin/../lib/gcc/arm-none-eabi/4.8.2/../../../../arm-none-eabi/lib/thumb/libsysbase.a(close.o)
                              /home/linux/devkitPro/devkitARM/bin/../lib/gcc/arm-none-eabi/4.8.2/../../../../arm-none-eabi/lib/thumb/libg.a(lib_a-stdio.o) (_close_r)
/home/linux/devkitPro/devkitARM/bin/../lib/gcc/arm-none-eabi/4.8.2/../../../../arm-none-eabi/lib/thumb/libsysbase.a(fstat.o)
                              /home/linux/devkitPro/devkitARM/bin/../lib/gcc/arm-none-eabi/4.8.2/../../../../arm-none-eabi/lib/thumb/libg.a(lib_a-fseeko.o) (_fstat_r)
/home/linux/devkitPro/devkitARM/bin/../lib/gcc/arm-none-eabi/4.8.2/../../../../arm-none-eabi/lib/thumb/libsysbase.a(getpid.o)
                              /home/linux/devkitPro/devkitARM/bin/../lib/gcc/arm-none-eabi/4.8.2/../../../../arm-none-eabi/lib/thumb/libg.a(lib_a-signal.o) (_getpid_r)
/home/linux/devkitPro/devkitARM/bin/../lib/gcc/arm-none-eabi/4.8.2/../../../../arm-none-eabi/lib/thumb/libsysbase.a(isatty.o)
                              /home/linux/devkitPro/devkitARM/bin/../lib/gcc/arm-none-eabi/4.8.2/../../../../arm-none-eabi/lib/thumb/libg.a(lib_a-makebuf.o) (_isatty_r)
/home/linux/devkitPro/devkitARM/bin/../lib/gcc/arm-none-eabi/4.8.2/../../../../arm-none-eabi/lib/thumb/libsysbase.a(kill.o)
                              /home/linux/devkitPro/devkitARM/bin/../lib/gcc/arm-none-eabi/4.8.2/../../../../arm-none-eabi/lib/thumb/libg.a(lib_a-signal.o) (_kill_r)
/home/linux/devkitPro/devkitARM/bin/../lib/gcc/arm-none-eabi/4.8.2/../../../../arm-none-eabi/lib/thumb/libsysbase.a(lseek.o)
                              /home/linux/devkitPro/devkitARM/bin/../lib/gcc/arm-none-eabi/4.8.2/../../../../arm-none-eabi/lib/thumb/libg.a(lib_a-stdio.o) (_lseek_r)
/home/linux/devkitPro/devkitARM/bin/../lib/gcc/arm-none-eabi/4.8.2/../../../../arm-none-eabi/lib/thumb/libsysbase.a(open.o)
                              /home/linux/devkitPro/devkitARM/bin/../lib/gcc/arm-none-eabi/4.8.2/../../../../arm-none-eabi/lib/thumb/libg.a(lib_a-fopen.o) (_open_r)
/home/linux/devkitPro/devkitARM/bin/../lib/gcc/arm-none-eabi/4.8.2/../../../../arm-none-eabi/lib/thumb/libsysbase.a(read.o)
                              /home/linux/devkitPro/devkitARM/bin/../lib/gcc/arm-none-eabi/4.8.2/../../../../arm-none-eabi/lib/thumb/libg.a(lib_a-stdio.o) (_read_r)
/home/linux/devkitPro/devkitARM/bin/../lib/gcc/arm-none-eabi/4.8.2/../../../../arm-none-eabi/lib/thumb/libsysbase.a(sbrk.o)
                              /home/linux/devkitPro/devkitARM/bin/../lib/gcc/arm-none-eabi/4.8.2/../../../../arm-none-eabi/lib/thumb/libg.a(lib_a-freer.o) (_sbrk_r)
/home/linux/devkitPro/devkitARM/bin/../lib/gcc/arm-none-eabi/4.8.2/../../../../arm-none-eabi/lib/thumb/libsysbase.a(times.o)
                              /home/linux/devkitPro/devkitARM/bin/../lib/gcc/arm-none-eabi/4.8.2/../../../../arm-none-eabi/lib/thumb/libg.a(lib_a-time.o) (_gettimeofday_r)
/home/linux/devkitPro/devkitARM/bin/../lib/gcc/arm-none-eabi/4.8.2/../../../../arm-none-eabi/lib/thumb/libsysbase.a(write.o)
                              /home/linux/devkitPro/devkitARM/bin/../lib/gcc/arm-none-eabi/4.8.2/../../../../arm-none-eabi/lib/thumb/libg.a(lib_a-stdio.o) (_write_r)
/home/linux/devkitPro/devkitARM/bin/../lib/gcc/arm-none-eabi/4.8.2/../../../../arm-none-eabi/lib/thumb/libsysbase.a(_exit.o)
                              /home/linux/devkitPro/devkitARM/bin/../lib/gcc/arm-none-eabi/4.8.2/../../../../arm-none-eabi/lib/thumb/libg.a(lib_a-abort.o) (_exit)
/home/linux/devkitPro/devkitARM/bin/../lib/gcc/arm-none-eabi/4.8.2/../../../../arm-none-eabi/lib/thumb/libsysbase.a(malloc_vars.o)
                              /home/linux/devkitPro/devkitARM/bin/../lib/gcc/arm-none-eabi/4.8.2/../../../../arm-none-eabi/lib/thumb/ds_arm9_crt0.o (fake_heap_start)
/home/linux/devkitPro/devkitARM/bin/../lib/gcc/arm-none-eabi/4.8.2/../../../../arm-none-eabi/lib/thumb/libsysbase.a(chdir.o)
                              /home/linux/devkitPro/libnds/lib/libfilesystem.a(nitrofs.o) (chdir)
/home/linux/devkitPro/devkitARM/bin/../lib/gcc/arm-none-eabi/4.8.2/../../../../arm-none-eabi/lib/thumb/libsysbase.a(build_argv.o)
                              /home/linux/devkitPro/devkitARM/bin/../lib/gcc/arm-none-eabi/4.8.2/../../../../arm-none-eabi/lib/thumb/ds_arm9_crt0.o (build_argv)
/home/linux/devkitPro/devkitARM/bin/../lib/gcc/arm-none-eabi/4.8.2/../../../../arm-none-eabi/lib/thumb/libsysbase.a(syscall_support.o)
                              /home/linux/devkitPro/libnds/lib/libnds9.a(initSystem.o) (__syscalls)
/home/linux/devkitPro/devkitARM/bin/../lib/gcc/arm-none-eabi/4.8.2/../../../../arm-none-eabi/lib/thumb/libsysbase.a(handle_manager.o)
                              /home/linux/devkitPro/devkitARM/bin/../lib/gcc/arm-none-eabi/4.8.2/../../../../arm-none-eabi/lib/thumb/libsysbase.a(close.o) (__release_handle)
/home/linux/devkitPro/devkitARM/bin/../lib/gcc/arm-none-eabi/4.8.2/thumb/libgcc.a(_arm_fixdfsi.o)
                              /home/linux/devkitPro/devkitARM/bin/../lib/gcc/arm-none-eabi/4.8.2/../../../../arm-none-eabi/lib/thumb/libg.a(lib_a-dtoa.o) (__aeabi_d2iz)
/home/linux/devkitPro/devkitARM/bin/../lib/gcc/arm-none-eabi/4.8.2/thumb/libgcc.a(_aeabi_uldivmod.o)
                              /home/linux/devkitPro/devkitARM/bin/../lib/gcc/arm-none-eabi/4.8.2/../../../../arm-none-eabi/lib/thumb/libg.a(lib_a-svfprintf.o) (__aeabi_uldivmod)
/home/linux/devkitPro/devkitARM/bin/../lib/gcc/arm-none-eabi/4.8.2/thumb/libgcc.a(bpabi.o)
                              /home/linux/devkitPro/devkitARM/bin/../lib/gcc/arm-none-eabi/4.8.2/thumb/libgcc.a(_aeabi_uldivmod.o) (__gnu_uldivmod_helper)
/home/linux/devkitPro/devkitARM/bin/../lib/gcc/arm-none-eabi/4.8.2/thumb/libgcc.a(_divdi3.o)
                              /home/linux/devkitPro/devkitARM/bin/../lib/gcc/arm-none-eabi/4.8.2/thumb/libgcc.a(bpabi.o) (__divdi3)
/home/linux/devkitPro/devkitARM/bin/../lib/gcc/arm-none-eabi/4.8.2/thumb/libgcc.a(_udivdi3.o)
                              /home/linux/devkitPro/devkitARM/bin/../lib/gcc/arm-none-eabi/4.8.2/thumb/libgcc.a(bpabi.o) (__udivdi3)
/home/linux/devkitPro/devkitARM/bin/../lib/gcc/arm-none-eabi/4.8.2/thumb/libgcc.a(_clzsi2.o)
                              /home/linux/devkitPro/devkitARM/bin/../lib/gcc/arm-none-eabi/4.8.2/thumb/libgcc.a(_divdi3.o) (__clzsi2)

Allocating common symbols
Common symbol       size              file

currentCopy         0x5c              /home/linux/devkitPro/libnds/lib/libnds9.a(console.o)
fifo_datamsg_data   0x40              /home/linux/devkitPro/libnds/lib/libnds9.a(fifosystem.o)
__dsimode           0x1               /home/linux/devkitPro/libnds/lib/libnds9.a(initSystem.o)
bgState             0x140             /home/linux/devkitPro/libnds/lib/libnds9.a(background.o)
fifo_buffer         0x800             /home/linux/devkitPro/libnds/lib/libnds9.a(fifosystem.o)
bgIsTextLut         0x8               /home/linux/devkitPro/libnds/lib/libnds9.a(background.o)
fifo_value32_func   0x40              /home/linux/devkitPro/libnds/lib/libnds9.a(fifosystem.o)
fifo_address_func   0x40              /home/linux/devkitPro/libnds/lib/libnds9.a(fifosystem.o)
fifo_value32_data   0x40              /home/linux/devkitPro/libnds/lib/libnds9.a(fifosystem.o)
fifo_value32_queue  0x40              /home/linux/devkitPro/libnds/lib/libnds9.a(fifosystem.o)
fifo_data_queue     0x40              /home/linux/devkitPro/libnds/lib/libnds9.a(fifosystem.o)
punixTime           0x4               /home/linux/devkitPro/devkitARM/bin/../lib/gcc/arm-none-eabi/4.8.2/../../../../arm-none-eabi/lib/thumb/libsysbase.a(times.o)
fifo_address_data   0x40              /home/linux/devkitPro/libnds/lib/libnds9.a(fifosystem.o)
fifo_datamsg_func   0x40              /home/linux/devkitPro/libnds/lib/libnds9.a(fifosystem.o)
fifo_address_queue  0x40              /home/linux/devkitPro/libnds/lib/libnds9.a(fifosystem.o)

Discarded input sections

 .group         0x0000000000000000        0x8 MapManager.o
 .group         0x0000000000000000        0x8 MapManager.o
 .group         0x0000000000000000        0x8 MapManager.o
 .group         0x0000000000000000        0x8 MapManager.o
 .group         0x0000000000000000        0x8 MapManager.o
 .group         0x0000000000000000        0x8 MapManager.o
 .group         0x0000000000000000       0x10 /home/linux/devkitPro/devkitARM/bin/../lib/gcc/arm-none-eabi/4.8.2/../../../../arm-none-eabi/lib/thumb/libstdc++.a(string-inst.o)
 .group         0x0000000000000000       0x10 /home/linux/devkitPro/devkitARM/bin/../lib/gcc/arm-none-eabi/4.8.2/../../../../arm-none-eabi/lib/thumb/libstdc++.a(string-inst.o)
 .group         0x0000000000000000       0x10 /home/linux/devkitPro/devkitARM/bin/../lib/gcc/arm-none-eabi/4.8.2/../../../../arm-none-eabi/lib/thumb/libstdc++.a(string-inst.o)
 .group         0x0000000000000000       0x10 /home/linux/devkitPro/devkitARM/bin/../lib/gcc/arm-none-eabi/4.8.2/../../../../arm-none-eabi/lib/thumb/libstdc++.a(string-inst.o)
 .group         0x0000000000000000       0x10 /home/linux/devkitPro/devkitARM/bin/../lib/gcc/arm-none-eabi/4.8.2/../../../../arm-none-eabi/lib/thumb/libstdc++.a(string-inst.o)
 .group         0x0000000000000000       0x10 /home/linux/devkitPro/devkitARM/bin/../lib/gcc/arm-none-eabi/4.8.2/../../../../arm-none-eabi/lib/thumb/libstdc++.a(string-inst.o)
 .group         0x0000000000000000       0x10 /home/linux/devkitPro/devkitARM/bin/../lib/gcc/arm-none-eabi/4.8.2/../../../../arm-none-eabi/lib/thumb/libstdc++.a(string-inst.o)
 .group         0x0000000000000000       0x10 /home/linux/devkitPro/devkitARM/bin/../lib/gcc/arm-none-eabi/4.8.2/../../../../arm-none-eabi/lib/thumb/libstdc++.a(string-inst.o)
 .group         0x0000000000000000       0x10 /home/linux/devkitPro/devkitARM/bin/../lib/gcc/arm-none-eabi/4.8.2/../../../../arm-none-eabi/lib/thumb/libstdc++.a(string-inst.o)
 .group         0x0000000000000000       0x10 /home/linux/devkitPro/devkitARM/bin/../lib/gcc/arm-none-eabi/4.8.2/../../../../arm-none-eabi/lib/thumb/libstdc++.a(string-inst.o)
 .group         0x0000000000000000       0x10 /home/linux/devkitPro/devkitARM/bin/../lib/gcc/arm-none-eabi/4.8.2/../../../../arm-none-eabi/lib/thumb/libstdc++.a(string-inst.o)
 .group         0x0000000000000000       0x10 /home/linux/devkitPro/devkitARM/bin/../lib/gcc/arm-none-eabi/4.8.2/../../../../arm-none-eabi/lib/thumb/libstdc++.a(string-inst.o)
 .group         0x0000000000000000       0x10 /home/linux/devkitPro/devkitARM/bin/../lib/gcc/arm-none-eabi/4.8.2/../../../../arm-none-eabi/lib/thumb/libstdc++.a(string-inst.o)
 .group         0x0000000000000000       0x10 /home/linux/devkitPro/devkitARM/bin/../lib/gcc/arm-none-eabi/4.8.2/../../../../arm-none-eabi/lib/thumb/libstdc++.a(string-inst.o)
 .group         0x0000000000000000       0x10 /home/linux/devkitPro/devkitARM/bin/../lib/gcc/arm-none-eabi/4.8.2/../../../../arm-none-eabi/lib/thumb/libstdc++.a(string-inst.o)
 .group         0x0000000000000000       0x10 /home/linux/devkitPro/devkitARM/bin/../lib/gcc/arm-none-eabi/4.8.2/../../../../arm-none-eabi/lib/thumb/libstdc++.a(string-inst.o)
 .group         0x0000000000000000       0x10 /home/linux/devkitPro/devkitARM/bin/../lib/gcc/arm-none-eabi/4.8.2/../../../../arm-none-eabi/lib/thumb/libstdc++.a(string-inst.o)
 .group         0x0000000000000000       0x10 /home/linux/devkitPro/devkitARM/bin/../lib/gcc/arm-none-eabi/4.8.2/../../../../arm-none-eabi/lib/thumb/libstdc++.a(string-inst.o)
 .group         0x0000000000000000       0x10 /home/linux/devkitPro/devkitARM/bin/../lib/gcc/arm-none-eabi/4.8.2/../../../../arm-none-eabi/lib/thumb/libstdc++.a(string-inst.o)
 .group         0x0000000000000000       0x10 /home/linux/devkitPro/devkitARM/bin/../lib/gcc/arm-none-eabi/4.8.2/../../../../arm-none-eabi/lib/thumb/libstdc++.a(string-inst.o)
 .group         0x0000000000000000       0x10 /home/linux/devkitPro/devkitARM/bin/../lib/gcc/arm-none-eabi/4.8.2/../../../../arm-none-eabi/lib/thumb/libstdc++.a(string-inst.o)
 .group         0x0000000000000000       0x10 /home/linux/devkitPro/devkitARM/bin/../lib/gcc/arm-none-eabi/4.8.2/../../../../arm-none-eabi/lib/thumb/libstdc++.a(string-inst.o)
 .group         0x0000000000000000       0x10 /home/linux/devkitPro/devkitARM/bin/../lib/gcc/arm-none-eabi/4.8.2/../../../../arm-none-eabi/lib/thumb/libstdc++.a(string-inst.o)
 .group         0x0000000000000000       0x10 /home/linux/devkitPro/devkitARM/bin/../lib/gcc/arm-none-eabi/4.8.2/../../../../arm-none-eabi/lib/thumb/libstdc++.a(string-inst.o)
 .group         0x0000000000000000       0x10 /home/linux/devkitPro/devkitARM/bin/../lib/gcc/arm-none-eabi/4.8.2/../../../../arm-none-eabi/lib/thumb/libstdc++.a(string-inst.o)
 .group         0x0000000000000000       0x10 /home/linux/devkitPro/devkitARM/bin/../lib/gcc/arm-none-eabi/4.8.2/../../../../arm-none-eabi/lib/thumb/libstdc++.a(string-inst.o)
 .group         0x0000000000000000       0x10 /home/linux/devkitPro/devkitARM/bin/../lib/gcc/arm-none-eabi/4.8.2/../../../../arm-none-eabi/lib/thumb/libstdc++.a(string-inst.o)
 .group         0x0000000000000000       0x10 /home/linux/devkitPro/devkitARM/bin/../lib/gcc/arm-none-eabi/4.8.2/../../../../arm-none-eabi/lib/thumb/libstdc++.a(string-inst.o)
 .group         0x0000000000000000       0x10 /home/linux/devkitPro/devkitARM/bin/../lib/gcc/arm-none-eabi/4.8.2/../../../../arm-none-eabi/lib/thumb/libstdc++.a(string-inst.o)
 .group         0x0000000000000000       0x10 /home/linux/devkitPro/devkitARM/bin/../lib/gcc/arm-none-eabi/4.8.2/../../../../arm-none-eabi/lib/thumb/libstdc++.a(string-inst.o)
 .group         0x0000000000000000       0x10 /home/linux/devkitPro/devkitARM/bin/../lib/gcc/arm-none-eabi/4.8.2/../../../../arm-none-eabi/lib/thumb/libstdc++.a(string-inst.o)
 .group         0x0000000000000000       0x10 /home/linux/devkitPro/devkitARM/bin/../lib/gcc/arm-none-eabi/4.8.2/../../../../arm-none-eabi/lib/thumb/libstdc++.a(string-inst.o)
 .group         0x0000000000000000       0x10 /home/linux/devkitPro/devkitARM/bin/../lib/gcc/arm-none-eabi/4.8.2/../../../../arm-none-eabi/lib/thumb/libstdc++.a(string-inst.o)
 .group         0x0000000000000000       0x10 /home/linux/devkitPro/devkitARM/bin/../lib/gcc/arm-none-eabi/4.8.2/../../../../arm-none-eabi/lib/thumb/libstdc++.a(string-inst.o)
 .group         0x0000000000000000       0x10 /home/linux/devkitPro/devkitARM/bin/../lib/gcc/arm-none-eabi/4.8.2/../../../../arm-none-eabi/lib/thumb/libstdc++.a(string-inst.o)
 .group         0x0000000000000000       0x10 /home/linux/devkitPro/devkitARM/bin/../lib/gcc/arm-none-eabi/4.8.2/../../../../arm-none-eabi/lib/thumb/libstdc++.a(string-inst.o)
 .group         0x0000000000000000       0x10 /home/linux/devkitPro/devkitARM/bin/../lib/gcc/arm-none-eabi/4.8.2/../../../../arm-none-eabi/lib/thumb/libstdc++.a(string-inst.o)
 .group         0x0000000000000000       0x10 /home/linux/devkitPro/devkitARM/bin/../lib/gcc/arm-none-eabi/4.8.2/../../../../arm-none-eabi/lib/thumb/libstdc++.a(string-inst.o)
 .group         0x0000000000000000       0x10 /home/linux/devkitPro/devkitARM/bin/../lib/gcc/arm-none-eabi/4.8.2/../../../../arm-none-eabi/lib/thumb/libstdc++.a(string-inst.o)
 .group         0x0000000000000000       0x10 /home/linux/devkitPro/devkitARM/bin/../lib/gcc/arm-none-eabi/4.8.2/../../../../arm-none-eabi/lib/thumb/libstdc++.a(string-inst.o)
 .group         0x0000000000000000       0x10 /home/linux/devkitPro/devkitARM/bin/../lib/gcc/arm-none-eabi/4.8.2/../../../../arm-none-eabi/lib/thumb/libstdc++.a(string-inst.o)
 .group         0x0000000000000000       0x10 /home/linux/devkitPro/devkitARM/bin/../lib/gcc/arm-none-eabi/4.8.2/../../../../arm-none-eabi/lib/thumb/libstdc++.a(string-inst.o)
 .group         0x0000000000000000       0x10 /home/linux/devkitPro/devkitARM/bin/../lib/gcc/arm-none-eabi/4.8.2/../../../../arm-none-eabi/lib/thumb/libstdc++.a(string-inst.o)
 .group         0x0000000000000000       0x10 /home/linux/devkitPro/devkitARM/bin/../lib/gcc/arm-none-eabi/4.8.2/../../../../arm-none-eabi/lib/thumb/libstdc++.a(string-inst.o)
 .group         0x0000000000000000       0x10 /home/linux/devkitPro/devkitARM/bin/../lib/gcc/arm-none-eabi/4.8.2/../../../../arm-none-eabi/lib/thumb/libstdc++.a(string-inst.o)
 .group         0x0000000000000000       0x10 /home/linux/devkitPro/devkitARM/bin/../lib/gcc/arm-none-eabi/4.8.2/../../../../arm-none-eabi/lib/thumb/libstdc++.a(string-inst.o)
 .group         0x0000000000000000       0x10 /home/linux/devkitPro/devkitARM/bin/../lib/gcc/arm-none-eabi/4.8.2/../../../../arm-none-eabi/lib/thumb/libstdc++.a(string-inst.o)
 .group         0x0000000000000000       0x10 /home/linux/devkitPro/devkitARM/bin/../lib/gcc/arm-none-eabi/4.8.2/../../../../arm-none-eabi/lib/thumb/libstdc++.a(string-inst.o)
 .group         0x0000000000000000       0x10 /home/linux/devkitPro/devkitARM/bin/../lib/gcc/arm-none-eabi/4.8.2/../../../../arm-none-eabi/lib/thumb/libstdc++.a(string-inst.o)
 .group         0x0000000000000000       0x10 /home/linux/devkitPro/devkitARM/bin/../lib/gcc/arm-none-eabi/4.8.2/../../../../arm-none-eabi/lib/thumb/libstdc++.a(string-inst.o)
 .group         0x0000000000000000       0x10 /home/linux/devkitPro/devkitARM/bin/../lib/gcc/arm-none-eabi/4.8.2/../../../../arm-none-eabi/lib/thumb/libstdc++.a(string-inst.o)
 .group         0x0000000000000000       0x10 /home/linux/devkitPro/devkitARM/bin/../lib/gcc/arm-none-eabi/4.8.2/../../../../arm-none-eabi/lib/thumb/libstdc++.a(string-inst.o)
 .group         0x0000000000000000       0x10 /home/linux/devkitPro/devkitARM/bin/../lib/gcc/arm-none-eabi/4.8.2/../../../../arm-none-eabi/lib/thumb/libstdc++.a(string-inst.o)
 .group         0x0000000000000000       0x10 /home/linux/devkitPro/devkitARM/bin/../lib/gcc/arm-none-eabi/4.8.2/../../../../arm-none-eabi/lib/thumb/libstdc++.a(string-inst.o)
 .group         0x0000000000000000       0x10 /home/linux/devkitPro/devkitARM/bin/../lib/gcc/arm-none-eabi/4.8.2/../../../../arm-none-eabi/lib/thumb/libstdc++.a(string-inst.o)
 .group         0x0000000000000000       0x10 /home/linux/devkitPro/devkitARM/bin/../lib/gcc/arm-none-eabi/4.8.2/../../../../arm-none-eabi/lib/thumb/libstdc++.a(string-inst.o)
 .group         0x0000000000000000       0x10 /home/linux/devkitPro/devkitARM/bin/../lib/gcc/arm-none-eabi/4.8.2/../../../../arm-none-eabi/lib/thumb/libstdc++.a(string-inst.o)
 .group         0x0000000000000000       0x10 /home/linux/devkitPro/devkitARM/bin/../lib/gcc/arm-none-eabi/4.8.2/../../../../arm-none-eabi/lib/thumb/libstdc++.a(string-inst.o)
 .group         0x0000000000000000       0x10 /home/linux/devkitPro/devkitARM/bin/../lib/gcc/arm-none-eabi/4.8.2/../../../../arm-none-eabi/lib/thumb/libstdc++.a(string-inst.o)
 .group         0x0000000000000000       0x10 /home/linux/devkitPro/devkitARM/bin/../lib/gcc/arm-none-eabi/4.8.2/../../../../arm-none-eabi/lib/thumb/libstdc++.a(string-inst.o)
 .group         0x0000000000000000       0x10 /home/linux/devkitPro/devkitARM/bin/../lib/gcc/arm-none-eabi/4.8.2/../../../../arm-none-eabi/lib/thumb/libstdc++.a(string-inst.o)
 .group         0x0000000000000000       0x10 /home/linux/devkitPro/devkitARM/bin/../lib/gcc/arm-none-eabi/4.8.2/../../../../arm-none-eabi/lib/thumb/libstdc++.a(string-inst.o)
 .group         0x0000000000000000       0x10 /home/linux/devkitPro/devkitARM/bin/../lib/gcc/arm-none-eabi/4.8.2/../../../../arm-none-eabi/lib/thumb/libstdc++.a(string-inst.o)
 .group         0x0000000000000000       0x10 /home/linux/devkitPro/devkitARM/bin/../lib/gcc/arm-none-eabi/4.8.2/../../../../arm-none-eabi/lib/thumb/libstdc++.a(string-inst.o)
 .group         0x0000000000000000       0x10 /home/linux/devkitPro/devkitARM/bin/../lib/gcc/arm-none-eabi/4.8.2/../../../../arm-none-eabi/lib/thumb/libstdc++.a(string-inst.o)
 .group         0x0000000000000000       0x10 /home/linux/devkitPro/devkitARM/bin/../lib/gcc/arm-none-eabi/4.8.2/../../../../arm-none-eabi/lib/thumb/libstdc++.a(string-inst.o)
 .group         0x0000000000000000       0x10 /home/linux/devkitPro/devkitARM/bin/../lib/gcc/arm-none-eabi/4.8.2/../../../../arm-none-eabi/lib/thumb/libstdc++.a(string-inst.o)
 .group         0x0000000000000000       0x10 /home/linux/devkitPro/devkitARM/bin/../lib/gcc/arm-none-eabi/4.8.2/../../../../arm-none-eabi/lib/thumb/libstdc++.a(string-inst.o)
 .group         0x0000000000000000       0x10 /home/linux/devkitPro/devkitARM/bin/../lib/gcc/arm-none-eabi/4.8.2/../../../../arm-none-eabi/lib/thumb/libstdc++.a(string-inst.o)
 .group         0x0000000000000000       0x10 /home/linux/devkitPro/devkitARM/bin/../lib/gcc/arm-none-eabi/4.8.2/../../../../arm-none-eabi/lib/thumb/libstdc++.a(string-inst.o)
 .group         0x0000000000000000       0x10 /home/linux/devkitPro/devkitARM/bin/../lib/gcc/arm-none-eabi/4.8.2/../../../../arm-none-eabi/lib/thumb/libstdc++.a(string-inst.o)
 .group         0x0000000000000000       0x10 /home/linux/devkitPro/devkitARM/bin/../lib/gcc/arm-none-eabi/4.8.2/../../../../arm-none-eabi/lib/thumb/libstdc++.a(string-inst.o)
 .group         0x0000000000000000       0x10 /home/linux/devkitPro/devkitARM/bin/../lib/gcc/arm-none-eabi/4.8.2/../../../../arm-none-eabi/lib/thumb/libstdc++.a(string-inst.o)
 .group         0x0000000000000000       0x10 /home/linux/devkitPro/devkitARM/bin/../lib/gcc/arm-none-eabi/4.8.2/../../../../arm-none-eabi/lib/thumb/libstdc++.a(string-inst.o)
 .group         0x0000000000000000       0x10 /home/linux/devkitPro/devkitARM/bin/../lib/gcc/arm-none-eabi/4.8.2/../../../../arm-none-eabi/lib/thumb/libstdc++.a(string-inst.o)
 .group         0x0000000000000000       0x10 /home/linux/devkitPro/devkitARM/bin/../lib/gcc/arm-none-eabi/4.8.2/../../../../arm-none-eabi/lib/thumb/libstdc++.a(string-inst.o)
 .group         0x0000000000000000       0x10 /home/linux/devkitPro/devkitARM/bin/../lib/gcc/arm-none-eabi/4.8.2/../../../../arm-none-eabi/lib/thumb/libstdc++.a(string-inst.o)
 .group         0x0000000000000000       0x10 /home/linux/devkitPro/devkitARM/bin/../lib/gcc/arm-none-eabi/4.8.2/../../../../arm-none-eabi/lib/thumb/libstdc++.a(string-inst.o)
 .group         0x0000000000000000       0x10 /home/linux/devkitPro/devkitARM/bin/../lib/gcc/arm-none-eabi/4.8.2/../../../../arm-none-eabi/lib/thumb/libstdc++.a(string-inst.o)
 .group         0x0000000000000000       0x10 /home/linux/devkitPro/devkitARM/bin/../lib/gcc/arm-none-eabi/4.8.2/../../../../arm-none-eabi/lib/thumb/libstdc++.a(string-inst.o)
 .group         0x0000000000000000       0x10 /home/linux/devkitPro/devkitARM/bin/../lib/gcc/arm-none-eabi/4.8.2/../../../../arm-none-eabi/lib/thumb/libstdc++.a(string-inst.o)
 .group         0x0000000000000000       0x10 /home/linux/devkitPro/devkitARM/bin/../lib/gcc/arm-none-eabi/4.8.2/../../../../arm-none-eabi/lib/thumb/libstdc++.a(string-inst.o)
 .group         0x0000000000000000       0x10 /home/linux/devkitPro/devkitARM/bin/../lib/gcc/arm-none-eabi/4.8.2/../../../../arm-none-eabi/lib/thumb/libstdc++.a(string-inst.o)
 .group         0x0000000000000000       0x10 /home/linux/devkitPro/devkitARM/bin/../lib/gcc/arm-none-eabi/4.8.2/../../../../arm-none-eabi/lib/thumb/libstdc++.a(string-inst.o)
 .group         0x0000000000000000       0x10 /home/linux/devkitPro/devkitARM/bin/../lib/gcc/arm-none-eabi/4.8.2/../../../../arm-none-eabi/lib/thumb/libstdc++.a(string-inst.o)
 .group         0x0000000000000000       0x10 /home/linux/devkitPro/devkitARM/bin/../lib/gcc/arm-none-eabi/4.8.2/../../../../arm-none-eabi/lib/thumb/libstdc++.a(string-inst.o)
 .group         0x0000000000000000       0x10 /home/linux/devkitPro/devkitARM/bin/../lib/gcc/arm-none-eabi/4.8.2/../../../../arm-none-eabi/lib/thumb/libstdc++.a(string-inst.o)
 .group         0x0000000000000000       0x10 /home/linux/devkitPro/devkitARM/bin/../lib/gcc/arm-none-eabi/4.8.2/../../../../arm-none-eabi/lib/thumb/libstdc++.a(string-inst.o)
 .group         0x0000000000000000       0x10 /home/linux/devkitPro/devkitARM/bin/../lib/gcc/arm-none-eabi/4.8.2/../../../../arm-none-eabi/lib/thumb/libstdc++.a(string-inst.o)
 .group         0x0000000000000000       0x10 /home/linux/devkitPro/devkitARM/bin/../lib/gcc/arm-none-eabi/4.8.2/../../../../arm-none-eabi/lib/thumb/libstdc++.a(string-inst.o)
 .group         0x0000000000000000       0x10 /home/linux/devkitPro/devkitARM/bin/../lib/gcc/arm-none-eabi/4.8.2/../../../../arm-none-eabi/lib/thumb/libstdc++.a(string-inst.o)
 .group         0x0000000000000000       0x10 /home/linux/devkitPro/devkitARM/bin/../lib/gcc/arm-none-eabi/4.8.2/../../../../arm-none-eabi/lib/thumb/libstdc++.a(string-inst.o)
 .group         0x0000000000000000       0x10 /home/linux/devkitPro/devkitARM/bin/../lib/gcc/arm-none-eabi/4.8.2/../../../../arm-none-eabi/lib/thumb/libstdc++.a(string-inst.o)
 .group         0x0000000000000000       0x10 /home/linux/devkitPro/devkitARM/bin/../lib/gcc/arm-none-eabi/4.8.2/../../../../arm-none-eabi/lib/thumb/libstdc++.a(string-inst.o)
 .group         0x0000000000000000       0x10 /home/linux/devkitPro/devkitARM/bin/../lib/gcc/arm-none-eabi/4.8.2/../../../../arm-none-eabi/lib/thumb/libstdc++.a(string-inst.o)
 .group         0x0000000000000000       0x10 /home/linux/devkitPro/devkitARM/bin/../lib/gcc/arm-none-eabi/4.8.2/../../../../arm-none-eabi/lib/thumb/libstdc++.a(string-inst.o)
 .group         0x0000000000000000       0x10 /home/linux/devkitPro/devkitARM/bin/../lib/gcc/arm-none-eabi/4.8.2/../../../../arm-none-eabi/lib/thumb/libstdc++.a(string-inst.o)
 .group         0x0000000000000000       0x10 /home/linux/devkitPro/devkitARM/bin/../lib/gcc/arm-none-eabi/4.8.2/../../../../arm-none-eabi/lib/thumb/libstdc++.a(string-inst.o)
 .group         0x0000000000000000       0x10 /home/linux/devkitPro/devkitARM/bin/../lib/gcc/arm-none-eabi/4.8.2/../../../../arm-none-eabi/lib/thumb/libstdc++.a(string-inst.o)
 .group         0x0000000000000000       0x10 /home/linux/devkitPro/devkitARM/bin/../lib/gcc/arm-none-eabi/4.8.2/../../../../arm-none-eabi/lib/thumb/libstdc++.a(string-inst.o)
 .group         0x0000000000000000       0x10 /home/linux/devkitPro/devkitARM/bin/../lib/gcc/arm-none-eabi/4.8.2/../../../../arm-none-eabi/lib/thumb/libstdc++.a(string-inst.o)
 .group         0x0000000000000000       0x10 /home/linux/devkitPro/devkitARM/bin/../lib/gcc/arm-none-eabi/4.8.2/../../../../arm-none-eabi/lib/thumb/libstdc++.a(string-inst.o)
 .group         0x0000000000000000       0x10 /home/linux/devkitPro/devkitARM/bin/../lib/gcc/arm-none-eabi/4.8.2/../../../../arm-none-eabi/lib/thumb/libstdc++.a(string-inst.o)
 .group         0x0000000000000000       0x10 /home/linux/devkitPro/devkitARM/bin/../lib/gcc/arm-none-eabi/4.8.2/../../../../arm-none-eabi/lib/thumb/libstdc++.a(string-inst.o)
 .group         0x0000000000000000       0x10 /home/linux/devkitPro/devkitARM/bin/../lib/gcc/arm-none-eabi/4.8.2/../../../../arm-none-eabi/lib/thumb/libstdc++.a(string-inst.o)
 .group         0x0000000000000000       0x10 /home/linux/devkitPro/devkitARM/bin/../lib/gcc/arm-none-eabi/4.8.2/../../../../arm-none-eabi/lib/thumb/libstdc++.a(string-inst.o)
 .group         0x0000000000000000       0x10 /home/linux/devkitPro/devkitARM/bin/../lib/gcc/arm-none-eabi/4.8.2/../../../../arm-none-eabi/lib/thumb/libstdc++.a(string-inst.o)
 .group         0x0000000000000000       0x10 /home/linux/devkitPro/devkitARM/bin/../lib/gcc/arm-none-eabi/4.8.2/../../../../arm-none-eabi/lib/thumb/libstdc++.a(string-inst.o)
 .group         0x0000000000000000       0x10 /home/linux/devkitPro/devkitARM/bin/../lib/gcc/arm-none-eabi/4.8.2/../../../../arm-none-eabi/lib/thumb/libstdc++.a(string-inst.o)
 .group         0x0000000000000000       0x10 /home/linux/devkitPro/devkitARM/bin/../lib/gcc/arm-none-eabi/4.8.2/../../../../arm-none-eabi/lib/thumb/libstdc++.a(string-inst.o)
 .group         0x0000000000000000       0x10 /home/linux/devkitPro/devkitARM/bin/../lib/gcc/arm-none-eabi/4.8.2/../../../../arm-none-eabi/lib/thumb/libstdc++.a(string-inst.o)
 .group         0x0000000000000000       0x10 /home/linux/devkitPro/devkitARM/bin/../lib/gcc/arm-none-eabi/4.8.2/../../../../arm-none-eabi/lib/thumb/libstdc++.a(string-inst.o)
 .group         0x0000000000000000       0x10 /home/linux/devkitPro/devkitARM/bin/../lib/gcc/arm-none-eabi/4.8.2/../../../../arm-none-eabi/lib/thumb/libstdc++.a(string-inst.o)
 .group         0x0000000000000000       0x10 /home/linux/devkitPro/devkitARM/bin/../lib/gcc/arm-none-eabi/4.8.2/../../../../arm-none-eabi/lib/thumb/libstdc++.a(string-inst.o)
 .group         0x0000000000000000       0x10 /home/linux/devkitPro/devkitARM/bin/../lib/gcc/arm-none-eabi/4.8.2/../../../../arm-none-eabi/lib/thumb/libstdc++.a(string-inst.o)
 .group         0x0000000000000000       0x10 /home/linux/devkitPro/devkitARM/bin/../lib/gcc/arm-none-eabi/4.8.2/../../../../arm-none-eabi/lib/thumb/libstdc++.a(string-inst.o)
 .group         0x0000000000000000       0x10 /home/linux/devkitPro/devkitARM/bin/../lib/gcc/arm-none-eabi/4.8.2/../../../../arm-none-eabi/lib/thumb/libstdc++.a(string-inst.o)
 .group         0x0000000000000000       0x10 /home/linux/devkitPro/devkitARM/bin/../lib/gcc/arm-none-eabi/4.8.2/../../../../arm-none-eabi/lib/thumb/libstdc++.a(string-inst.o)
 .group         0x0000000000000000       0x10 /home/linux/devkitPro/devkitARM/bin/../lib/gcc/arm-none-eabi/4.8.2/../../../../arm-none-eabi/lib/thumb/libstdc++.a(string-inst.o)
 .group         0x0000000000000000       0x10 /home/linux/devkitPro/devkitARM/bin/../lib/gcc/arm-none-eabi/4.8.2/../../../../arm-none-eabi/lib/thumb/libstdc++.a(string-inst.o)
 .group         0x0000000000000000       0x10 /home/linux/devkitPro/devkitARM/bin/../lib/gcc/arm-none-eabi/4.8.2/../../../../arm-none-eabi/lib/thumb/libstdc++.a(string-inst.o)
 .group         0x0000000000000000       0x10 /home/linux/devkitPro/devkitARM/bin/../lib/gcc/arm-none-eabi/4.8.2/../../../../arm-none-eabi/lib/thumb/libstdc++.a(string-inst.o)
 .group         0x0000000000000000       0x10 /home/linux/devkitPro/devkitARM/bin/../lib/gcc/arm-none-eabi/4.8.2/../../../../arm-none-eabi/lib/thumb/libstdc++.a(string-inst.o)
 .group         0x0000000000000000       0x10 /home/linux/devkitPro/devkitARM/bin/../lib/gcc/arm-none-eabi/4.8.2/../../../../arm-none-eabi/lib/thumb/libstdc++.a(string-inst.o)
 .group         0x0000000000000000       0x10 /home/linux/devkitPro/devkitARM/bin/../lib/gcc/arm-none-eabi/4.8.2/../../../../arm-none-eabi/lib/thumb/libstdc++.a(string-inst.o)
 .group         0x0000000000000000       0x10 /home/linux/devkitPro/devkitARM/bin/../lib/gcc/arm-none-eabi/4.8.2/../../../../arm-none-eabi/lib/thumb/libstdc++.a(string-inst.o)
 .group         0x0000000000000000       0x10 /home/linux/devkitPro/devkitARM/bin/../lib/gcc/arm-none-eabi/4.8.2/../../../../arm-none-eabi/lib/thumb/libstdc++.a(string-inst.o)
 .group         0x0000000000000000       0x10 /home/linux/devkitPro/devkitARM/bin/../lib/gcc/arm-none-eabi/4.8.2/../../../../arm-none-eabi/lib/thumb/libstdc++.a(string-inst.o)
 .group         0x0000000000000000       0x10 /home/linux/devkitPro/devkitARM/bin/../lib/gcc/arm-none-eabi/4.8.2/../../../../arm-none-eabi/lib/thumb/libstdc++.a(string-inst.o)
 .group         0x0000000000000000       0x10 /home/linux/devkitPro/devkitARM/bin/../lib/gcc/arm-none-eabi/4.8.2/../../../../arm-none-eabi/lib/thumb/libstdc++.a(string-inst.o)
 .group         0x0000000000000000       0x10 /home/linux/devkitPro/devkitARM/bin/../lib/gcc/arm-none-eabi/4.8.2/../../../../arm-none-eabi/lib/thumb/libstdc++.a(string-inst.o)
 .group         0x0000000000000000       0x10 /home/linux/devkitPro/devkitARM/bin/../lib/gcc/arm-none-eabi/4.8.2/../../../../arm-none-eabi/lib/thumb/libstdc++.a(string-inst.o)
 .group         0x0000000000000000       0x10 /home/linux/devkitPro/devkitARM/bin/../lib/gcc/arm-none-eabi/4.8.2/../../../../arm-none-eabi/lib/thumb/libstdc++.a(string-inst.o)
 .group         0x0000000000000000       0x10 /home/linux/devkitPro/devkitARM/bin/../lib/gcc/arm-none-eabi/4.8.2/../../../../arm-none-eabi/lib/thumb/libstdc++.a(string-inst.o)
 .group         0x0000000000000000       0x10 /home/linux/devkitPro/devkitARM/bin/../lib/gcc/arm-none-eabi/4.8.2/../../../../arm-none-eabi/lib/thumb/libstdc++.a(string-inst.o)
 .group         0x0000000000000000       0x10 /home/linux/devkitPro/devkitARM/bin/../lib/gcc/arm-none-eabi/4.8.2/../../../../arm-none-eabi/lib/thumb/libstdc++.a(string-inst.o)
 .group         0x0000000000000000       0x10 /home/linux/devkitPro/devkitARM/bin/../lib/gcc/arm-none-eabi/4.8.2/../../../../arm-none-eabi/lib/thumb/libstdc++.a(string-inst.o)
 .group         0x0000000000000000       0x10 /home/linux/devkitPro/devkitARM/bin/../lib/gcc/arm-none-eabi/4.8.2/../../../../arm-none-eabi/lib/thumb/libstdc++.a(string-inst.o)
 .group         0x0000000000000000       0x10 /home/linux/devkitPro/devkitARM/bin/../lib/gcc/arm-none-eabi/4.8.2/../../../../arm-none-eabi/lib/thumb/libstdc++.a(string-inst.o)
 .group         0x0000000000000000       0x10 /home/linux/devkitPro/devkitARM/bin/../lib/gcc/arm-none-eabi/4.8.2/../../../../arm-none-eabi/lib/thumb/libstdc++.a(string-inst.o)
 .group         0x0000000000000000       0x10 /home/linux/devkitPro/devkitARM/bin/../lib/gcc/arm-none-eabi/4.8.2/../../../../arm-none-eabi/lib/thumb/libstdc++.a(string-inst.o)
 .group         0x0000000000000000       0x10 /home/linux/devkitPro/devkitARM/bin/../lib/gcc/arm-none-eabi/4.8.2/../../../../arm-none-eabi/lib/thumb/libstdc++.a(string-inst.o)
 .group         0x0000000000000000       0x10 /home/linux/devkitPro/devkitARM/bin/../lib/gcc/arm-none-eabi/4.8.2/../../../../arm-none-eabi/lib/thumb/libstdc++.a(string-inst.o)
 .group         0x0000000000000000       0x10 /home/linux/devkitPro/devkitARM/bin/../lib/gcc/arm-none-eabi/4.8.2/../../../../arm-none-eabi/lib/thumb/libstdc++.a(string-inst.o)
 .group         0x0000000000000000       0x10 /home/linux/devkitPro/devkitARM/bin/../lib/gcc/arm-none-eabi/4.8.2/../../../../arm-none-eabi/lib/thumb/libstdc++.a(string-inst.o)
 .group         0x0000000000000000       0x10 /home/linux/devkitPro/devkitARM/bin/../lib/gcc/arm-none-eabi/4.8.2/../../../../arm-none-eabi/lib/thumb/libstdc++.a(string-inst.o)
 .group         0x0000000000000000       0x10 /home/linux/devkitPro/devkitARM/bin/../lib/gcc/arm-none-eabi/4.8.2/../../../../arm-none-eabi/lib/thumb/libstdc++.a(string-inst.o)
 .group         0x0000000000000000       0x10 /home/linux/devkitPro/devkitARM/bin/../lib/gcc/arm-none-eabi/4.8.2/../../../../arm-none-eabi/lib/thumb/libstdc++.a(string-inst.o)
 .group         0x0000000000000000       0x10 /home/linux/devkitPro/devkitARM/bin/../lib/gcc/arm-none-eabi/4.8.2/../../../../arm-none-eabi/lib/thumb/libstdc++.a(string-inst.o)
 .group         0x0000000000000000       0x10 /home/linux/devkitPro/devkitARM/bin/../lib/gcc/arm-none-eabi/4.8.2/../../../../arm-none-eabi/lib/thumb/libstdc++.a(string-inst.o)
 .group         0x0000000000000000       0x10 /home/linux/devkitPro/devkitARM/bin/../lib/gcc/arm-none-eabi/4.8.2/../../../../arm-none-eabi/lib/thumb/libstdc++.a(string-inst.o)
 .group         0x0000000000000000       0x10 /home/linux/devkitPro/devkitARM/bin/../lib/gcc/arm-none-eabi/4.8.2/../../../../arm-none-eabi/lib/thumb/libstdc++.a(string-inst.o)
 .group         0x0000000000000000       0x10 /home/linux/devkitPro/devkitARM/bin/../lib/gcc/arm-none-eabi/4.8.2/../../../../arm-none-eabi/lib/thumb/libstdc++.a(string-inst.o)
 .group         0x0000000000000000       0x10 /home/linux/devkitPro/devkitARM/bin/../lib/gcc/arm-none-eabi/4.8.2/../../../../arm-none-eabi/lib/thumb/libstdc++.a(string-inst.o)
 .group         0x0000000000000000       0x10 /home/linux/devkitPro/devkitARM/bin/../lib/gcc/arm-none-eabi/4.8.2/../../../../arm-none-eabi/lib/thumb/libstdc++.a(string-inst.o)
 .group         0x0000000000000000       0x10 /home/linux/devkitPro/devkitARM/bin/../lib/gcc/arm-none-eabi/4.8.2/../../../../arm-none-eabi/lib/thumb/libstdc++.a(string-inst.o)
 .group         0x0000000000000000       0x10 /home/linux/devkitPro/devkitARM/bin/../lib/gcc/arm-none-eabi/4.8.2/../../../../arm-none-eabi/lib/thumb/libstdc++.a(string-inst.o)
 .group         0x0000000000000000       0x10 /home/linux/devkitPro/devkitARM/bin/../lib/gcc/arm-none-eabi/4.8.2/../../../../arm-none-eabi/lib/thumb/libstdc++.a(string-inst.o)
 .group         0x0000000000000000       0x10 /home/linux/devkitPro/devkitARM/bin/../lib/gcc/arm-none-eabi/4.8.2/../../../../arm-none-eabi/lib/thumb/libstdc++.a(string-inst.o)
 .group         0x0000000000000000       0x10 /home/linux/devkitPro/devkitARM/bin/../lib/gcc/arm-none-eabi/4.8.2/../../../../arm-none-eabi/lib/thumb/libstdc++.a(string-inst.o)
 .group         0x0000000000000000       0x10 /home/linux/devkitPro/devkitARM/bin/../lib/gcc/arm-none-eabi/4.8.2/../../../../arm-none-eabi/lib/thumb/libstdc++.a(string-inst.o)
 .group         0x0000000000000000       0x10 /home/linux/devkitPro/devkitARM/bin/../lib/gcc/arm-none-eabi/4.8.2/../../../../arm-none-eabi/lib/thumb/libstdc++.a(string-inst.o)
 .group         0x0000000000000000       0x10 /home/linux/devkitPro/devkitARM/bin/../lib/gcc/arm-none-eabi/4.8.2/../../../../arm-none-eabi/lib/thumb/libstdc++.a(string-inst.o)
 .group         0x0000000000000000       0x10 /home/linux/devkitPro/devkitARM/bin/../lib/gcc/arm-none-eabi/4.8.2/../../../../arm-none-eabi/lib/thumb/libstdc++.a(string-inst.o)
 .group         0x0000000000000000       0x10 /home/linux/devkitPro/devkitARM/bin/../lib/gcc/arm-none-eabi/4.8.2/../../../../arm-none-eabi/lib/thumb/libstdc++.a(string-inst.o)
 .group         0x0000000000000000       0x10 /home/linux/devkitPro/devkitARM/bin/../lib/gcc/arm-none-eabi/4.8.2/../../../../arm-none-eabi/lib/thumb/libstdc++.a(string-inst.o)
 .group         0x0000000000000000       0x10 /home/linux/devkitPro/devkitARM/bin/../lib/gcc/arm-none-eabi/4.8.2/../../../../arm-none-eabi/lib/thumb/libstdc++.a(string-inst.o)
 .group         0x0000000000000000       0x10 /home/linux/devkitPro/devkitARM/bin/../lib/gcc/arm-none-eabi/4.8.2/../../../../arm-none-eabi/lib/thumb/libstdc++.a(string-inst.o)
 .group         0x0000000000000000       0x10 /home/linux/devkitPro/devkitARM/bin/../lib/gcc/arm-none-eabi/4.8.2/../../../../arm-none-eabi/lib/thumb/libstdc++.a(string-inst.o)
 .group         0x0000000000000000       0x10 /home/linux/devkitPro/devkitARM/bin/../lib/gcc/arm-none-eabi/4.8.2/../../../../arm-none-eabi/lib/thumb/libstdc++.a(string-inst.o)
 .group         0x0000000000000000       0x10 /home/linux/devkitPro/devkitARM/bin/../lib/gcc/arm-none-eabi/4.8.2/../../../../arm-none-eabi/lib/thumb/libstdc++.a(string-inst.o)
 .group         0x0000000000000000       0x10 /home/linux/devkitPro/devkitARM/bin/../lib/gcc/arm-none-eabi/4.8.2/../../../../arm-none-eabi/lib/thumb/libstdc++.a(string-inst.o)
 .group         0x0000000000000000       0x10 /home/linux/devkitPro/devkitARM/bin/../lib/gcc/arm-none-eabi/4.8.2/../../../../arm-none-eabi/lib/thumb/libstdc++.a(string-inst.o)
 .group         0x0000000000000000       0x10 /home/linux/devkitPro/devkitARM/bin/../lib/gcc/arm-none-eabi/4.8.2/../../../../arm-none-eabi/lib/thumb/libstdc++.a(string-inst.o)
 .group         0x0000000000000000       0x10 /home/linux/devkitPro/devkitARM/bin/../lib/gcc/arm-none-eabi/4.8.2/../../../../arm-none-eabi/lib/thumb/libstdc++.a(string-inst.o)
 .group         0x0000000000000000       0x10 /home/linux/devkitPro/devkitARM/bin/../lib/gcc/arm-none-eabi/4.8.2/../../../../arm-none-eabi/lib/thumb/libstdc++.a(string-inst.o)
 .group         0x0000000000000000        0x8 /home/linux/devkitPro/devkitARM/bin/../lib/gcc/arm-none-eabi/4.8.2/../../../../arm-none-eabi/lib/thumb/libstdc++.a(string-inst.o)
 .group         0x0000000000000000        0x8 /home/linux/devkitPro/devkitARM/bin/../lib/gcc/arm-none-eabi/4.8.2/../../../../arm-none-eabi/lib/thumb/libstdc++.a(string-inst.o)
 .group         0x0000000000000000        0x8 /home/linux/devkitPro/devkitARM/bin/../lib/gcc/arm-none-eabi/4.8.2/../../../../arm-none-eabi/lib/thumb/libstdc++.a(string-inst.o)
 .group         0x0000000000000000        0x8 /home/linux/devkitPro/devkitARM/bin/../lib/gcc/arm-none-eabi/4.8.2/../../../../arm-none-eabi/lib/thumb/libstdc++.a(string-inst.o)

Memory Configuration

Name             Origin             Length             Attributes
rom              0x0000000008000000 0x0000000002000000
ewram            0x0000000002000000 0x00000000003ff000
dtcm             0x000000000b000000 0x0000000000004000
vectors          0x0000000001000000 0x0000000000000100
itcm             0x0000000001000100 0x0000000000007f00
*default*        0x0000000000000000 0xffffffffffffffff

Linker script and memory map

                0x0000000001000000                __vectors_start = ORIGIN (vectors)
                0x0000000001000100                __itcm_start = ORIGIN (itcm)
                0x00000000023ff000                __ewram_end = (ORIGIN (ewram) + 0x3ff000)
                0x00000000023ff000                __eheap_end = (ORIGIN (ewram) + 0x3ff000)
                0x000000000b000000                __dtcm_start = ORIGIN (dtcm)
                0x000000000b004000                __dtcm_top = (ORIGIN (dtcm) + 0x4000)
                0x000000000b003ff8                __irq_flags = (__dtcm_top - 0x8)
                0x000000000b003ffc                __irq_vector = (__dtcm_top - 0x4)
                0x000000000b003f00                __sp_svc = (__dtcm_top - 0x100)
                0x000000000b003e00                __sp_irq = (__sp_svc - 0x100)
                0x000000000b003d00                __sp_usr = (__sp_irq - 0x100)

.init           0x0000000002000000      0x23c
                0x0000000002000000                __text_start = .
 *(.init)
 .init          0x0000000002000000      0x230 /home/linux/devkitPro/devkitARM/bin/../lib/gcc/arm-none-eabi/4.8.2/../../../../arm-none-eabi/lib/thumb/ds_arm9_crt0.o
                0x0000000002000000                _start
 .init          0x0000000002000230        0x4 /home/linux/devkitPro/devkitARM/bin/../lib/gcc/arm-none-eabi/4.8.2/thumb/crti.o
                0x0000000002000230                _init
 .init          0x0000000002000234        0x8 /home/linux/devkitPro/devkitARM/bin/../lib/gcc/arm-none-eabi/4.8.2/thumb/crtn.o
                0x000000000200023c                . = ALIGN (0x4)

.plt
 *(.plt)

.text           0x0000000002000240    0x2cdb0
 *(EXCLUDE_FILE(*.itcm*) .text)
 .text          0x0000000002000240        0x0 /home/linux/devkitPro/devkitARM/bin/../lib/gcc/arm-none-eabi/4.8.2/../../../../arm-none-eabi/lib/thumb/ds_arm9_crt0.o
 .text          0x0000000002000240        0x0 /home/linux/devkitPro/devkitARM/bin/../lib/gcc/arm-none-eabi/4.8.2/thumb/crti.o
 .text          0x0000000002000240       0xd0 /home/linux/devkitPro/devkitARM/bin/../lib/gcc/arm-none-eabi/4.8.2/thumb/crtbegin.o
 .text          0x0000000002000310        0x0 plain.o
 .text          0x0000000002000310        0x0 underground.o
 .text          0x0000000002000310        0x0 indoor.o
 .text          0x0000000002000310        0x0 main.o
 .text          0x0000000002000310       0xac Timer.o
                0x0000000002000310                OnTimer()
                0x0000000002000320                Timer::Timer()
                0x0000000002000320                Timer::Timer()
                0x0000000002000334                Timer::~Timer()
                0x0000000002000334                Timer::~Timer()
                0x0000000002000338                Timer::stop()
                0x0000000002000354                Timer::start()
                0x0000000002000370                Timer::reset()
                0x0000000002000384                Timer::initSystemTimer()
 .text          0x00000000020003bc       0xf8 Game.o
                0x00000000020003bc                Game::~Game()
                0x00000000020003bc                Game::~Game()
                0x00000000020003cc                Game::initNitroFS()
                0x0000000002000404                Game::Game()
                0x0000000002000404                Game::Game()
                0x0000000002000460                Game::initVideo()
                0x000000000200049c                Game::mainLoop()
 .text          0x00000000020004b4      0x3a4 Map.o
                0x00000000020004b4                Map::Map(Tileset*, std::string, unsigned short, unsigned short, unsigned short, unsigned short, unsigned short)
                0x00000000020004b4                Map::Map(Tileset*, std::string, unsigned short, unsigned short, unsigned short, unsigned short, unsigned short)
                0x0000000002000530                Map::~Map()
                0x0000000002000530                Map::~Map()
                0x0000000002000544                Map::screenPos(short, short) const
                0x0000000002000568                Map::loadTile(short, short, signed char, signed char)
                0x00000000020006cc                Map::load()
 .text          0x0000000002000858        0x8 Sprite.o
                0x0000000002000858                Sprite::Sprite()
                0x0000000002000858                Sprite::Sprite()
                0x000000000200085c                Sprite::~Sprite()
                0x000000000200085c                Sprite::~Sprite()
 .text          0x0000000002000860       0x18 Player.o
                0x0000000002000860                Player::Player()
                0x0000000002000860                Player::Player()
                0x000000000200086c                Player::~Player()
                0x000000000200086c                Player::~Player()
 .text          0x0000000002000878       0x1c Character.o
                0x0000000002000878                Character::Character()
                0x0000000002000878                Character::Character()
                0x0000000002000888                Character::~Character()
                0x0000000002000888                Character::~Character()
 .text          0x0000000002000894       0x34 CharacterManager.o
                0x0000000002000894                CharacterManager::init()
                0x00000000020008ac                CharacterManager::free()
 .text          0x00000000020008c8      0x7e0 MapManager.o
                0x00000000020008c8                MapManager::free()
                0x0000000002000928                MapManager::scrollMaps(signed char, signed char)
                0x0000000002000be4                MapManager::initTilesets()
                0x0000000002000c40                MapManager::initMaps()
                0x0000000002001030                MapManager::init()
 .text          0x00000000020010a8      0x350 libs5.o
                0x00000000020010a8                enableSprites
                0x000000000200113c                clearSprite
                0x0000000002001184                drawSprite
                0x0000000002001224                moveSprite
                0x0000000002001268                getSpriteX
                0x0000000002001288                getSpriteY
                0x00000000020012a4                setSpritePriority
                0x00000000020012d4                setSpriteFlip
                0x000000000200130c                setSpritePalette
                0x0000000002001334                enableSpriteAlpha
                0x0000000002001358                disableSpriteAlpha
                0x000000000200137c                enableSpriteMosaic
                0x00000000020013a0                disableSpriteMosaic
                0x00000000020013c4                setSpriteMosaic
 .text          0x00000000020013f8      0x1d0 libs5_asm.o
                0x00000000020013f8                loadTiles
                0x000000000200143c                loadPalette
                0x000000000200146c                loadPalette256
                0x00000000020014f8                loadExtPalette
 .text          0x00000000020015c8        0x0 link.o
 .text          0x00000000020015c8        0x0 grass_effect.o
 .text          0x00000000020015c8        0x0 water_effect.o
 .text          0x00000000020015c8      0x9f4 /home/linux/devkitPro/libnds/lib/libfilesystem.a(nitrofs.o)
                0x0000000002001eb0                nitroFSInit
 .text          0x0000000002001fbc      0x33c /home/linux/devkitPro/libnds/lib/libfat.a(libfat.o)
                0x0000000002001fbc                fatMount
                0x0000000002002078                fatMountSimple
                0x000000000200208c                fatUnmount
                0x00000000020020c0                fatInit
                0x000000000200220c                fatInitDefault
                0x0000000002002218                fatGetVolumeLabel
 .text          0x00000000020022f8      0x728 /home/linux/devkitPro/libnds/lib/libfat.a(partition.o)
                0x00000000020022f8                FindFirstValidPartition_buf
                0x0000000002002480                FindFirstValidPartition
                0x00000000020024a8                _FAT_partition_getPartitionFromPath
                0x00000000020024bc                _FAT_partition_createFSinfo
                0x0000000002002578                _FAT_partition_readFSinfo
                0x0000000002002630                _FAT_partition_constructor_buf
                0x00000000020028d8                _FAT_partition_constructor
                0x0000000002002918                _FAT_partition_writeFSinfo
                0x00000000020029c4                _FAT_partition_destructor
                0x0000000002002a04                _FAT_getCwdClusterPtr
 .text          0x0000000002002a20      0x4ac /home/linux/devkitPro/libnds/lib/libfat.a(cache.o)
                0x0000000002002b10                _FAT_cache_constructor
                0x0000000002002bac                _FAT_cache_readSectors
                0x0000000002002c10                _FAT_cache_readPartialSector
                0x0000000002002c4c                _FAT_cache_readLittleEndianValue
                0x0000000002002cb0                _FAT_cache_writePartialSector
                0x0000000002002cf8                _FAT_cache_writeLittleEndianValue
                0x0000000002002d48                _FAT_cache_eraseWritePartialSector
                0x0000000002002da0                _FAT_cache_writeSectors
                0x0000000002002e0c                _FAT_cache_flush
                0x0000000002002e68                _FAT_cache_destructor
                0x0000000002002e9c                _FAT_cache_invalidate
 .text          0x0000000002002ecc     0x1444 /home/linux/devkitPro/libnds/lib/libfat.a(directory.o)
                0x0000000002003170                _FAT_directory_entryGetCluster
                0x000000000200318c                _FAT_directory_getNextEntry
                0x0000000002003400                _FAT_directory_getFirstEntry
                0x0000000002003420                _FAT_directory_getRootEntry
                0x000000000200347c                _FAT_directory_getVolumeLabel
                0x000000000200353c                _FAT_directory_entryFromPosition
                0x000000000200366c                _FAT_directory_entryFromPath
                0x00000000020038a8                _FAT_directory_removeEntry
                0x0000000002003978                _FAT_directory_addEntry
                0x00000000020041e8                _FAT_directory_chdir
                0x0000000002004238                _FAT_directory_entryStat
 .text          0x0000000002004310        0x8 /home/linux/devkitPro/libnds/lib/libfat.a(disc.o)
 .text          0x0000000002004318      0x950 /home/linux/devkitPro/libnds/lib/libfat.a(fatdir.o)
                0x0000000002004318                _FAT_stat_r
                0x00000000020043b4                _FAT_link_r
                0x00000000020043c0                _FAT_unlink_r
                0x0000000002004534                _FAT_chdir_r
                0x00000000020045a4                _FAT_rename_r
                0x0000000002004770                _FAT_mkdir_r
                0x0000000002004a30                _FAT_statvfs_r
                0x0000000002004ab8                _FAT_diropen_r
                0x0000000002004b78                _FAT_dirreset_r
                0x0000000002004bc4                _FAT_dirnext_r
                0x0000000002004c48                _FAT_dirclose_r
 .text          0x0000000002004c68     0x13a8 /home/linux/devkitPro/libnds/lib/libfat.a(fatfile.o)
                0x0000000002004fb0                _FAT_findEntry
                0x0000000002004fec                FAT_getAttr
                0x0000000002005014                FAT_setAttr
                0x00000000020050b4                _FAT_open_r
                0x00000000020053f4                _FAT_syncToDisc
                0x0000000002005414                _FAT_close_r
                0x000000000200548c                _FAT_read_r
                0x00000000020057b8                _FAT_write_r
                0x0000000002005c54                _FAT_seek_r
                0x0000000002005dc8                _FAT_fstat_r
                0x0000000002005e60                _FAT_ftruncate_r
                0x0000000002005fc8                _FAT_fsync_r
 .text          0x0000000002006010      0x4c0 /home/linux/devkitPro/libnds/lib/libfat.a(file_allocation_table.o)
                0x0000000002006160                _FAT_fat_nextCluster
                0x000000000200627c                _FAT_fat_linkFreeCluster
                0x0000000002006314                _FAT_fat_linkFreeClusterCleared
                0x0000000002006384                _FAT_fat_clearLinks
                0x00000000020063e8                _FAT_fat_trimChain
                0x0000000002006470                _FAT_fat_lastCluster
                0x00000000020064a4                _FAT_fat_freeClusterCount
 .text          0x00000000020064d0       0xb8 /home/linux/devkitPro/libnds/lib/libfat.a(filetime.o)
                0x00000000020064d0                _FAT_filetime_getTimeFromRTC
                0x0000000002006510                _FAT_filetime_getDateFromRTC
                0x0000000002006550                _FAT_filetime_to_time_t
 .text          0x0000000002006588       0x10 /home/linux/devkitPro/libnds/lib/libfat.a(lock.o)
                0x0000000002006588                _FAT_lock_init
                0x000000000200658c                _FAT_lock_deinit
                0x0000000002006590                _FAT_lock
                0x0000000002006594                _FAT_unlock
 .text          0x0000000002006598      0x334 /home/linux/devkitPro/libnds/lib/libnds9.a(background.o)
                0x0000000002006598                bgIsText
                0x00000000020065a4                checkIfText
                0x00000000020065fc                bgUpdate
                0x0000000002006700                bgInit_call
                0x00000000020067e0                bgInitSub_call
 .text          0x00000000020068cc      0xa28 /home/linux/devkitPro/libnds/lib/libnds9.a(console.o)
                0x0000000002006978                nocash_write
                0x0000000002006988                consoleGetDefault
                0x0000000002006994                consoleSelect
                0x00000000020069a4                consoleDebugInit
                0x00000000020069f8                consolePrintChar
                0x0000000002006bc4                consoleLoadFont
                0x0000000002006e54                consoleSetFont
                0x0000000002006e74                consoleInit
                0x0000000002006fdc                consoleDemoInit
                0x0000000002007020                con_write
                0x00000000020072c0                consoleClear
                0x00000000020072d0                consoleSetWindow
 .text          0x00000000020072f4      0x358 /home/linux/devkitPro/libnds/lib/libnds9.a(gurumeditation.o)
                0x00000000020072f4                ARMShift
                0x000000000200736c                getExceptionAddress
                0x0000000002007520                guruMeditationDump
                0x000000000200763c                defaultExceptionHandler
 .text          0x000000000200764c      0x104 /home/linux/devkitPro/libnds/lib/libnds9.a(keys.o)
                0x000000000200764c                scanKeys
                0x00000000020076c0                keysHeld
                0x00000000020076cc                keysDown
                0x00000000020076dc                keysDownRepeat
                0x00000000020076ec                keysSetRepeat
                0x0000000002007704                keysUp
                0x0000000002007714                keysCurrent
 .text          0x0000000002007750       0x30 /home/linux/devkitPro/libnds/lib/libnds9.a(sassert.o)
                0x0000000002007750                __sassert
 .text          0x0000000002007780      0x240 /home/linux/devkitPro/libnds/lib/libnds9.a(trig.o)
                0x0000000002007780                asinComp
                0x00000000020077a8                sinLutLookup
                0x00000000020077e0                sinLerp
                0x0000000002007818                cosLerp
                0x000000000200782c                tanLutLookup
                0x0000000002007864                tanLerp
                0x0000000002007908                asinLerp
                0x0000000002007984                acosLerp
                0x0000000002007998                atanComp
 .text          0x00000000020079c0      0x234 /home/linux/devkitPro/libnds/lib/libnds9.a(dldi.o)
                0x00000000020079c0                dldiGetInternal
                0x00000000020079f8                dldiIsValid
                0x0000000002007a30                dldiFixDriverAddresses
                0x0000000002007b0c                dldiLoadFromFile
                0x0000000002007be8                dldiFree
 .text          0x0000000002007bf4      0x148 /home/linux/devkitPro/libnds/lib/libnds9.a(dsi_sd.o)
                0x0000000002007bf4                sdio_ClearStatus
                0x0000000002007c04                sdio_Shutdown
                0x0000000002007c14                sdio_Startup
                0x0000000002007c60                sdio_IsInserted
                0x0000000002007c94                sdio_ReadSectors
                0x0000000002007ce8                sdio_WriteSectors
 .text          0x0000000002007d3c      0x140 /home/linux/devkitPro/libnds/lib/libnds9.a(initSystem.o)
                0x0000000002007d3c                initSystem
 .text          0x0000000002007e7c      0x23c /home/linux/devkitPro/libnds/lib/libnds9.a(card.o)
                0x0000000002007e7c                cardWriteCommand
                0x0000000002007ea0                cardPolledTransfer
                0x0000000002007ef0                cardStartTransfer
                0x0000000002007f4c                cardWriteAndRead
                0x0000000002007f90                cardParamCommand
                0x0000000002007fc0                cardReadID
                0x0000000002007fe8                cardReset
                0x000000000200805c                cardReadHeader
 .text          0x00000000020080b8      0xce0 /home/linux/devkitPro/libnds/lib/libnds9.a(fifosystem.o)
                0x0000000002008330                fifoSendAddress
                0x000000000200835c                fifoSendValue32
                0x0000000002008398                fifoSendDatamsg
                0x0000000002008408                fifoGetAddress
                0x000000000200847c                fifoSetAddressHandler
                0x00000000020084f8                fifoGetValue32
                0x000000000200856c                fifoSetValue32Handler
                0x00000000020085e8                fifoGetDatamsg
                0x0000000002008a8c                fifoSetDatamsgHandler
                0x0000000002008b30                fifoCheckAddress
                0x0000000002008b58                fifoCheckDatamsg
                0x0000000002008b80                fifoCheckDatamsgLength
                0x0000000002008bb8                fifoCheckValue32
                0x0000000002008be0                fifoInit
 .text          0x0000000002008d98      0x1ec /home/linux/devkitPro/libnds/lib/libnds9.a(interrupts.o)
                0x0000000002008d98                irqDummy
                0x0000000002008d9c                irqSet
                0x0000000002008e08                irqInit
                0x0000000002008e54                irqInitHandler
                0x0000000002008e84                irqEnable
                0x0000000002008ee8                irqDisable
                0x0000000002008f4c                irqClear
 .text          0x0000000002008f84       0x58 /home/linux/devkitPro/libnds/lib/libnds9.a(libnds_exit.arm.o)
                0x0000000002008f84                systemErrorExit
                0x0000000002008f88                __libnds_exit
 .text          0x0000000002008fdc       0x70 /home/linux/devkitPro/libnds/lib/libnds9.a(dcache.o)
                0x0000000002008fdc                DC_FlushAll
                0x0000000002009008                DC_FlushRange
                0x0000000002009024                DC_InvalidateAll
                0x0000000002009030                DC_InvalidateRange
 .text          0x000000000200904c       0xdc /home/linux/devkitPro/libnds/lib/libnds9.a(exceptionHandler.o)
                0x000000000200904c                getCPSR
                0x0000000002009054                enterException
                0x00000000020090c8                exceptionC
                0x00000000020090cc                exceptionStack
                0x00000000020090d0                exceptionRegisters
 *fill*         0x0000000002009128       0x18 ff
 .text          0x0000000002009140     0x8000 /home/linux/devkitPro/libnds/lib/libnds9.a(dldi_stub.o)
                0x0000000002009140                _io_dldi_stub
 .text          0x0000000002011140      0x1b4 /home/linux/devkitPro/libnds/lib/libnds9.a(mpu_setup.o)
                0x0000000002011140                __libnds_mpu_setup
                0x0000000002011280                memCached
                0x0000000002011298                memUncached
 *fill*         0x00000000020112f4        0xc ff
 .text          0x0000000002011300       0x70 /home/linux/devkitPro/libnds/lib/libnds9.a(biosCalls.o)
                0x0000000002011300                swiDelay
                0x0000000002011304                swiIntrWait
                0x0000000002011308                swiWaitForVBlank
                0x000000000201130c                swiSleep
                0x0000000002011310                swiChangeSoundBias
                0x0000000002011314                swiDivide
                0x0000000002011318                swiRemainder
                0x000000000201131e                swiDivMod
                0x000000000201132a                swiCopy
                0x000000000201132e                swiFastCopy
                0x0000000002011332                swiSqrt
                0x0000000002011336                swiCRC16
                0x000000000201133a                swiIsDebugger
                0x000000000201133e                swiUnpackBits
                0x0000000002011342                swiDecompressLZSSWram
                0x0000000002011346                swiDecompressLZSSVramNTR
                0x000000000201134a                swiDecompressLZSSVramTWL
                0x000000000201134e                swiDecompressHuffman
                0x0000000002011352                swiDecompressRLEWram
                0x0000000002011356                swiDecompressRLEVram
                0x000000000201135a                swiWaitForIRQ
                0x000000000201135e                swiDecodeDelta8
                0x0000000002011362                swiDecodeDelta16
                0x0000000002011366                swiSetHaltCR
 .text          0x0000000002011370       0xa4 /home/linux/devkitPro/libnds/lib/libnds9.a(debugprint.o)
                0x0000000002011370                nocashWrite
                0x0000000002011372                nocashMessage
 .text          0x0000000002011414        0x0 /home/linux/devkitPro/libnds/lib/libnds9.a(interruptDispatcher.o)
 *fill*         0x0000000002011414        0xc ff
 .text          0x0000000002011420       0x30 /home/linux/devkitPro/libnds/lib/libnds9.a(swiSoftReset.o)
                0x0000000002011420                swiSoftReset
 .text          0x0000000002011450        0x0 /home/linux/devkitPro/libnds/lib/libnds9.a(default_font.bin.o)
 .text          0x0000000002011450       0x28 /home/linux/devkitPro/libnds/lib/libnds9.a(exceptions.o)
                0x0000000002011450                setExceptionHandler
 .text          0x0000000002011478      0x128 /home/linux/devkitPro/libnds/lib/libnds9.a(system.o)
                0x0000000002011478                setSDcallback
                0x0000000002011484                systemMsgHandler
                0x00000000020114c8                systemSleep
                0x00000000020114e0                systemValueHandler
                0x000000000201151c                powerOn
                0x0000000002011548                powerOff
                0x0000000002011570                ledBlink
                0x0000000002011580                getBatteryLevel
 .text          0x00000000020115a0      0x1f8 /home/linux/devkitPro/libnds/lib/libnds9.a(video.o)
                0x00000000020115a0                vramSetPrimaryBanks
                0x00000000020115e4                vramSetMainBanks
                0x0000000002011628                vramSetBanks_EFG
                0x0000000002011660                vramRestorePrimaryBanks
                0x000000000201166c                vramRestoreMainBanks
                0x0000000002011678                vramRestoreBanks_EFG
                0x0000000002011684                setBrightness
                0x00000000020116c4                vramDefault
 .text          0x0000000002011798        0x0 /home/linux/devkitPro/devkitARM/bin/../lib/gcc/arm-none-eabi/4.8.2/../../../../arm-none-eabi/lib/thumb/libstdc++.a(new_op.o)
 .text          0x0000000002011798        0x0 /home/linux/devkitPro/devkitARM/bin/../lib/gcc/arm-none-eabi/4.8.2/../../../../arm-none-eabi/lib/thumb/libstdc++.a(eh_call.o)
 .text          0x0000000002011798        0x0 /home/linux/devkitPro/devkitARM/bin/../lib/gcc/arm-none-eabi/4.8.2/../../../../arm-none-eabi/lib/thumb/libstdc++.a(new_opv.o)
 .text          0x0000000002011798        0x0 /home/linux/devkitPro/devkitARM/bin/../lib/gcc/arm-none-eabi/4.8.2/../../../../arm-none-eabi/lib/thumb/libstdc++.a(eh_personality.o)
 .text          0x0000000002011798        0x0 /home/linux/devkitPro/devkitARM/bin/../lib/gcc/arm-none-eabi/4.8.2/../../../../arm-none-eabi/lib/thumb/libstdc++.a(del_op.o)
 .text          0x0000000002011798        0x0 /home/linux/devkitPro/devkitARM/bin/../lib/gcc/arm-none-eabi/4.8.2/../../../../arm-none-eabi/lib/thumb/libstdc++.a(atexit_arm.o)
 .text          0x0000000002011798        0x0 /home/linux/devkitPro/devkitARM/bin/../lib/gcc/arm-none-eabi/4.8.2/../../../../arm-none-eabi/lib/thumb/libstdc++.a(eh_terminate.o)
 .text          0x0000000002011798        0x0 /home/linux/devkitPro/devkitARM/bin/../lib/gcc/arm-none-eabi/4.8.2/../../../../arm-none-eabi/lib/thumb/libstdc++.a(eh_exception.o)
 .text          0x0000000002011798        0x0 /home/linux/devkitPro/devkitARM/bin/../lib/gcc/arm-none-eabi/4.8.2/../../../../arm-none-eabi/lib/thumb/libstdc++.a(eh_alloc.o)
 .text          0x0000000002011798        0x0 /home/linux/devkitPro/devkitARM/bin/../lib/gcc/arm-none-eabi/4.8.2/../../../../arm-none-eabi/lib/thumb/libstdc++.a(bad_alloc.o)
 .text          0x0000000002011798        0x0 /home/linux/devkitPro/devkitARM/bin/../lib/gcc/arm-none-eabi/4.8.2/../../../../arm-none-eabi/lib/thumb/libstdc++.a(del_opv.o)
 .text          0x0000000002011798        0x0 /home/linux/devkitPro/devkitARM/bin/../lib/gcc/arm-none-eabi/4.8.2/../../../../arm-none-eabi/lib/thumb/libstdc++.a(class_type_info.o)
 .text          0x0000000002011798        0x0 /home/linux/devkitPro/devkitARM/bin/../lib/gcc/arm-none-eabi/4.8.2/../../../../arm-none-eabi/lib/thumb/libstdc++.a(new_handler.o)
 .text          0x0000000002011798        0x0 /home/linux/devkitPro/devkitARM/bin/../lib/gcc/arm-none-eabi/4.8.2/../../../../arm-none-eabi/lib/thumb/libstdc++.a(string-inst.o)
 .text          0x0000000002011798        0x0 /home/linux/devkitPro/devkitARM/bin/../lib/gcc/arm-none-eabi/4.8.2/../../../../arm-none-eabi/lib/thumb/libstdc++.a(functexcept.o)
 .text          0x0000000002011798        0x0 /home/linux/devkitPro/devkitARM/bin/../lib/gcc/arm-none-eabi/4.8.2/../../../../arm-none-eabi/lib/thumb/libstdc++.a(eh_arm.o)
 .text          0x0000000002011798        0x0 /home/linux/devkitPro/devkitARM/bin/../lib/gcc/arm-none-eabi/4.8.2/../../../../arm-none-eabi/lib/thumb/libstdc++.a(eh_throw.o)
 .text          0x0000000002011798        0x0 /home/linux/devkitPro/devkitARM/bin/../lib/gcc/arm-none-eabi/4.8.2/../../../../arm-none-eabi/lib/thumb/libstdc++.a(pure.o)
 .text          0x0000000002011798        0x0 /home/linux/devkitPro/devkitARM/bin/../lib/gcc/arm-none-eabi/4.8.2/../../../../arm-none-eabi/lib/thumb/libstdc++.a(bad_cast.o)
 .text          0x0000000002011798        0x0 /home/linux/devkitPro/devkitARM/bin/../lib/gcc/arm-none-eabi/4.8.2/../../../../arm-none-eabi/lib/thumb/libstdc++.a(eh_globals.o)
 .text          0x0000000002011798        0x0 /home/linux/devkitPro/devkitARM/bin/../lib/gcc/arm-none-eabi/4.8.2/../../../../arm-none-eabi/lib/thumb/libstdc++.a(eh_catch.o)
 .text          0x0000000002011798        0x0 /home/linux/devkitPro/devkitARM/bin/../lib/gcc/arm-none-eabi/4.8.2/../../../../arm-none-eabi/lib/thumb/libstdc++.a(si_class_type_info.o)
 .text          0x0000000002011798        0x0 /home/linux/devkitPro/devkitARM/bin/../lib/gcc/arm-none-eabi/4.8.2/../../../../arm-none-eabi/lib/thumb/libstdc++.a(eh_unex_handler.o)
 .text          0x0000000002011798        0x0 /home/linux/devkitPro/devkitARM/bin/../lib/gcc/arm-none-eabi/4.8.2/../../../../arm-none-eabi/lib/thumb/libstdc++.a(tinfo.o)
 .text          0x0000000002011798        0x0 /home/linux/devkitPro/devkitARM/bin/../lib/gcc/arm-none-eabi/4.8.2/../../../../arm-none-eabi/lib/thumb/libstdc++.a(bad_typeid.o)
 .text          0x0000000002011798        0x0 /home/linux/devkitPro/devkitARM/bin/../lib/gcc/arm-none-eabi/4.8.2/../../../../arm-none-eabi/lib/thumb/libstdc++.a(eh_term_handler.o)
 .text          0x0000000002011798        0x0 /home/linux/devkitPro/devkitARM/bin/../lib/gcc/arm-none-eabi/4.8.2/../../../../arm-none-eabi/lib/thumb/libstdc++.a(ios_failure.o)
 .text          0x0000000002011798        0x0 /home/linux/devkitPro/devkitARM/bin/../lib/gcc/arm-none-eabi/4.8.2/../../../../arm-none-eabi/lib/thumb/libstdc++.a(stdexcept.o)
 .text          0x0000000002011798        0x0 /home/linux/devkitPro/devkitARM/bin/../lib/gcc/arm-none-eabi/4.8.2/../../../../arm-none-eabi/lib/thumb/libstdc++.a(functional.o)
 .text          0x0000000002011798        0x0 /home/linux/devkitPro/devkitARM/bin/../lib/gcc/arm-none-eabi/4.8.2/../../../../arm-none-eabi/lib/thumb/libstdc++.a(future.o)
 .text          0x0000000002011798        0x0 /home/linux/devkitPro/devkitARM/bin/../lib/gcc/arm-none-eabi/4.8.2/../../../../arm-none-eabi/lib/thumb/libstdc++.a(regex.o)
 .text          0x0000000002011798        0x0 /home/linux/devkitPro/devkitARM/bin/../lib/gcc/arm-none-eabi/4.8.2/../../../../arm-none-eabi/lib/thumb/libstdc++.a(system_error.o)
 .text          0x0000000002011798        0x0 /home/linux/devkitPro/devkitARM/bin/../lib/gcc/arm-none-eabi/4.8.2/../../../../arm-none-eabi/lib/thumb/libstdc++.a(guard.o)
 .text          0x0000000002011798        0x0 /home/linux/devkitPro/devkitARM/bin/../lib/gcc/arm-none-eabi/4.8.2/../../../../arm-none-eabi/lib/thumb/libstdc++.a(vterminate.o)
 .text          0x0000000002011798        0x0 /home/linux/devkitPro/devkitARM/bin/../lib/gcc/arm-none-eabi/4.8.2/../../../../arm-none-eabi/lib/thumb/libstdc++.a(guard_error.o)
 .text          0x0000000002011798        0x0 /home/linux/devkitPro/devkitARM/bin/../lib/gcc/arm-none-eabi/4.8.2/../../../../arm-none-eabi/lib/thumb/libstdc++.a(eh_type.o)
 .text          0x0000000002011798     0x60e0 /home/linux/devkitPro/devkitARM/bin/../lib/gcc/arm-none-eabi/4.8.2/../../../../arm-none-eabi/lib/thumb/libstdc++.a(cp-demangle.o)
                0x0000000002017784                __cxa_demangle
                0x000000000201784c                __gcclibcxx_demangle_callback
 .text          0x0000000002017878       0xc0 /home/linux/devkitPro/devkitARM/bin/../lib/gcc/arm-none-eabi/4.8.2/../../../../arm-none-eabi/lib/thumb/libm.a(lib_a-w_sqrt.o)
                0x0000000002017878                sqrt
 .text          0x0000000002017938      0x1c0 /home/linux/devkitPro/devkitARM/bin/../lib/gcc/arm-none-eabi/4.8.2/../../../../arm-none-eabi/lib/thumb/libm.a(lib_a-e_sqrt.o)
                0x0000000002017938                __ieee754_sqrt
 .text          0x0000000002017af8       0x5c /home/linux/devkitPro/devkitARM/bin/../lib/gcc/arm-none-eabi/4.8.2/../../../../arm-none-eabi/lib/thumb/libm.a(lib_a-s_fpclassify.o)
                0x0000000002017af8                __fpclassifyd
 .text          0x0000000002017b54        0x0 /home/linux/devkitPro/devkitARM/bin/../lib/gcc/arm-none-eabi/4.8.2/../../../../arm-none-eabi/lib/thumb/libm.a(lib_a-s_lib_ver.o)
 .text          0x0000000002017b54        0x4 /home/linux/devkitPro/devkitARM/bin/../lib/gcc/arm-none-eabi/4.8.2/../../../../arm-none-eabi/lib/thumb/libm.a(lib_a-s_matherr.o)
                0x0000000002017b54                matherr
 .text          0x0000000002017b58      0x11c /home/linux/devkitPro/devkitARM/bin/../lib/gcc/arm-none-eabi/4.8.2/thumb/libgcc.a(_udivsi3.o)
                0x0000000002017b58                __udivsi3
                0x0000000002017b58                __aeabi_uidiv
                0x0000000002017c54                __aeabi_uidivmod
 .text          0x0000000002017c74      0x150 /home/linux/devkitPro/devkitARM/bin/../lib/gcc/arm-none-eabi/4.8.2/thumb/libgcc.a(_divsi3.o)
                0x0000000002017c74                __aeabi_idiv
                0x0000000002017c74                __divsi3
                0x0000000002017da4                __aeabi_idivmod
 .text          0x0000000002017dc4        0x4 /home/linux/devkitPro/devkitARM/bin/../lib/gcc/arm-none-eabi/4.8.2/thumb/libgcc.a(_dvmd_tls.o)
                0x0000000002017dc4                __aeabi_ldiv0
                0x0000000002017dc4                __aeabi_idiv0
 .text          0x0000000002017dc8      0x41c /home/linux/devkitPro/devkitARM/bin/../lib/gcc/arm-none-eabi/4.8.2/thumb/libgcc.a(_arm_addsubdf3.o)
                0x0000000002017dc8                __aeabi_drsub
                0x0000000002017dd0                __aeabi_dsub
                0x0000000002017dd0                __subdf3
                0x0000000002017dd4                __adddf3
                0x0000000002017dd4                __aeabi_dadd
                0x00000000020180e4                __aeabi_ui2d
                0x00000000020180e4                __floatunsidf
                0x0000000002018108                __floatsidf
                0x0000000002018108                __aeabi_i2d
                0x0000000002018130                __extendsfdf2
                0x0000000002018130                __aeabi_f2d
                0x0000000002018170                __aeabi_ul2d
                0x0000000002018170                __floatundidf
                0x0000000002018184                __floatdidf
                0x0000000002018184                __aeabi_l2d
 .text          0x00000000020181e4      0x49c /home/linux/devkitPro/devkitARM/bin/../lib/gcc/arm-none-eabi/4.8.2/thumb/libgcc.a(_arm_muldivdf3.o)
                0x00000000020181e4                __aeabi_dmul
                0x00000000020181e4                __muldf3
                0x0000000002018474                __aeabi_ddiv
                0x0000000002018474                __divdf3
 .text          0x0000000002018680      0x144 /home/linux/devkitPro/devkitARM/bin/../lib/gcc/arm-none-eabi/4.8.2/thumb/libgcc.a(_arm_cmpdf2.o)
                0x0000000002018680                __gtdf2
                0x0000000002018680                __gedf2
                0x0000000002018688                __ltdf2
                0x0000000002018688                __ledf2
                0x0000000002018690                __cmpdf2
                0x0000000002018690                __eqdf2
                0x0000000002018690                __nedf2
                0x0000000002018718                __aeabi_cdrcmple
                0x0000000002018734                __aeabi_cdcmple
                0x0000000002018734                __aeabi_cdcmpeq
                0x000000000201874c                __aeabi_dcmpeq
                0x0000000002018764                __aeabi_dcmplt
                0x000000000201877c                __aeabi_dcmple
                0x0000000002018794                __aeabi_dcmpge
                0x00000000020187ac                __aeabi_dcmpgt
 .text          0x00000000020187c4       0x54 /home/linux/devkitPro/devkitARM/bin/../lib/gcc/arm-none-eabi/4.8.2/thumb/libgcc.a(_arm_fixunsdfsi.o)
                0x00000000020187c4                __fixunsdfsi
                0x00000000020187c4                __aeabi_d2uiz
 .text          0x0000000002018818       0x4c /home/linux/devkitPro/devkitARM/bin/../lib/gcc/arm-none-eabi/4.8.2/thumb/libgcc.a(_muldi3.o)
                0x0000000002018818                __aeabi_lmul
                0x0000000002018818                __muldi3
 .text          0x0000000002018864      0xac4 /home/linux/devkitPro/devkitARM/bin/../lib/gcc/arm-none-eabi/4.8.2/thumb/libgcc.a(unwind-arm.o)
                0x0000000002018b60                _Unwind_GetCFA
                0x0000000002018b64                __gnu_Unwind_RaiseException
                0x0000000002018bbc                __gnu_Unwind_ForcedUnwind
                0x0000000002018bd4                __gnu_Unwind_Resume
                0x0000000002018c1c                __gnu_Unwind_Resume_or_Rethrow
                0x0000000002018c3c                _Unwind_Complete
                0x0000000002018c40                _Unwind_DeleteException
                0x0000000002018c58                _Unwind_VRS_Get
                0x0000000002018cac                _Unwind_VRS_Set
                0x0000000002018d00                __gnu_Unwind_Backtrace
                0x000000000201906c                __aeabi_unwind_cpp_pr0
                0x000000000201907c                __aeabi_unwind_cpp_pr1
                0x000000000201908c                __aeabi_unwind_cpp_pr2
                0x000000000201909c                _Unwind_VRS_Pop
 .text          0x0000000002019328      0x1d8 /home/linux/devkitPro/devkitARM/bin/../lib/gcc/arm-none-eabi/4.8.2/thumb/libgcc.a(libunwind.o)
                0x0000000002019328                __restore_core_regs
                0x0000000002019328                restore_core_regs
                0x0000000002019344                __gnu_Unwind_Restore_VFP
                0x000000000201934c                __gnu_Unwind_Save_VFP
                0x0000000002019354                __gnu_Unwind_Restore_VFP_D
                0x000000000201935c                __gnu_Unwind_Save_VFP_D
                0x0000000002019364                __gnu_Unwind_Restore_VFP_D_16_to_31
                0x000000000201936c                __gnu_Unwind_Save_VFP_D_16_to_31
                0x0000000002019374                __gnu_Unwind_Restore_WMMXD
                0x00000000020193b8                __gnu_Unwind_Save_WMMXD
                0x00000000020193fc                __gnu_Unwind_Restore_WMMXC
                0x0000000002019410                __gnu_Unwind_Save_WMMXC
                0x0000000002019424                ___Unwind_RaiseException
                0x0000000002019424                _Unwind_RaiseException
                0x0000000002019450                ___Unwind_Resume
                0x0000000002019450                _Unwind_Resume
                0x000000000201947c                _Unwind_Resume_or_Rethrow
                0x000000000201947c                ___Unwind_Resume_or_Rethrow
                0x00000000020194a8                ___Unwind_ForcedUnwind
                0x00000000020194a8                _Unwind_ForcedUnwind
                0x00000000020194d4                _Unwind_Backtrace
                0x00000000020194d4                ___Unwind_Backtrace
 .text          0x0000000002019500      0x3c4 /home/linux/devkitPro/devkitARM/bin/../lib/gcc/arm-none-eabi/4.8.2/thumb/libgcc.a(pr-support.o)
                0x0000000002019560                __gnu_unwind_execute
                0x0000000002019860                __gnu_unwind_frame
                0x000000000201988c                _Unwind_GetRegionStart
                0x000000000201989c                _Unwind_GetLanguageSpecificData
                0x00000000020198b4                _Unwind_GetDataRelBase
                0x00000000020198bc                _Unwind_GetTextRelBase
 .text          0x00000000020198c4       0x10 /home/linux/devkitPro/devkitARM/bin/../lib/gcc/arm-none-eabi/4.8.2/../../../../arm-none-eabi/lib/thumb/libg.a(lib_a-abort.o)
                0x00000000020198c4                abort
 .text          0x00000000020198d4       0x64 /home/linux/devkitPro/devkitARM/bin/../lib/gcc/arm-none-eabi/4.8.2/../../../../arm-none-eabi/lib/thumb/libg.a(lib_a-bsearch.o)
                0x00000000020198d4                bsearch
 .text          0x0000000002019938       0x10 /home/linux/devkitPro/devkitARM/bin/../lib/gcc/arm-none-eabi/4.8.2/../../../../arm-none-eabi/lib/thumb/libg.a(lib_a-ctype_.o)
                0x0000000002019938                __set_ctype
 .text          0x0000000002019948       0x18 /home/linux/devkitPro/devkitARM/bin/../lib/gcc/arm-none-eabi/4.8.2/../../../../arm-none-eabi/lib/thumb/libg.a(lib_a-cxa_atexit.o)
                0x0000000002019948                __cxa_atexit
 .text          0x0000000002019960        0xc /home/linux/devkitPro/devkitARM/bin/../lib/gcc/arm-none-eabi/4.8.2/../../../../arm-none-eabi/lib/thumb/libg.a(lib_a-errno.o)
                0x0000000002019960                __errno
 .text          0x000000000201996c       0xb0 /home/linux/devkitPro/devkitARM/bin/../lib/gcc/arm-none-eabi/4.8.2/../../../../arm-none-eabi/lib/thumb/libg.a(lib_a-fclose.o)
                0x000000000201996c                _fclose_r
                0x0000000002019a00                fclose
 .text          0x0000000002019a1c      0x1bc /home/linux/devkitPro/devkitARM/bin/../lib/gcc/arm-none-eabi/4.8.2/../../../../arm-none-eabi/lib/thumb/libg.a(lib_a-fflush.o)
                0x0000000002019a1c                __sflush_r
                0x0000000002019b78                _fflush_r
                0x0000000002019ba8                fflush
 .text          0x0000000002019bd8      0x248 /home/linux/devkitPro/devkitARM/bin/../lib/gcc/arm-none-eabi/4.8.2/../../../../arm-none-eabi/lib/thumb/libg.a(lib_a-findfp.o)
                0x0000000002019be0                _cleanup_r
                0x0000000002019bf4                __sfmoreglue
                0x0000000002019c28                _cleanup
                0x0000000002019c44                __sinit
                0x0000000002019d44                __sfp
                0x0000000002019dd8                __sfp_lock_acquire
                0x0000000002019ddc                __sfp_lock_release
                0x0000000002019de0                __sinit_lock_acquire
                0x0000000002019de4                __sinit_lock_release
                0x0000000002019de8                __fp_lock_all
                0x0000000002019e04                __fp_unlock_all
 .text          0x0000000002019e20       0xa8 /home/linux/devkitPro/devkitARM/bin/../lib/gcc/arm-none-eabi/4.8.2/../../../../arm-none-eabi/lib/thumb/libg.a(lib_a-fopen.o)
                0x0000000002019e20                _fopen_r
                0x0000000002019eac                fopen
 .text          0x0000000002019ec8       0x58 /home/linux/devkitPro/devkitARM/bin/../lib/gcc/arm-none-eabi/4.8.2/../../../../arm-none-eabi/lib/thumb/libg.a(lib_a-fputc.o)
                0x0000000002019ec8                _fputc_r
                0x0000000002019ef0                fputc
 .text          0x0000000002019f20       0x78 /home/linux/devkitPro/devkitARM/bin/../lib/gcc/arm-none-eabi/4.8.2/../../../../arm-none-eabi/lib/thumb/libg.a(lib_a-fputs.o)
                0x0000000002019f20                _fputs_r
                0x0000000002019f7c                fputs
 .text          0x0000000002019f98      0x19c /home/linux/devkitPro/devkitARM/bin/../lib/gcc/arm-none-eabi/4.8.2/../../../../arm-none-eabi/lib/thumb/libg.a(lib_a-fread.o)
                0x0000000002019f98                _fread_r
                0x000000000201a10c                fread
 .text          0x000000000201a134      0x238 /home/linux/devkitPro/devkitARM/bin/../lib/gcc/arm-none-eabi/4.8.2/../../../../arm-none-eabi/lib/thumb/libg.a(lib_a-freer.o)
                0x000000000201a134                _malloc_trim_r
                0x000000000201a1d8                _free_r
 .text          0x000000000201a36c       0x2c /home/linux/devkitPro/devkitARM/bin/../lib/gcc/arm-none-eabi/4.8.2/../../../../arm-none-eabi/lib/thumb/libg.a(lib_a-fseek.o)
                0x000000000201a36c                _fseek_r
                0x000000000201a378                fseek
 .text          0x000000000201a398      0x34c /home/linux/devkitPro/devkitARM/bin/../lib/gcc/arm-none-eabi/4.8.2/../../../../arm-none-eabi/lib/thumb/libg.a(lib_a-fseeko.o)
                0x000000000201a398                _fseeko_r
                0x000000000201a6c0                fseeko
 .text          0x000000000201a6e4      0x330 /home/linux/devkitPro/devkitARM/bin/../lib/gcc/arm-none-eabi/4.8.2/../../../../arm-none-eabi/lib/thumb/libg.a(lib_a-fvwrite.o)
                0x000000000201a6e4                __sfvwrite_r
 .text          0x000000000201aa14       0xa4 /home/linux/devkitPro/devkitARM/bin/../lib/gcc/arm-none-eabi/4.8.2/../../../../arm-none-eabi/lib/thumb/libg.a(lib_a-fwalk.o)
                0x000000000201aa14                _fwalk
                0x000000000201aa60                _fwalk_reent
 .text          0x000000000201aab8       0x9c /home/linux/devkitPro/devkitARM/bin/../lib/gcc/arm-none-eabi/4.8.2/../../../../arm-none-eabi/lib/thumb/libg.a(lib_a-fwrite.o)
                0x000000000201aab8                _fwrite_r
                0x000000000201ab2c                fwrite
 .text          0x000000000201ab54        0x0 /home/linux/devkitPro/devkitARM/bin/../lib/gcc/arm-none-eabi/4.8.2/../../../../arm-none-eabi/lib/thumb/libg.a(lib_a-impure.o)
 .text          0x000000000201ab54       0x58 /home/linux/devkitPro/devkitARM/bin/../lib/gcc/arm-none-eabi/4.8.2/../../../../arm-none-eabi/lib/thumb/libg.a(lib_a-init.o)
                0x000000000201ab54                __libc_init_array
 .text          0x000000000201abac       0x40 /home/linux/devkitPro/devkitARM/bin/../lib/gcc/arm-none-eabi/4.8.2/../../../../arm-none-eabi/lib/thumb/libg.a(lib_a-iprintf.o)
                0x000000000201abac                iprintf
                0x000000000201abd0                _iprintf_r
 .text          0x000000000201abec       0x10 /home/linux/devkitPro/devkitARM/bin/../lib/gcc/arm-none-eabi/4.8.2/../../../../arm-none-eabi/lib/thumb/libg.a(lib_a-lcltime_r.o)
                0x000000000201abec                localtime_r
 .text          0x000000000201abfc      0x934 /home/linux/devkitPro/devkitARM/bin/../lib/gcc/arm-none-eabi/4.8.2/../../../../arm-none-eabi/lib/thumb/libg.a(lib_a-locale.o)
                0x000000000201b2bc                _setlocale_r
                0x000000000201b4d0                __locale_charset
                0x000000000201b4d8                __locale_mb_cur_max
                0x000000000201b4e4                __locale_msgcharset
                0x000000000201b4f0                __locale_cjk_lang
                0x000000000201b4fc                _localeconv_r
                0x000000000201b508                setlocale
                0x000000000201b524                localeconv
 .text          0x000000000201b530       0xe4 /home/linux/devkitPro/devkitARM/bin/../lib/gcc/arm-none-eabi/4.8.2/../../../../arm-none-eabi/lib/thumb/libg.a(lib_a-makebuf.o)
                0x000000000201b530                __smakebuf_r
 .text          0x000000000201b614       0x30 /home/linux/devkitPro/devkitARM/bin/../lib/gcc/arm-none-eabi/4.8.2/../../../../arm-none-eabi/lib/thumb/libg.a(lib_a-malloc.o)
                0x000000000201b614                malloc
                0x000000000201b62c                free
 .text          0x000000000201b644      0x510 /home/linux/devkitPro/devkitARM/bin/../lib/gcc/arm-none-eabi/4.8.2/../../../../arm-none-eabi/lib/thumb/libg.a(lib_a-mallocr.o)
                0x000000000201b644                _malloc_r
 .text          0x000000000201bb54       0xf8 /home/linux/devkitPro/devkitARM/bin/../lib/gcc/arm-none-eabi/4.8.2/../../../../arm-none-eabi/lib/thumb/libg.a(lib_a-mbrtowc.o)
                0x000000000201bb54                _mbrtowc_r
                0x000000000201bbcc                mbrtowc
 .text          0x000000000201bc4c       0x40 /home/linux/devkitPro/devkitARM/bin/../lib/gcc/arm-none-eabi/4.8.2/../../../../arm-none-eabi/lib/thumb/libg.a(lib_a-mbsrtowcs.o)
                0x000000000201bc4c                _mbsrtowcs_r
                0x000000000201bc64                mbsrtowcs
 .text          0x000000000201bc8c      0x5bc /home/linux/devkitPro/devkitARM/bin/../lib/gcc/arm-none-eabi/4.8.2/../../../../arm-none-eabi/lib/thumb/libg.a(lib_a-mbtowc_r.o)
                0x000000000201bc8c                __utf8_mbtowc
                0x000000000201bef4                _mbtowc_r
                0x000000000201bf30                __ascii_mbtowc
                0x000000000201bf60                __sjis_mbtowc
                0x000000000201c018                __eucjp_mbtowc
                0x000000000201c100                __jis_mbtowc
 .text          0x000000000201c248       0x8c /home/linux/devkitPro/devkitARM/bin/../lib/gcc/arm-none-eabi/4.8.2/../../../../arm-none-eabi/lib/thumb/libg.a(lib_a-memchr-stub.o)
                0x000000000201c248                memchr
 .text          0x000000000201c2d4       0x50 /home/linux/devkitPro/devkitARM/bin/../lib/gcc/arm-none-eabi/4.8.2/../../../../arm-none-eabi/lib/thumb/libg.a(lib_a-memcmp.o)
                0x000000000201c2d4                memcmp
 .text          0x000000000201c324       0x88 /home/linux/devkitPro/devkitARM/bin/../lib/gcc/arm-none-eabi/4.8.2/../../../../arm-none-eabi/lib/thumb/libg.a(lib_a-memcpy-stub.o)
                0x000000000201c324                memcpy
 .text          0x000000000201c3ac       0xa8 /home/linux/devkitPro/devkitARM/bin/../lib/gcc/arm-none-eabi/4.8.2/../../../../arm-none-eabi/lib/thumb/libg.a(lib_a-memmove.o)
                0x000000000201c3ac                memmove
 .text          0x000000000201c454       0xa4 /home/linux/devkitPro/devkitARM/bin/../lib/gcc/arm-none-eabi/4.8.2/../../../../arm-none-eabi/lib/thumb/libg.a(lib_a-memset.o)
                0x000000000201c454                memset
 .text          0x000000000201c4f8      0x51c /home/linux/devkitPro/devkitARM/bin/../lib/gcc/arm-none-eabi/4.8.2/../../../../arm-none-eabi/lib/thumb/libg.a(lib_a-mktime.o)
                0x000000000201c6d8                mktime
 .text          0x000000000201ca14      0x494 /home/linux/devkitPro/devkitARM/bin/../lib/gcc/arm-none-eabi/4.8.2/../../../../arm-none-eabi/lib/thumb/libg.a(lib_a-mktm_r.o)
                0x000000000201ca14                __tzcalc_limits
                0x000000000201cbb0                _mktm_r
 .text          0x000000000201cea8        0x8 /home/linux/devkitPro/devkitARM/bin/../lib/gcc/arm-none-eabi/4.8.2/../../../../arm-none-eabi/lib/thumb/libg.a(lib_a-mlock.o)
                0x000000000201cea8                __malloc_lock
                0x000000000201ceac                __malloc_unlock
 .text          0x000000000201ceb0       0x40 /home/linux/devkitPro/devkitARM/bin/../lib/gcc/arm-none-eabi/4.8.2/../../../../arm-none-eabi/lib/thumb/libg.a(lib_a-printf.o)
                0x000000000201ceb0                _printf_r
                0x000000000201cecc                printf
 .text          0x000000000201cef0       0xc8 /home/linux/devkitPro/devkitARM/bin/../lib/gcc/arm-none-eabi/4.8.2/../../../../arm-none-eabi/lib/thumb/libg.a(lib_a-putc.o)
                0x000000000201cef0                _putc_r
                0x000000000201cf50                putc
 .text          0x000000000201cfb8       0x78 /home/linux/devkitPro/devkitARM/bin/../lib/gcc/arm-none-eabi/4.8.2/../../../../arm-none-eabi/lib/thumb/libg.a(lib_a-puts.o)
                0x000000000201cfb8                _puts_r
                0x000000000201d018                puts
 .text          0x000000000201d030       0x1c /home/linux/devkitPro/devkitARM/bin/../lib/gcc/arm-none-eabi/4.8.2/../../../../arm-none-eabi/lib/thumb/libg.a(lib_a-realloc.o)
                0x000000000201d030                realloc
 .text          0x000000000201d04c      0x36c /home/linux/devkitPro/devkitARM/bin/../lib/gcc/arm-none-eabi/4.8.2/../../../../arm-none-eabi/lib/thumb/libg.a(lib_a-reallocr.o)
                0x000000000201d04c                _realloc_r
 .text          0x000000000201d3b8      0x148 /home/linux/devkitPro/devkitARM/bin/../lib/gcc/arm-none-eabi/4.8.2/../../../../arm-none-eabi/lib/thumb/libg.a(lib_a-refill.o)
                0x000000000201d3d8                __srefill_r
 .text          0x000000000201d500      0x110 /home/linux/devkitPro/devkitARM/bin/../lib/gcc/arm-none-eabi/4.8.2/../../../../arm-none-eabi/lib/thumb/libg.a(lib_a-setvbuf.o)
                0x000000000201d500                setvbuf
 .text          0x000000000201d610      0x198 /home/linux/devkitPro/devkitARM/bin/../lib/gcc/arm-none-eabi/4.8.2/../../../../arm-none-eabi/lib/thumb/libg.a(lib_a-signal.o)
                0x000000000201d610                _init_signal_r
                0x000000000201d650                _signal_r
                0x000000000201d690                _raise_r
                0x000000000201d6f0                __sigtramp_r
                0x000000000201d744                raise
                0x000000000201d75c                signal
                0x000000000201d778                _init_signal
                0x000000000201d78c                __sigtramp
 .text          0x000000000201d7a8       0xa0 /home/linux/devkitPro/devkitARM/bin/../lib/gcc/arm-none-eabi/4.8.2/../../../../arm-none-eabi/lib/thumb/libg.a(lib_a-siscanf.o)
                0x000000000201d7a8                siscanf
                0x000000000201d7f8                _siscanf_r
 .text          0x000000000201d848       0x84 /home/linux/devkitPro/devkitARM/bin/../lib/gcc/arm-none-eabi/4.8.2/../../../../arm-none-eabi/lib/thumb/libg.a(lib_a-sprintf.o)
                0x000000000201d848                _sprintf_r
                0x000000000201d888                sprintf
 .text          0x000000000201d8cc       0xac /home/linux/devkitPro/devkitARM/bin/../lib/gcc/arm-none-eabi/4.8.2/../../../../arm-none-eabi/lib/thumb/libg.a(lib_a-stdio.o)
                0x000000000201d8cc                __sread
                0x000000000201d8f8                __seofread
                0x000000000201d8fc                __swrite
                0x000000000201d938                __sseek
                0x000000000201d968                __sclose
 .text          0x000000000201d978       0x4c /home/linux/devkitPro/devkitARM/bin/../lib/gcc/arm-none-eabi/4.8.2/../../../../arm-none-eabi/lib/thumb/libg.a(lib_a-stpcpy.o)
                0x000000000201d978                stpcpy
 .text          0x000000000201d9c4       0x50 /home/linux/devkitPro/devkitARM/bin/../lib/gcc/arm-none-eabi/4.8.2/../../../../arm-none-eabi/lib/thumb/libg.a(lib_a-strcasecmp.o)
                0x000000000201d9c4                strcasecmp
 .text          0x000000000201da14       0x54 /home/linux/devkitPro/devkitARM/bin/../lib/gcc/arm-none-eabi/4.8.2/../../../../arm-none-eabi/lib/thumb/libg.a(lib_a-strcat.o)
                0x000000000201da14                strcat
 .text          0x000000000201da68       0xdc /home/linux/devkitPro/devkitARM/bin/../lib/gcc/arm-none-eabi/4.8.2/../../../../arm-none-eabi/lib/thumb/libg.a(lib_a-strchr.o)
                0x000000000201da68                strchr
 .text          0x000000000201db44       0x14 /home/linux/devkitPro/devkitARM/bin/../lib/gcc/arm-none-eabi/4.8.2/../../../../arm-none-eabi/lib/thumb/libg.a(lib_a-strcmp.o)
                0x000000000201db44                strcmp
 .text          0x000000000201db58       0x10 /home/linux/devkitPro/devkitARM/bin/../lib/gcc/arm-none-eabi/4.8.2/../../../../arm-none-eabi/lib/thumb/libg.a(lib_a-strcpy.o)
                0x000000000201db58                strcpy
 .text          0x000000000201db68       0x18 /home/linux/devkitPro/devkitARM/bin/../lib/gcc/arm-none-eabi/4.8.2/../../../../arm-none-eabi/lib/thumb/libg.a(lib_a-strdup.o)
                0x000000000201db68                strdup
 .text          0x000000000201db80       0x2c /home/linux/devkitPro/devkitARM/bin/../lib/gcc/arm-none-eabi/4.8.2/../../../../arm-none-eabi/lib/thumb/libg.a(lib_a-strdup_r.o)
                0x000000000201db80                _strdup_r
 .text          0x000000000201dbac      0x2a4 /home/linux/devkitPro/devkitARM/bin/../lib/gcc/arm-none-eabi/4.8.2/../../../../arm-none-eabi/lib/thumb/libg.a(lib_a-strerror.o)
                0x000000000201dbac                _strerror_r
                0x000000000201de34                strerror
 .text          0x000000000201de50       0x50 /home/linux/devkitPro/devkitARM/bin/../lib/gcc/arm-none-eabi/4.8.2/../../../../arm-none-eabi/lib/thumb/libg.a(lib_a-strlcpy.o)
                0x000000000201de50                strlcpy
 .text          0x000000000201dea0       0x10 /home/linux/devkitPro/devkitARM/bin/../lib/gcc/arm-none-eabi/4.8.2/../../../../arm-none-eabi/lib/thumb/libg.a(lib_a-strlen.o)
                0x000000000201dea0                strlen
 .text          0x000000000201deb0       0x60 /home/linux/devkitPro/devkitARM/bin/../lib/gcc/arm-none-eabi/4.8.2/../../../../arm-none-eabi/lib/thumb/libg.a(lib_a-strncasecmp.o)
                0x000000000201deb0                strncasecmp
 .text          0x000000000201df10       0xbc /home/linux/devkitPro/devkitARM/bin/../lib/gcc/arm-none-eabi/4.8.2/../../../../arm-none-eabi/lib/thumb/libg.a(lib_a-strncmp.o)
                0x000000000201df10                strncmp
 .text          0x000000000201dfcc       0x78 /home/linux/devkitPro/devkitARM/bin/../lib/gcc/arm-none-eabi/4.8.2/../../../../arm-none-eabi/lib/thumb/libg.a(lib_a-strncpy.o)
                0x000000000201dfcc                strncpy
 .text          0x000000000201e044       0x34 /home/linux/devkitPro/devkitARM/bin/../lib/gcc/arm-none-eabi/4.8.2/../../../../arm-none-eabi/lib/thumb/libg.a(lib_a-strnlen.o)
                0x000000000201e044                strnlen
 .text          0x000000000201e078       0x58 /home/linux/devkitPro/devkitARM/bin/../lib/gcc/arm-none-eabi/4.8.2/../../../../arm-none-eabi/lib/thumb/libg.a(lib_a-strpbrk.o)
                0x000000000201e078                strpbrk
 .text          0x000000000201e0d0       0x2c /home/linux/devkitPro/devkitARM/bin/../lib/gcc/arm-none-eabi/4.8.2/../../../../arm-none-eabi/lib/thumb/libg.a(lib_a-strrchr.o)
                0x000000000201e0d0                strrchr
 .text          0x000000000201e0fc      0x190 /home/linux/devkitPro/devkitARM/bin/../lib/gcc/arm-none-eabi/4.8.2/../../../../arm-none-eabi/lib/thumb/libg.a(lib_a-strtol.o)
                0x000000000201e0fc                _strtol_r
                0x000000000201e26c                strtol
 .text          0x000000000201e28c      0xadc /home/linux/devkitPro/devkitARM/bin/../lib/gcc/arm-none-eabi/4.8.2/../../../../arm-none-eabi/lib/thumb/libg.a(lib_a-svfiscanf.o)
                0x000000000201e28c                _sungetc_r
                0x000000000201e314                __ssrefill_r
                0x000000000201e358                _sfread_r
                0x000000000201e3e0                __ssvfiscanf_r
 .text          0x000000000201ed68     0x17a8 /home/linux/devkitPro/devkitARM/bin/../lib/gcc/arm-none-eabi/4.8.2/../../../../arm-none-eabi/lib/thumb/libg.a(lib_a-svfprintf.o)
                0x000000000201ed68                _svfprintf_r
 .text          0x0000000002020510       0x18 /home/linux/devkitPro/devkitARM/bin/../lib/gcc/arm-none-eabi/4.8.2/../../../../arm-none-eabi/lib/thumb/libg.a(lib_a-sysclose.o)
                0x0000000002020510                close
 .text          0x0000000002020528       0x20 /home/linux/devkitPro/devkitARM/bin/../lib/gcc/arm-none-eabi/4.8.2/../../../../arm-none-eabi/lib/thumb/libg.a(lib_a-syslseek.o)
                0x0000000002020528                lseek
 .text          0x0000000002020548       0x24 /home/linux/devkitPro/devkitARM/bin/../lib/gcc/arm-none-eabi/4.8.2/../../../../arm-none-eabi/lib/thumb/libg.a(lib_a-sysopen.o)
                0x0000000002020548                open
 .text          0x000000000202056c       0x20 /home/linux/devkitPro/devkitARM/bin/../lib/gcc/arm-none-eabi/4.8.2/../../../../arm-none-eabi/lib/thumb/libg.a(lib_a-sysread.o)
                0x000000000202056c                read
 .text          0x000000000202058c       0x20 /home/linux/devkitPro/devkitARM/bin/../lib/gcc/arm-none-eabi/4.8.2/../../../../arm-none-eabi/lib/thumb/libg.a(lib_a-syswrite.o)
                0x000000000202058c                write
 .text          0x00000000020205ac       0x30 /home/linux/devkitPro/devkitARM/bin/../lib/gcc/arm-none-eabi/4.8.2/../../../../arm-none-eabi/lib/thumb/libg.a(lib_a-time.o)
                0x00000000020205ac                time
 .text          0x00000000020205dc      0x7a4 /home/linux/devkitPro/devkitARM/bin/../lib/gcc/arm-none-eabi/4.8.2/../../../../arm-none-eabi/lib/thumb/libg.a(lib_a-towlower.o)
                0x00000000020205dc                towlower
 .text          0x0000000002020d80      0x9ac /home/linux/devkitPro/devkitARM/bin/../lib/gcc/arm-none-eabi/4.8.2/../../../../arm-none-eabi/lib/thumb/libg.a(lib_a-towupper.o)
                0x0000000002020d80                towupper
 .text          0x000000000202172c        0x8 /home/linux/devkitPro/devkitARM/bin/../lib/gcc/arm-none-eabi/4.8.2/../../../../arm-none-eabi/lib/thumb/libg.a(lib_a-tzlock.o)
                0x000000000202172c                __tz_lock
                0x0000000002021730                __tz_unlock
 .text          0x0000000002021734        0x0 /home/linux/devkitPro/devkitARM/bin/../lib/gcc/arm-none-eabi/4.8.2/../../../../arm-none-eabi/lib/thumb/libg.a(lib_a-tzvars.o)
 .text          0x0000000002021734      0x184 /home/linux/devkitPro/devkitARM/bin/../lib/gcc/arm-none-eabi/4.8.2/../../../../arm-none-eabi/lib/thumb/libg.a(lib_a-ungetc.o)
                0x0000000002021734                __submore
                0x00000000020217bc                _ungetc_r
                0x000000000202189c                ungetc
 .text          0x00000000020218b8        0x4 /home/linux/devkitPro/devkitARM/bin/../lib/gcc/arm-none-eabi/4.8.2/../../../../arm-none-eabi/lib/thumb/libg.a(lib_a-u_strerr.o)
                0x00000000020218b8                _user_strerror
 .text          0x00000000020218bc      0xe60 /home/linux/devkitPro/devkitARM/bin/../lib/gcc/arm-none-eabi/4.8.2/../../../../arm-none-eabi/lib/thumb/libg.a(lib_a-vfiprintf.o)
                0x000000000202193c                __sprint_r
                0x0000000002021954                _vfiprintf_r
                0x0000000002022680                vfiprintf
 *fill*         0x000000000202271c        0x4 ff
 .text          0x0000000002022720     0x1930 /home/linux/devkitPro/devkitARM/bin/../lib/gcc/arm-none-eabi/4.8.2/../../../../arm-none-eabi/lib/thumb/libg.a(lib_a-vfprintf.o)
                0x0000000002022720                _vfprintf_r
                0x0000000002023fb0                vfprintf
 .text          0x0000000002024050       0x30 /home/linux/devkitPro/devkitARM/bin/../lib/gcc/arm-none-eabi/4.8.2/../../../../arm-none-eabi/lib/thumb/libg.a(lib_a-viprintf.o)
                0x0000000002024050                viprintf
                0x000000000202406c                _viprintf_r
 .text          0x0000000002024080       0xd8 /home/linux/devkitPro/devkitARM/bin/../lib/gcc/arm-none-eabi/4.8.2/../../../../arm-none-eabi/lib/thumb/libg.a(lib_a-wbuf.o)
                0x0000000002024080                __swbuf_r
                0x000000000202413c                __swbuf
 .text          0x0000000002024158       0xdc /home/linux/devkitPro/devkitARM/bin/../lib/gcc/arm-none-eabi/4.8.2/../../../../arm-none-eabi/lib/thumb/libg.a(lib_a-wcrtomb.o)
                0x0000000002024158                _wcrtomb_r
                0x00000000020241c0                wcrtomb
 .text          0x0000000002024234       0x40 /home/linux/devkitPro/devkitARM/bin/../lib/gcc/arm-none-eabi/4.8.2/../../../../arm-none-eabi/lib/thumb/libg.a(lib_a-wcsrtombs.o)
                0x0000000002024234                _wcsrtombs_r
                0x000000000202424c                wcsrtombs
 .text          0x0000000002024274       0x54 /home/linux/devkitPro/devkitARM/bin/../lib/gcc/arm-none-eabi/4.8.2/../../../../arm-none-eabi/lib/thumb/libg.a(lib_a-wctob.o)
                0x0000000002024274                wctob
 .text          0x00000000020242c8      0x28c /home/linux/devkitPro/devkitARM/bin/../lib/gcc/arm-none-eabi/4.8.2/../../../../arm-none-eabi/lib/thumb/libg.a(lib_a-wctomb_r.o)
                0x00000000020242c8                __utf8_wctomb
                0x0000000002024388                _wctomb_r
                0x00000000020243c0                __ascii_wctomb
                0x00000000020243e0                __sjis_wctomb
                0x0000000002024454                __eucjp_wctomb
                0x00000000020244d4                __jis_wctomb
 .text          0x0000000002024554       0xd0 /home/linux/devkitPro/devkitARM/bin/../lib/gcc/arm-none-eabi/4.8.2/../../../../arm-none-eabi/lib/thumb/libg.a(lib_a-wsetup.o)
                0x0000000002024554                __swsetup_r
 .text          0x0000000002024624       0xc4 /home/linux/devkitPro/devkitARM/bin/../lib/gcc/arm-none-eabi/4.8.2/../../../../arm-none-eabi/lib/thumb/libg.a(lib_a-__atexit.o)
                0x0000000002024624                __register_exitproc
 .text          0x00000000020246e8       0x40 /home/linux/devkitPro/devkitARM/bin/../lib/gcc/arm-none-eabi/4.8.2/../../../../arm-none-eabi/lib/thumb/libg.a(lib_a-div.o)
                0x00000000020246e8                div
 .text          0x0000000002024728     0x1140 /home/linux/devkitPro/devkitARM/bin/../lib/gcc/arm-none-eabi/4.8.2/../../../../arm-none-eabi/lib/thumb/libg.a(lib_a-dtoa.o)
                0x000000000202487c                _dtoa_r
 .text          0x0000000002025868       0xa4 /home/linux/devkitPro/devkitARM/bin/../lib/gcc/arm-none-eabi/4.8.2/../../../../arm-none-eabi/lib/thumb/libg.a(lib_a-flags.o)
                0x0000000002025868                __sflags
 .text          0x000000000202590c      0x104 /home/linux/devkitPro/devkitARM/bin/../lib/gcc/arm-none-eabi/4.8.2/../../../../arm-none-eabi/lib/thumb/libg.a(lib_a-fputwc.o)
                0x000000000202590c                _fputwc_r
                0x00000000020259e0                fputwc
 .text          0x0000000002025a10       0xa8 /home/linux/devkitPro/devkitARM/bin/../lib/gcc/arm-none-eabi/4.8.2/../../../../arm-none-eabi/lib/thumb/libg.a(lib_a-getenv_r.o)
                0x0000000002025a10                _findenv_r
                0x0000000002025aa8                _getenv_r
 .text          0x0000000002025ab8        0x8 /home/linux/devkitPro/devkitARM/bin/../lib/gcc/arm-none-eabi/4.8.2/../../../../arm-none-eabi/lib/thumb/libg.a(lib_a-gettzinfo.o)
                0x0000000002025ab8                __gettzinfo
 .text          0x0000000002025ac0       0x78 /home/linux/devkitPro/devkitARM/bin/../lib/gcc/arm-none-eabi/4.8.2/../../../../arm-none-eabi/lib/thumb/libg.a(lib_a-iswspace.o)
                0x0000000002025ac0                iswspace
 .text          0x0000000002025b38      0x1e8 /home/linux/devkitPro/devkitARM/bin/../lib/gcc/arm-none-eabi/4.8.2/../../../../arm-none-eabi/lib/thumb/libg.a(lib_a-jp2uc.o)
                0x0000000002025cbc                _jp2uc
 .text          0x0000000002025d20       0xf0 /home/linux/devkitPro/devkitARM/bin/../lib/gcc/arm-none-eabi/4.8.2/../../../../arm-none-eabi/lib/thumb/libg.a(lib_a-mbsnrtowcs.o)
                0x0000000002025d20                _mbsnrtowcs_r
                0x0000000002025de4                mbsnrtowcs
 .text          0x0000000002025e10      0x968 /home/linux/devkitPro/devkitARM/bin/../lib/gcc/arm-none-eabi/4.8.2/../../../../arm-none-eabi/lib/thumb/libg.a(lib_a-mprec.o)
                0x0000000002025e10                _Balloc
                0x0000000002025e64                _Bfree
                0x0000000002025e7c                __multadd
                0x0000000002025f28                __s2b
                0x0000000002025fc4                __hi0bits
                0x0000000002026004                __lo0bits
                0x0000000002026064                __i2b
                0x000000000202607c                __multiply
                0x00000000020261c4                __pow5mult
                0x0000000002026280                __lshift
                0x0000000002026344                __mcmp
                0x0000000002026380                __mdiff
                0x0000000002026470                __ulp
                0x00000000020264b8                __b2d
                0x0000000002026568                __d2b
                0x0000000002026628                __ratio
                0x000000000202669c                _mprec_log10
                0x00000000020266dc                __copybits
                0x0000000002026720                __any_on
 .text          0x0000000002026778       0x7c /home/linux/devkitPro/devkitARM/bin/../lib/gcc/arm-none-eabi/4.8.2/../../../../arm-none-eabi/lib/thumb/libg.a(lib_a-sccl.o)
                0x0000000002026778                __sccl
 *fill*         0x00000000020267f4        0x4 ff
 .text          0x00000000020267f8      0x228 /home/linux/devkitPro/devkitARM/bin/../lib/gcc/arm-none-eabi/4.8.2/../../../../arm-none-eabi/lib/thumb/libg.a(lib_a-strtoll_r.o)
                0x00000000020267f8                _strtoll_r
 .text          0x0000000002026a20      0x1fc /home/linux/devkitPro/devkitARM/bin/../lib/gcc/arm-none-eabi/4.8.2/../../../../arm-none-eabi/lib/thumb/libg.a(lib_a-strtoull_r.o)
                0x0000000002026a20                _strtoull_r
 .text          0x0000000002026c1c      0x1ac /home/linux/devkitPro/devkitARM/bin/../lib/gcc/arm-none-eabi/4.8.2/../../../../arm-none-eabi/lib/thumb/libg.a(lib_a-strtoul.o)
                0x0000000002026c1c                _strtoul_r
                0x0000000002026da8                strtoul
 .text          0x0000000002026dc8      0xd98 /home/linux/devkitPro/devkitARM/bin/../lib/gcc/arm-none-eabi/4.8.2/../../../../arm-none-eabi/lib/thumb/libg.a(lib_a-svfiprintf.o)
                0x0000000002026dc8                __ssprint_r
                0x0000000002026ef8                _svfiprintf_r
 .text          0x0000000002027b60      0x13c /home/linux/devkitPro/devkitARM/bin/../lib/gcc/arm-none-eabi/4.8.2/../../../../arm-none-eabi/lib/thumb/libg.a(lib_a-wcsnrtombs.o)
                0x0000000002027b60                _wcsnrtombs_r
                0x0000000002027c6c                wcsnrtombs
 .text          0x0000000002027c9c       0x64 /home/linux/devkitPro/devkitARM/bin/../lib/gcc/arm-none-eabi/4.8.2/../../../../arm-none-eabi/lib/thumb/libg.a(lib_a-callocr.o)
                0x0000000002027c9c                _calloc_r
 .text          0x0000000002027d00        0x0 /home/linux/devkitPro/devkitARM/bin/../lib/gcc/arm-none-eabi/4.8.2/../../../../arm-none-eabi/lib/thumb/libg.a(lib_a-environ.o)
 .text          0x0000000002027d00        0x8 /home/linux/devkitPro/devkitARM/bin/../lib/gcc/arm-none-eabi/4.8.2/../../../../arm-none-eabi/lib/thumb/libg.a(lib_a-envlock.o)
                0x0000000002027d00                __env_lock
                0x0000000002027d04                __env_unlock
 .text          0x0000000002027d08      0x144 /home/linux/devkitPro/devkitARM/bin/../lib/gcc/arm-none-eabi/4.8.2/../../../../arm-none-eabi/lib/thumb/libsysbase.a(iosupport.o)
                0x0000000002027d08                setDefaultDevice
                0x0000000002027d1c                FindDevice
                0x0000000002027d8c                RemoveDevice
                0x0000000002027db0                AddDevice
                0x0000000002027e2c                GetDeviceOpTab
 .text          0x0000000002027e4c       0x50 /home/linux/devkitPro/devkitARM/bin/../lib/gcc/arm-none-eabi/4.8.2/../../../../arm-none-eabi/lib/thumb/libsysbase.a(close.o)
                0x0000000002027e4c                _close_r
 .text          0x0000000002027e9c       0x50 /home/linux/devkitPro/devkitARM/bin/../lib/gcc/arm-none-eabi/4.8.2/../../../../arm-none-eabi/lib/thumb/libsysbase.a(fstat.o)
                0x0000000002027e9c                _fstat_r
 .text          0x0000000002027eec        0xc /home/linux/devkitPro/devkitARM/bin/../lib/gcc/arm-none-eabi/4.8.2/../../../../arm-none-eabi/lib/thumb/libsysbase.a(getpid.o)
                0x0000000002027eec                _getpid_r
 .text          0x0000000002027ef8        0x4 /home/linux/devkitPro/devkitARM/bin/../lib/gcc/arm-none-eabi/4.8.2/../../../../arm-none-eabi/lib/thumb/libsysbase.a(isatty.o)
                0x0000000002027ef8                _isatty_r
 .text          0x0000000002027efc        0xc /home/linux/devkitPro/devkitARM/bin/../lib/gcc/arm-none-eabi/4.8.2/../../../../arm-none-eabi/lib/thumb/libsysbase.a(kill.o)
                0x0000000002027efc                _kill_r
 .text          0x0000000002027f08       0x50 /home/linux/devkitPro/devkitARM/bin/../lib/gcc/arm-none-eabi/4.8.2/../../../../arm-none-eabi/lib/thumb/libsysbase.a(lseek.o)
                0x0000000002027f08                _lseek_r
 .text          0x0000000002027f58       0xa0 /home/linux/devkitPro/devkitARM/bin/../lib/gcc/arm-none-eabi/4.8.2/../../../../arm-none-eabi/lib/thumb/libsysbase.a(open.o)
                0x0000000002027f58                _open_r
 .text          0x0000000002027ff8       0x50 /home/linux/devkitPro/devkitARM/bin/../lib/gcc/arm-none-eabi/4.8.2/../../../../arm-none-eabi/lib/thumb/libsysbase.a(read.o)
                0x0000000002027ff8                _read_r
 .text          0x0000000002028048       0x54 /home/linux/devkitPro/devkitARM/bin/../lib/gcc/arm-none-eabi/4.8.2/../../../../arm-none-eabi/lib/thumb/libsysbase.a(sbrk.o)
                0x0000000002028048                _sbrk_r
 .text          0x000000000202809c       0x44 /home/linux/devkitPro/devkitARM/bin/../lib/gcc/arm-none-eabi/4.8.2/../../../../arm-none-eabi/lib/thumb/libsysbase.a(times.o)
                0x000000000202809c                _times
                0x00000000020280b0                _times_r
                0x00000000020280b8                _gettimeofday_r
 .text          0x00000000020280e0       0x58 /home/linux/devkitPro/devkitARM/bin/../lib/gcc/arm-none-eabi/4.8.2/../../../../arm-none-eabi/lib/thumb/libsysbase.a(write.o)
                0x00000000020280e0                _write_r
 .text          0x0000000002028138       0x18 /home/linux/devkitPro/devkitARM/bin/../lib/gcc/arm-none-eabi/4.8.2/../../../../arm-none-eabi/lib/thumb/libsysbase.a(_exit.o)
                0x0000000002028138                _exit
 .text          0x0000000002028150        0x0 /home/linux/devkitPro/devkitARM/bin/../lib/gcc/arm-none-eabi/4.8.2/../../../../arm-none-eabi/lib/thumb/libsysbase.a(malloc_vars.o)
 .text          0x0000000002028150      0x25c /home/linux/devkitPro/devkitARM/bin/../lib/gcc/arm-none-eabi/4.8.2/../../../../arm-none-eabi/lib/thumb/libsysbase.a(chdir.o)
                0x0000000002028150                _concatenate_path
                0x0000000002028280                chdir
                0x0000000002028360                getcwd
 .text          0x00000000020283ac       0x50 /home/linux/devkitPro/devkitARM/bin/../lib/gcc/arm-none-eabi/4.8.2/../../../../arm-none-eabi/lib/thumb/libsysbase.a(build_argv.o)
                0x00000000020283ac                build_argv
 .text          0x00000000020283fc        0x0 /home/linux/devkitPro/devkitARM/bin/../lib/gcc/arm-none-eabi/4.8.2/../../../../arm-none-eabi/lib/thumb/libsysbase.a(syscall_support.o)
 .text          0x00000000020283fc       0x88 /home/linux/devkitPro/devkitARM/bin/../lib/gcc/arm-none-eabi/4.8.2/../../../../arm-none-eabi/lib/thumb/libsysbase.a(handle_manager.o)
                0x00000000020283fc                __release_handle
                0x0000000002028428                __alloc_handle
                0x0000000002028464                __get_handle
 .text          0x0000000002028484       0x5c /home/linux/devkitPro/devkitARM/bin/../lib/gcc/arm-none-eabi/4.8.2/thumb/libgcc.a(_arm_fixdfsi.o)
                0x0000000002028484                __fixdfsi
                0x0000000002028484                __aeabi_d2iz
 .text          0x00000000020284e0       0x3c /home/linux/devkitPro/devkitARM/bin/../lib/gcc/arm-none-eabi/4.8.2/thumb/libgcc.a(_aeabi_uldivmod.o)
                0x00000000020284e0                __aeabi_uldivmod
 .text          0x000000000202851c       0x74 /home/linux/devkitPro/devkitARM/bin/../lib/gcc/arm-none-eabi/4.8.2/thumb/libgcc.a(bpabi.o)
                0x000000000202851c                __gnu_ldivmod_helper
                0x0000000002028558                __gnu_uldivmod_helper
 .text          0x0000000002028590      0x3cc /home/linux/devkitPro/devkitARM/bin/../lib/gcc/arm-none-eabi/4.8.2/thumb/libgcc.a(_divdi3.o)
                0x0000000002028590                __divdi3
 .text          0x000000000202895c      0x378 /home/linux/devkitPro/devkitARM/bin/../lib/gcc/arm-none-eabi/4.8.2/thumb/libgcc.a(_udivdi3.o)
                0x000000000202895c                __udivdi3
 .text          0x0000000002028cd4       0x48 /home/linux/devkitPro/devkitARM/bin/../lib/gcc/arm-none-eabi/4.8.2/thumb/libgcc.a(_clzsi2.o)
                0x0000000002028cd4                __clzsi2
 .text          0x0000000002028d1c        0x0 /home/linux/devkitPro/devkitARM/bin/../lib/gcc/arm-none-eabi/4.8.2/thumb/crtend.o
 .text          0x0000000002028d1c        0x0 /home/linux/devkitPro/devkitARM/bin/../lib/gcc/arm-none-eabi/4.8.2/thumb/crtn.o
 *(.text.*)
 .text.startup  0x0000000002028d1c       0x1c main.o
                0x0000000002028d1c                main
 .text._ZNSt6vectorIP7TilesetSaIS1_EED2Ev
                0x0000000002028d38       0x14 MapManager.o
                0x0000000002028d38                std::vector<Tileset*, std::allocator<Tileset*> >::~vector()
                0x0000000002028d38                std::vector<Tileset*, std::allocator<Tileset*> >::~vector()
 .text._ZNSt6vectorIS_IP3MapSaIS1_EESaIS3_EED2Ev
                0x0000000002028d4c       0x30 MapManager.o
                0x0000000002028d4c                std::vector<std::vector<Map*, std::allocator<Map*> >, std::allocator<std::vector<Map*, std::allocator<Map*> > > >::~vector()
                0x0000000002028d4c                std::vector<std::vector<Map*, std::allocator<Map*> >, std::allocator<std::vector<Map*, std::allocator<Map*> > > >::~vector()
 .text._ZNSt6vectorIS_IP3MapSaIS1_EESaIS3_EE19_M_emplace_back_auxIIRKS3_EEEvDpOT_
                0x0000000002028d7c      0x170 MapManager.o
                0x0000000002028d7c                void std::vector<std::vector<Map*, std::allocator<Map*> >, std::allocator<std::vector<Map*, std::allocator<Map*> > > >::_M_emplace_back_aux<std::vector<Map*, std::allocator<Map*> > const&>(std::vector<Map*, std::allocator<Map*> > const&)
                0x0000000002028d7c                void std::vector<std::vector<Map*, std::allocator<Map*> >, std::allocator<std::vector<Map*, std::allocator<Map*> > > >::_M_emplace_back_aux<std::vector<Map*, std::allocator<Map*> > const&>(std::vector<Map*, std::allocator<Map*> > const&)
 .text._ZNSt6vectorIP7TilesetSaIS1_EE19_M_emplace_back_auxIIS1_EEEvDpOT_
                0x0000000002028eec       0x80 MapManager.o
                0x0000000002028eec                void std::vector<Tileset*, std::allocator<Tileset*> >::_M_emplace_back_aux<Tileset*>(Tileset*&&)
                0x0000000002028eec                void std::vector<Tileset*, std::allocator<Tileset*> >::_M_emplace_back_aux<Tileset*>(Tileset*&&)
 .text._ZNSt6vectorIP3MapSaIS1_EE19_M_emplace_back_auxIIS1_EEEvDpOT_
                0x0000000002028f6c       0x80 MapManager.o
                0x0000000002028f6c                void std::vector<Map*, std::allocator<Map*> >::_M_emplace_back_aux<Map*>(Map*&&)
                0x0000000002028f6c                void std::vector<Map*, std::allocator<Map*> >::_M_emplace_back_aux<Map*>(Map*&&)
 .text._ZNSt6vectorIP3MapSaIS1_EE12emplace_backIIS1_EEEvDpOT_
                0x0000000002028fec       0x24 MapManager.o
                0x0000000002028fec                void std::vector<Map*, std::allocator<Map*> >::emplace_back<Map*>(Map*&&)
                0x0000000002028fec                void std::vector<Map*, std::allocator<Map*> >::emplace_back<Map*>(Map*&&)
 .text.startup  0x0000000002029010       0x3c MapManager.o
 .text._Znwj    0x000000000202904c       0x60 /home/linux/devkitPro/devkitARM/bin/../lib/gcc/arm-none-eabi/4.8.2/../../../../arm-none-eabi/lib/thumb/libstdc++.a(new_op.o)
                0x000000000202904c                operator new(unsigned int)
 .text._ZN10__cxxabiv1L24__is_gxx_exception_classEPc
                0x00000000020290ac       0x40 /home/linux/devkitPro/devkitARM/bin/../lib/gcc/arm-none-eabi/4.8.2/../../../../arm-none-eabi/lib/thumb/libstdc++.a(eh_call.o)
 .text.__cxa_call_terminate
                0x00000000020290ec       0x20 /home/linux/devkitPro/devkitARM/bin/../lib/gcc/arm-none-eabi/4.8.2/../../../../arm-none-eabi/lib/thumb/libstdc++.a(eh_call.o)
                0x00000000020290ec                __cxa_call_terminate
 .text.__cxa_call_unexpected
                0x000000000202910c       0xfc /home/linux/devkitPro/devkitARM/bin/../lib/gcc/arm-none-eabi/4.8.2/../../../../arm-none-eabi/lib/thumb/libstdc++.a(eh_call.o)
                0x000000000202910c                __cxa_call_unexpected
 .text._Znaj    0x0000000002029208       0x18 /home/linux/devkitPro/devkitARM/bin/../lib/gcc/arm-none-eabi/4.8.2/../../../../arm-none-eabi/lib/thumb/libstdc++.a(new_opv.o)
                0x0000000002029208                operator new[](unsigned int)
 .text._ZL12read_sleb128PKhPl
                0x0000000002029220       0x34 /home/linux/devkitPro/devkitARM/bin/../lib/gcc/arm-none-eabi/4.8.2/../../../../arm-none-eabi/lib/thumb/libstdc++.a(eh_personality.o)
 .text._ZL28read_encoded_value_with_basehjPKhPj
                0x0000000002029254       0xe0 /home/linux/devkitPro/devkitARM/bin/../lib/gcc/arm-none-eabi/4.8.2/../../../../arm-none-eabi/lib/thumb/libstdc++.a(eh_personality.o)
 .text._ZL21base_of_encoded_valuehP15_Unwind_Context
                0x0000000002029334       0x48 /home/linux/devkitPro/devkitARM/bin/../lib/gcc/arm-none-eabi/4.8.2/../../../../arm-none-eabi/lib/thumb/libstdc++.a(eh_personality.o)
 .text._ZL17parse_lsda_headerP15_Unwind_ContextPKhP16lsda_header_info
                0x000000000202937c       0x9c /home/linux/devkitPro/devkitARM/bin/../lib/gcc/arm-none-eabi/4.8.2/../../../../arm-none-eabi/lib/thumb/libstdc++.a(eh_personality.o)
 .text.__gxx_personality_v0
                0x0000000002029418      0x3f8 /home/linux/devkitPro/devkitARM/bin/../lib/gcc/arm-none-eabi/4.8.2/../../../../arm-none-eabi/lib/thumb/libstdc++.a(eh_personality.o)
                0x0000000002029418                __gxx_personality_v0
 .text._ZdlPv   0x0000000002029810       0x10 /home/linux/devkitPro/devkitARM/bin/../lib/gcc/arm-none-eabi/4.8.2/../../../../arm-none-eabi/lib/thumb/libstdc++.a(del_op.o)
                0x0000000002029810                operator delete(void*)
 .text.__aeabi_atexit
                0x0000000002029820       0x14 /home/linux/devkitPro/devkitARM/bin/../lib/gcc/arm-none-eabi/4.8.2/../../../../arm-none-eabi/lib/thumb/libstdc++.a(atexit_arm.o)
                0x0000000002029820                __aeabi_atexit
 .text._ZN10__cxxabiv111__terminateEPFvvE
                0x0000000002029834       0x2c /home/linux/devkitPro/devkitARM/bin/../lib/gcc/arm-none-eabi/4.8.2/../../../../arm-none-eabi/lib/thumb/libstdc++.a(eh_terminate.o)
                0x0000000002029834                __cxxabiv1::__terminate(void (*)())
 .text._ZSt9terminatev
                0x0000000002029860       0x10 /home/linux/devkitPro/devkitARM/bin/../lib/gcc/arm-none-eabi/4.8.2/../../../../arm-none-eabi/lib/thumb/libstdc++.a(eh_terminate.o)
                0x0000000002029860                std::terminate()
 .text._ZN10__cxxabiv112__unexpectedEPFvvE
                0x0000000002029870        0xc /home/linux/devkitPro/devkitARM/bin/../lib/gcc/arm-none-eabi/4.8.2/../../../../arm-none-eabi/lib/thumb/libstdc++.a(eh_terminate.o)
                0x0000000002029870                __cxxabiv1::__unexpected(void (*)())
 .text._ZSt10unexpectedv
                0x000000000202987c       0x10 /home/linux/devkitPro/devkitARM/bin/../lib/gcc/arm-none-eabi/4.8.2/../../../../arm-none-eabi/lib/thumb/libstdc++.a(eh_terminate.o)
                0x000000000202987c                std::unexpected()
 .text._ZSt13set_terminatePFvvE
                0x000000000202988c       0x10 /home/linux/devkitPro/devkitARM/bin/../lib/gcc/arm-none-eabi/4.8.2/../../../../arm-none-eabi/lib/thumb/libstdc++.a(eh_terminate.o)
                0x000000000202988c                std::set_terminate(void (*)())
 .text._ZSt14set_unexpectedPFvvE
                0x000000000202989c       0x10 /home/linux/devkitPro/devkitARM/bin/../lib/gcc/arm-none-eabi/4.8.2/../../../../arm-none-eabi/lib/thumb/libstdc++.a(eh_terminate.o)
                0x000000000202989c                std::set_unexpected(void (*)())
 .text._ZNSt9exceptionD2Ev
                0x00000000020298ac        0xc /home/linux/devkitPro/devkitARM/bin/../lib/gcc/arm-none-eabi/4.8.2/../../../../arm-none-eabi/lib/thumb/libstdc++.a(eh_exception.o)
                0x00000000020298ac                std::exception::~exception()
                0x00000000020298ac                std::exception::~exception()
 .text._ZNSt13bad_exceptionD2Ev
                0x00000000020298b8        0xc /home/linux/devkitPro/devkitARM/bin/../lib/gcc/arm-none-eabi/4.8.2/../../../../arm-none-eabi/lib/thumb/libstdc++.a(eh_exception.o)
                0x00000000020298b8                std::bad_exception::~bad_exception()
                0x00000000020298b8                std::bad_exception::~bad_exception()
 .text._ZN10__cxxabiv115__forced_unwindD2Ev
                0x00000000020298c4        0xc /home/linux/devkitPro/devkitARM/bin/../lib/gcc/arm-none-eabi/4.8.2/../../../../arm-none-eabi/lib/thumb/libstdc++.a(eh_exception.o)
                0x00000000020298c4                __cxxabiv1::__forced_unwind::~__forced_unwind()
                0x00000000020298c4                __cxxabiv1::__forced_unwind::~__forced_unwind()
 .text._ZN10__cxxabiv119__foreign_exceptionD2Ev
                0x00000000020298d0        0xc /home/linux/devkitPro/devkitARM/bin/../lib/gcc/arm-none-eabi/4.8.2/../../../../arm-none-eabi/lib/thumb/libstdc++.a(eh_exception.o)
                0x00000000020298d0                __cxxabiv1::__foreign_exception::~__foreign_exception()
                0x00000000020298d0                __cxxabiv1::__foreign_exception::~__foreign_exception()
 .text._ZNKSt9exception4whatEv
                0x00000000020298dc        0x8 /home/linux/devkitPro/devkitARM/bin/../lib/gcc/arm-none-eabi/4.8.2/../../../../arm-none-eabi/lib/thumb/libstdc++.a(eh_exception.o)
                0x00000000020298dc                std::exception::what() const
 .text._ZNKSt13bad_exception4whatEv
                0x00000000020298e4        0x8 /home/linux/devkitPro/devkitARM/bin/../lib/gcc/arm-none-eabi/4.8.2/../../../../arm-none-eabi/lib/thumb/libstdc++.a(eh_exception.o)
                0x00000000020298e4                std::bad_exception::what() const
 .text._ZNSt9exceptionD0Ev
                0x00000000020298ec       0x1c /home/linux/devkitPro/devkitARM/bin/../lib/gcc/arm-none-eabi/4.8.2/../../../../arm-none-eabi/lib/thumb/libstdc++.a(eh_exception.o)
                0x00000000020298ec                std::exception::~exception()
 .text._ZNSt13bad_exceptionD0Ev
                0x0000000002029908       0x1c /home/linux/devkitPro/devkitARM/bin/../lib/gcc/arm-none-eabi/4.8.2/../../../../arm-none-eabi/lib/thumb/libstdc++.a(eh_exception.o)
                0x0000000002029908                std::bad_exception::~bad_exception()
 .text._ZN10__cxxabiv115__forced_unwindD0Ev
                0x0000000002029924       0x1c /home/linux/devkitPro/devkitARM/bin/../lib/gcc/arm-none-eabi/4.8.2/../../../../arm-none-eabi/lib/thumb/libstdc++.a(eh_exception.o)
                0x0000000002029924                __cxxabiv1::__forced_unwind::~__forced_unwind()
 .text._ZN10__cxxabiv119__foreign_exceptionD0Ev
                0x0000000002029940       0x1c /home/linux/devkitPro/devkitARM/bin/../lib/gcc/arm-none-eabi/4.8.2/../../../../arm-none-eabi/lib/thumb/libstdc++.a(eh_exception.o)
                0x0000000002029940                __cxxabiv1::__foreign_exception::~__foreign_exception()
 .text.__cxa_allocate_exception
                0x000000000202995c       0x68 /home/linux/devkitPro/devkitARM/bin/../lib/gcc/arm-none-eabi/4.8.2/../../../../arm-none-eabi/lib/thumb/libstdc++.a(eh_alloc.o)
                0x000000000202995c                __cxa_allocate_exception
 .text.__cxa_free_exception
                0x00000000020299c4       0x38 /home/linux/devkitPro/devkitARM/bin/../lib/gcc/arm-none-eabi/4.8.2/../../../../arm-none-eabi/lib/thumb/libstdc++.a(eh_alloc.o)
                0x00000000020299c4                __cxa_free_exception
 .text.__cxa_allocate_dependent_exception
                0x00000000020299fc       0x60 /home/linux/devkitPro/devkitARM/bin/../lib/gcc/arm-none-eabi/4.8.2/../../../../arm-none-eabi/lib/thumb/libstdc++.a(eh_alloc.o)
                0x00000000020299fc                __cxa_allocate_dependent_exception
 .text.__cxa_free_dependent_exception
                0x0000000002029a5c       0x3c /home/linux/devkitPro/devkitARM/bin/../lib/gcc/arm-none-eabi/4.8.2/../../../../arm-none-eabi/lib/thumb/libstdc++.a(eh_alloc.o)
                0x0000000002029a5c                __cxa_free_dependent_exception
 .text._ZNKSt9bad_alloc4whatEv
                0x0000000002029a98        0x8 /home/linux/devkitPro/devkitARM/bin/../lib/gcc/arm-none-eabi/4.8.2/../../../../arm-none-eabi/lib/thumb/libstdc++.a(bad_alloc.o)
                0x0000000002029a98                std::bad_alloc::what() const
 .text._ZNSt9bad_allocD2Ev
                0x0000000002029aa0       0x1c /home/linux/devkitPro/devkitARM/bin/../lib/gcc/arm-none-eabi/4.8.2/../../../../arm-none-eabi/lib/thumb/libstdc++.a(bad_alloc.o)
                0x0000000002029aa0                std::bad_alloc::~bad_alloc()
                0x0000000002029aa0                std::bad_alloc::~bad_alloc()
 .text._ZNSt9bad_allocD0Ev
                0x0000000002029abc       0x20 /home/linux/devkitPro/devkitARM/bin/../lib/gcc/arm-none-eabi/4.8.2/../../../../arm-none-eabi/lib/thumb/libstdc++.a(bad_alloc.o)
                0x0000000002029abc                std::bad_alloc::~bad_alloc()
 .text._ZdaPv   0x0000000002029adc        0xc /home/linux/devkitPro/devkitARM/bin/../lib/gcc/arm-none-eabi/4.8.2/../../../../arm-none-eabi/lib/thumb/libstdc++.a(del_opv.o)
                0x0000000002029adc                operator delete[](void*)
 .text._ZNK10__cxxabiv117__class_type_info11__do_upcastEPKS0_PPv
                0x0000000002029ae8       0x40 /home/linux/devkitPro/devkitARM/bin/../lib/gcc/arm-none-eabi/4.8.2/../../../../arm-none-eabi/lib/thumb/libstdc++.a(class_type_info.o)
                0x0000000002029ae8                __cxxabiv1::__class_type_info::__do_upcast(__cxxabiv1::__class_type_info const*, void**) const
 .text._ZNK10__cxxabiv117__class_type_info20__do_find_public_srcEiPKvPKS0_S2_
                0x0000000002029b28       0x14 /home/linux/devkitPro/devkitARM/bin/../lib/gcc/arm-none-eabi/4.8.2/../../../../arm-none-eabi/lib/thumb/libstdc++.a(class_type_info.o)
                0x0000000002029b28                __cxxabiv1::__class_type_info::__do_find_public_src(int, void const*, __cxxabiv1::__class_type_info const*, void const*) const
 .text._ZN10__cxxabiv117__class_type_infoD2Ev
                0x0000000002029b3c       0x1c /home/linux/devkitPro/devkitARM/bin/../lib/gcc/arm-none-eabi/4.8.2/../../../../arm-none-eabi/lib/thumb/libstdc++.a(class_type_info.o)
                0x0000000002029b3c                __cxxabiv1::__class_type_info::~__class_type_info()
                0x0000000002029b3c                __cxxabiv1::__class_type_info::~__class_type_info()
 .text._ZN10__cxxabiv117__class_type_infoD0Ev
                0x0000000002029b58       0x20 /home/linux/devkitPro/devkitARM/bin/../lib/gcc/arm-none-eabi/4.8.2/../../../../arm-none-eabi/lib/thumb/libstdc++.a(class_type_info.o)
                0x0000000002029b58                __cxxabiv1::__class_type_info::~__class_type_info()
 .text._ZNK10__cxxabiv117__class_type_info11__do_upcastEPKS0_PKvRNS0_15__upcast_resultE
                0x0000000002029b78       0x20 /home/linux/devkitPro/devkitARM/bin/../lib/gcc/arm-none-eabi/4.8.2/../../../../arm-none-eabi/lib/thumb/libstdc++.a(class_type_info.o)
                0x0000000002029b78                __cxxabiv1::__class_type_info::__do_upcast(__cxxabiv1::__class_type_info const*, void const*, __cxxabiv1::__class_type_info::__upcast_result&) const
 .text._ZNK10__cxxabiv117__class_type_info10__do_catchEPKSt9type_infoPPvj
                0x0000000002029b98       0x30 /home/linux/devkitPro/devkitARM/bin/../lib/gcc/arm-none-eabi/4.8.2/../../../../arm-none-eabi/lib/thumb/libstdc++.a(class_type_info.o)
                0x0000000002029b98                __cxxabiv1::__class_type_info::__do_catch(std::type_info const*, void**, unsigned int) const
 .text._ZNK10__cxxabiv117__class_type_info12__do_dyncastEiNS0_10__sub_kindEPKS0_PKvS3_S5_RNS0_16__dyncast_resultE
                0x0000000002029bc8       0x44 /home/linux/devkitPro/devkitARM/bin/../lib/gcc/arm-none-eabi/4.8.2/../../../../arm-none-eabi/lib/thumb/libstdc++.a(class_type_info.o)
                0x0000000002029bc8                __cxxabiv1::__class_type_info::__do_dyncast(int, __cxxabiv1::__class_type_info::__sub_kind, __cxxabiv1::__class_type_info const*, void const*, __cxxabiv1::__class_type_info const*, void const*, __cxxabiv1::__class_type_info::__dyncast_result&) const
 .text._ZSt15set_new_handlerPFvvE
                0x0000000002029c0c       0x10 /home/linux/devkitPro/devkitARM/bin/../lib/gcc/arm-none-eabi/4.8.2/../../../../arm-none-eabi/lib/thumb/libstdc++.a(new_handler.o)
                0x0000000002029c0c                std::set_new_handler(void (*)())
 .text._ZNKSs4dataEv
                0x0000000002029c1c        0x4 /home/linux/devkitPro/devkitARM/bin/../lib/gcc/arm-none-eabi/4.8.2/../../../../arm-none-eabi/lib/thumb/libstdc++.a(string-inst.o)
                0x0000000002029c1c                std::string::data() const
 .text._ZNKSs6lengthEv
                0x0000000002029c20        0x8 /home/linux/devkitPro/devkitARM/bin/../lib/gcc/arm-none-eabi/4.8.2/../../../../arm-none-eabi/lib/thumb/libstdc++.a(string-inst.o)
                0x0000000002029c20                std::string::length() const
 .text._ZNKSs7_M_dataEv
                0x0000000002029c28        0x4 /home/linux/devkitPro/devkitARM/bin/../lib/gcc/arm-none-eabi/4.8.2/../../../../arm-none-eabi/lib/thumb/libstdc++.a(string-inst.o)
                0x0000000002029c28                std::string::_M_data() const
 .text._ZNSs7_M_dataEPc
                0x0000000002029c2c        0x8 /home/linux/devkitPro/devkitARM/bin/../lib/gcc/arm-none-eabi/4.8.2/../../../../arm-none-eabi/lib/thumb/libstdc++.a(string-inst.o)
                0x0000000002029c2c                std::string::_M_data(char*)
 .text._ZNKSs6_M_repEv
                0x0000000002029c34        0x8 /home/linux/devkitPro/devkitARM/bin/../lib/gcc/arm-none-eabi/4.8.2/../../../../arm-none-eabi/lib/thumb/libstdc++.a(string-inst.o)
                0x0000000002029c34                std::string::_M_rep() const
 .text._ZNKSs9_M_ibeginEv
                0x0000000002029c3c        0x4 /home/linux/devkitPro/devkitARM/bin/../lib/gcc/arm-none-eabi/4.8.2/../../../../arm-none-eabi/lib/thumb/libstdc++.a(string-inst.o)
                0x0000000002029c3c                std::string::_M_ibegin() const
 .text._ZNKSs7_M_iendEv
                0x0000000002029c40        0xc /home/linux/devkitPro/devkitARM/bin/../lib/gcc/arm-none-eabi/4.8.2/../../../../arm-none-eabi/lib/thumb/libstdc++.a(string-inst.o)
                0x0000000002029c40                std::string::_M_iend() const
 .text._ZNKSs8_M_checkEjPKc
                0x0000000002029c4c       0x1c /home/linux/devkitPro/devkitARM/bin/../lib/gcc/arm-none-eabi/4.8.2/../../../../arm-none-eabi/lib/thumb/libstdc++.a(string-inst.o)
                0x0000000002029c4c                std::string::_M_check(unsigned int, char const*) const
 .text._ZNKSs15_M_check_lengthEjjPKc
                0x0000000002029c68       0x24 /home/linux/devkitPro/devkitARM/bin/../lib/gcc/arm-none-eabi/4.8.2/../../../../arm-none-eabi/lib/thumb/libstdc++.a(string-inst.o)
                0x0000000002029c68                std::string::_M_check_length(unsigned int, unsigned int, char const*) const
 .text._ZNKSs8_M_limitEjj
                0x0000000002029c8c       0x14 /home/linux/devkitPro/devkitARM/bin/../lib/gcc/arm-none-eabi/4.8.2/../../../../arm-none-eabi/lib/thumb/libstdc++.a(string-inst.o)
                0x0000000002029c8c                std::string::_M_limit(unsigned int, unsigned int) const
 .text._ZNKSs11_M_disjunctEPKc
                0x0000000002029ca0       0x1c /home/linux/devkitPro/devkitARM/bin/../lib/gcc/arm-none-eabi/4.8.2/../../../../arm-none-eabi/lib/thumb/libstdc++.a(string-inst.o)
                0x0000000002029ca0                std::string::_M_disjunct(char const*) const
 .text._ZNSs7_M_copyEPcPKcj
                0x0000000002029cbc       0x18 /home/linux/devkitPro/devkitARM/bin/../lib/gcc/arm-none-eabi/4.8.2/../../../../arm-none-eabi/lib/thumb/libstdc++.a(string-inst.o)
                0x0000000002029cbc                std::string::_M_copy(char*, char const*, unsigned int)
 .text._ZNSs7_M_moveEPcPKcj
                0x0000000002029cd4       0x18 /home/linux/devkitPro/devkitARM/bin/../lib/gcc/arm-none-eabi/4.8.2/../../../../arm-none-eabi/lib/thumb/libstdc++.a(string-inst.o)
                0x0000000002029cd4                std::string::_M_move(char*, char const*, unsigned int)
 .text._ZNSs9_M_assignEPcjc
                0x0000000002029cec       0x1c /home/linux/devkitPro/devkitARM/bin/../lib/gcc/arm-none-eabi/4.8.2/../../../../arm-none-eabi/lib/thumb/libstdc++.a(string-inst.o)
                0x0000000002029cec                std::string::_M_assign(char*, unsigned int, char)
 .text._ZNSs13_S_copy_charsEPcN9__gnu_cxx17__normal_iteratorIS_SsEES2_
                0x0000000002029d08       0x18 /home/linux/devkitPro/devkitARM/bin/../lib/gcc/arm-none-eabi/4.8.2/../../../../arm-none-eabi/lib/thumb/libstdc++.a(string-inst.o)
                0x0000000002029d08                std::string::_S_copy_chars(char*, __gnu_cxx::__normal_iterator<char*, std::string>, __gnu_cxx::__normal_iterator<char*, std::string>)
 .text._ZNSs13_S_copy_charsEPcN9__gnu_cxx17__normal_iteratorIPKcSsEES4_
                0x0000000002029d20       0x18 /home/linux/devkitPro/devkitARM/bin/../lib/gcc/arm-none-eabi/4.8.2/../../../../arm-none-eabi/lib/thumb/libstdc++.a(string-inst.o)
                0x0000000002029d20                std::string::_S_copy_chars(char*, __gnu_cxx::__normal_iterator<char const*, std::string>, __gnu_cxx::__normal_iterator<char const*, std::string>)
 .text._ZNSs13_S_copy_charsEPcS_S_
                0x0000000002029d38       0x18 /home/linux/devkitPro/devkitARM/bin/../lib/gcc/arm-none-eabi/4.8.2/../../../../arm-none-eabi/lib/thumb/libstdc++.a(string-inst.o)
                0x0000000002029d38                std::string::_S_copy_chars(char*, char*, char*)
 .text._ZNSs13_S_copy_charsEPcPKcS1_
                0x0000000002029d50       0x18 /home/linux/devkitPro/devkitARM/bin/../lib/gcc/arm-none-eabi/4.8.2/../../../../arm-none-eabi/lib/thumb/libstdc++.a(string-inst.o)
                0x0000000002029d50                std::string::_S_copy_chars(char*, char const*, char const*)
 .text._ZNSs10_S_compareEjj
                0x0000000002029d68        0x4 /home/linux/devkitPro/devkitARM/bin/../lib/gcc/arm-none-eabi/4.8.2/../../../../arm-none-eabi/lib/thumb/libstdc++.a(string-inst.o)
                0x0000000002029d68                std::string::_S_compare(unsigned int, unsigned int)
 .text._ZNSs12_S_empty_repEv
                0x0000000002029d6c        0x8 /home/linux/devkitPro/devkitARM/bin/../lib/gcc/arm-none-eabi/4.8.2/../../../../arm-none-eabi/lib/thumb/libstdc++.a(string-inst.o)
                0x0000000002029d6c                std::string::_S_empty_rep()
 .text._ZNSsC2Ev
                0x0000000002029d74        0xc /home/linux/devkitPro/devkitARM/bin/../lib/gcc/arm-none-eabi/4.8.2/../../../../arm-none-eabi/lib/thumb/libstdc++.a(string-inst.o)
                0x0000000002029d74                std::basic_string<char, std::char_traits<char>, std::allocator<char> >::basic_string()
                0x0000000002029d74                std::basic_string<char, std::char_traits<char>, std::allocator<char> >::basic_string()
 .text._ZNSsC2EOSs
                0x0000000002029d80       0x10 /home/linux/devkitPro/devkitARM/bin/../lib/gcc/arm-none-eabi/4.8.2/../../../../arm-none-eabi/lib/thumb/libstdc++.a(string-inst.o)
                0x0000000002029d80                std::basic_string<char, std::char_traits<char>, std::allocator<char> >::basic_string(std::string&&)
                0x0000000002029d80                std::basic_string<char, std::char_traits<char>, std::allocator<char> >::basic_string(std::string&&)
 .text._ZNKSs5beginEv
                0x0000000002029d90        0x4 /home/linux/devkitPro/devkitARM/bin/../lib/gcc/arm-none-eabi/4.8.2/../../../../arm-none-eabi/lib/thumb/libstdc++.a(string-inst.o)
                0x0000000002029d90                std::string::begin() const
 .text._ZNKSs3endEv
                0x0000000002029d94        0xc /home/linux/devkitPro/devkitARM/bin/../lib/gcc/arm-none-eabi/4.8.2/../../../../arm-none-eabi/lib/thumb/libstdc++.a(string-inst.o)
                0x0000000002029d94                std::string::end() const
 .text._ZNKSs6rbeginEv
                0x0000000002029da0       0x10 /home/linux/devkitPro/devkitARM/bin/../lib/gcc/arm-none-eabi/4.8.2/../../../../arm-none-eabi/lib/thumb/libstdc++.a(string-inst.o)
                0x0000000002029da0                std::string::rbegin() const
 .text._ZNKSs4rendEv
                0x0000000002029db0        0x8 /home/linux/devkitPro/devkitARM/bin/../lib/gcc/arm-none-eabi/4.8.2/../../../../arm-none-eabi/lib/thumb/libstdc++.a(string-inst.o)
                0x0000000002029db0                std::string::rend() const
 .text._ZNKSs6cbeginEv
                0x0000000002029db8        0x4 /home/linux/devkitPro/devkitARM/bin/../lib/gcc/arm-none-eabi/4.8.2/../../../../arm-none-eabi/lib/thumb/libstdc++.a(string-inst.o)
                0x0000000002029db8                std::string::cbegin() const
 .text._ZNKSs4cendEv
                0x0000000002029dbc        0xc /home/linux/devkitPro/devkitARM/bin/../lib/gcc/arm-none-eabi/4.8.2/../../../../arm-none-eabi/lib/thumb/libstdc++.a(string-inst.o)
                0x0000000002029dbc                std::string::cend() const
 .text._ZNKSs7crbeginEv
                0x0000000002029dc8       0x10 /home/linux/devkitPro/devkitARM/bin/../lib/gcc/arm-none-eabi/4.8.2/../../../../arm-none-eabi/lib/thumb/libstdc++.a(string-inst.o)
                0x0000000002029dc8                std::string::crbegin() const
 .text._ZNKSs5crendEv
                0x0000000002029dd8        0x8 /home/linux/devkitPro/devkitARM/bin/../lib/gcc/arm-none-eabi/4.8.2/../../../../arm-none-eabi/lib/thumb/libstdc++.a(string-inst.o)
                0x0000000002029dd8                std::string::crend() const
 .text._ZNKSs4sizeEv
                0x0000000002029de0        0x8 /home/linux/devkitPro/devkitARM/bin/../lib/gcc/arm-none-eabi/4.8.2/../../../../arm-none-eabi/lib/thumb/libstdc++.a(string-inst.o)
                0x0000000002029de0                std::string::size() const
 .text._ZNKSs8max_sizeEv
                0x0000000002029de8        0x8 /home/linux/devkitPro/devkitARM/bin/../lib/gcc/arm-none-eabi/4.8.2/../../../../arm-none-eabi/lib/thumb/libstdc++.a(string-inst.o)
                0x0000000002029de8                std::string::max_size() const
 .text._ZNKSs8capacityEv
                0x0000000002029df0        0x8 /home/linux/devkitPro/devkitARM/bin/../lib/gcc/arm-none-eabi/4.8.2/../../../../arm-none-eabi/lib/thumb/libstdc++.a(string-inst.o)
                0x0000000002029df0                std::string::capacity() const
 .text._ZNKSs5emptyEv
                0x0000000002029df8        0xc /home/linux/devkitPro/devkitARM/bin/../lib/gcc/arm-none-eabi/4.8.2/../../../../arm-none-eabi/lib/thumb/libstdc++.a(string-inst.o)
                0x0000000002029df8                std::string::empty() const
 .text._ZNKSsixEj
                0x0000000002029e04        0x8 /home/linux/devkitPro/devkitARM/bin/../lib/gcc/arm-none-eabi/4.8.2/../../../../arm-none-eabi/lib/thumb/libstdc++.a(string-inst.o)
                0x0000000002029e04                std::string::operator[](unsigned int) const
 .text._ZNKSs2atEj
                0x0000000002029e0c       0x20 /home/linux/devkitPro/devkitARM/bin/../lib/gcc/arm-none-eabi/4.8.2/../../../../arm-none-eabi/lib/thumb/libstdc++.a(string-inst.o)
                0x0000000002029e0c                std::string::at(unsigned int) const
 .text._ZNKSs5frontEv
                0x0000000002029e2c        0x4 /home/linux/devkitPro/devkitARM/bin/../lib/gcc/arm-none-eabi/4.8.2/../../../../arm-none-eabi/lib/thumb/libstdc++.a(string-inst.o)
                0x0000000002029e2c                std::string::front() const
 .text._ZNKSs4backEv
                0x0000000002029e30       0x10 /home/linux/devkitPro/devkitARM/bin/../lib/gcc/arm-none-eabi/4.8.2/../../../../arm-none-eabi/lib/thumb/libstdc++.a(string-inst.o)
                0x0000000002029e30                std::string::back() const
 .text._ZNKSs4copyEPcjj
                0x0000000002029e40       0x44 /home/linux/devkitPro/devkitARM/bin/../lib/gcc/arm-none-eabi/4.8.2/../../../../arm-none-eabi/lib/thumb/libstdc++.a(string-inst.o)
                0x0000000002029e40                std::string::copy(char*, unsigned int, unsigned int) const
 .text._ZNSs4swapERSs
                0x0000000002029e84       0x30 /home/linux/devkitPro/devkitARM/bin/../lib/gcc/arm-none-eabi/4.8.2/../../../../arm-none-eabi/lib/thumb/libstdc++.a(string-inst.o)
                0x0000000002029e84                std::string::swap(std::string&)
 .text._ZNSsaSEOSs
                0x0000000002029eb4       0x10 /home/linux/devkitPro/devkitARM/bin/../lib/gcc/arm-none-eabi/4.8.2/../../../../arm-none-eabi/lib/thumb/libstdc++.a(string-inst.o)
                0x0000000002029eb4                std::string::operator=(std::string&&)
 .text._ZNSs6assignEOSs
                0x0000000002029ec4       0x10 /home/linux/devkitPro/devkitARM/bin/../lib/gcc/arm-none-eabi/4.8.2/../../../../arm-none-eabi/lib/thumb/libstdc++.a(string-inst.o)
                0x0000000002029ec4                std::string::assign(std::string&&)
 .text._ZNKSs5c_strEv
                0x0000000002029ed4        0x4 /home/linux/devkitPro/devkitARM/bin/../lib/gcc/arm-none-eabi/4.8.2/../../../../arm-none-eabi/lib/thumb/libstdc++.a(string-inst.o)
                0x0000000002029ed4                std::string::c_str() const
 .text._ZNKSs13get_allocatorEv
                0x0000000002029ed8        0x4 /home/linux/devkitPro/devkitARM/bin/../lib/gcc/arm-none-eabi/4.8.2/../../../../arm-none-eabi/lib/thumb/libstdc++.a(string-inst.o)
                0x0000000002029ed8                std::string::get_allocator() const
 .text._ZNKSs4findEPKcjj
                0x0000000002029edc       0x74 /home/linux/devkitPro/devkitARM/bin/../lib/gcc/arm-none-eabi/4.8.2/../../../../arm-none-eabi/lib/thumb/libstdc++.a(string-inst.o)
                0x0000000002029edc                std::string::find(char const*, unsigned int, unsigned int) const
 .text._ZNKSs4findERKSsj
                0x0000000002029f50       0x14 /home/linux/devkitPro/devkitARM/bin/../lib/gcc/arm-none-eabi/4.8.2/../../../../arm-none-eabi/lib/thumb/libstdc++.a(string-inst.o)
                0x0000000002029f50                std::string::find(std::string const&, unsigned int) const
 .text._ZNKSs4findEPKcj
                0x0000000002029f64       0x20 /home/linux/devkitPro/devkitARM/bin/../lib/gcc/arm-none-eabi/4.8.2/../../../../arm-none-eabi/lib/thumb/libstdc++.a(string-inst.o)
                0x0000000002029f64                std::string::find(char const*, unsigned int) const
 .text._ZNKSs4findEcj
                0x0000000002029f84       0x28 /home/linux/devkitPro/devkitARM/bin/../lib/gcc/arm-none-eabi/4.8.2/../../../../arm-none-eabi/lib/thumb/libstdc++.a(string-inst.o)
                0x0000000002029f84                std::string::find(char, unsigned int) const
 .text._ZNKSs5rfindEPKcjj
                0x0000000002029fac       0x4c /home/linux/devkitPro/devkitARM/bin/../lib/gcc/arm-none-eabi/4.8.2/../../../../arm-none-eabi/lib/thumb/libstdc++.a(string-inst.o)
                0x0000000002029fac                std::string::rfind(char const*, unsigned int, unsigned int) const
 .text._ZNKSs5rfindERKSsj
                0x0000000002029ff8       0x14 /home/linux/devkitPro/devkitARM/bin/../lib/gcc/arm-none-eabi/4.8.2/../../../../arm-none-eabi/lib/thumb/libstdc++.a(string-inst.o)
                0x0000000002029ff8                std::string::rfind(std::string const&, unsigned int) const
 .text._ZNKSs5rfindEPKcj
                0x000000000202a00c       0x20 /home/linux/devkitPro/devkitARM/bin/../lib/gcc/arm-none-eabi/4.8.2/../../../../arm-none-eabi/lib/thumb/libstdc++.a(string-inst.o)
                0x000000000202a00c                std::string::rfind(char const*, unsigned int) const
 .text._ZNKSs5rfindEcj
                0x000000000202a02c       0x38 /home/linux/devkitPro/devkitARM/bin/../lib/gcc/arm-none-eabi/4.8.2/../../../../arm-none-eabi/lib/thumb/libstdc++.a(string-inst.o)
                0x000000000202a02c                std::string::rfind(char, unsigned int) const
 .text._ZNKSs13find_first_ofEPKcjj
                0x000000000202a064       0x48 /home/linux/devkitPro/devkitARM/bin/../lib/gcc/arm-none-eabi/4.8.2/../../../../arm-none-eabi/lib/thumb/libstdc++.a(string-inst.o)
                0x000000000202a064                std::string::find_first_of(char const*, unsigned int, unsigned int) const
 .text._ZNKSs13find_first_ofERKSsj
                0x000000000202a0ac       0x14 /home/linux/devkitPro/devkitARM/bin/../lib/gcc/arm-none-eabi/4.8.2/../../../../arm-none-eabi/lib/thumb/libstdc++.a(string-inst.o)
                0x000000000202a0ac                std::string::find_first_of(std::string const&, unsigned int) const
 .text._ZNKSs13find_first_ofEPKcj
                0x000000000202a0c0       0x20 /home/linux/devkitPro/devkitARM/bin/../lib/gcc/arm-none-eabi/4.8.2/../../../../arm-none-eabi/lib/thumb/libstdc++.a(string-inst.o)
                0x000000000202a0c0                std::string::find_first_of(char const*, unsigned int) const
 .text._ZNKSs13find_first_ofEcj
                0x000000000202a0e0        0xc /home/linux/devkitPro/devkitARM/bin/../lib/gcc/arm-none-eabi/4.8.2/../../../../arm-none-eabi/lib/thumb/libstdc++.a(string-inst.o)
                0x000000000202a0e0                std::string::find_first_of(char, unsigned int) const
 .text._ZNKSs12find_last_ofEPKcjj
                0x000000000202a0ec       0x5c /home/linux/devkitPro/devkitARM/bin/../lib/gcc/arm-none-eabi/4.8.2/../../../../arm-none-eabi/lib/thumb/libstdc++.a(string-inst.o)
                0x000000000202a0ec                std::string::find_last_of(char const*, unsigned int, unsigned int) const
 .text._ZNKSs12find_last_ofERKSsj
                0x000000000202a148       0x14 /home/linux/devkitPro/devkitARM/bin/../lib/gcc/arm-none-eabi/4.8.2/../../../../arm-none-eabi/lib/thumb/libstdc++.a(string-inst.o)
                0x000000000202a148                std::string::find_last_of(std::string const&, unsigned int) const
 .text._ZNKSs12find_last_ofEPKcj
                0x000000000202a15c       0x20 /home/linux/devkitPro/devkitARM/bin/../lib/gcc/arm-none-eabi/4.8.2/../../../../arm-none-eabi/lib/thumb/libstdc++.a(string-inst.o)
                0x000000000202a15c                std::string::find_last_of(char const*, unsigned int) const
 .text._ZNKSs12find_last_ofEcj
                0x000000000202a17c        0xc /home/linux/devkitPro/devkitARM/bin/../lib/gcc/arm-none-eabi/4.8.2/../../../../arm-none-eabi/lib/thumb/libstdc++.a(string-inst.o)
                0x000000000202a17c                std::string::find_last_of(char, unsigned int) const
 .text._ZNKSs17find_first_not_ofEPKcjj
                0x000000000202a188       0x40 /home/linux/devkitPro/devkitARM/bin/../lib/gcc/arm-none-eabi/4.8.2/../../../../arm-none-eabi/lib/thumb/libstdc++.a(string-inst.o)
                0x000000000202a188                std::string::find_first_not_of(char const*, unsigned int, unsigned int) const
 .text._ZNKSs17find_first_not_ofERKSsj
                0x000000000202a1c8       0x14 /home/linux/devkitPro/devkitARM/bin/../lib/gcc/arm-none-eabi/4.8.2/../../../../arm-none-eabi/lib/thumb/libstdc++.a(string-inst.o)
                0x000000000202a1c8                std::string::find_first_not_of(std::string const&, unsigned int) const
 .text._ZNKSs17find_first_not_ofEPKcj
                0x000000000202a1dc       0x20 /home/linux/devkitPro/devkitARM/bin/../lib/gcc/arm-none-eabi/4.8.2/../../../../arm-none-eabi/lib/thumb/libstdc++.a(string-inst.o)
                0x000000000202a1dc                std::string::find_first_not_of(char const*, unsigned int) const
 .text._ZNKSs17find_first_not_ofEcj
                0x000000000202a1fc       0x30 /home/linux/devkitPro/devkitARM/bin/../lib/gcc/arm-none-eabi/4.8.2/../../../../arm-none-eabi/lib/thumb/libstdc++.a(string-inst.o)
                0x000000000202a1fc                std::string::find_first_not_of(char, unsigned int) const
 .text._ZNKSs16find_last_not_ofEPKcjj
                0x000000000202a22c       0x58 /home/linux/devkitPro/devkitARM/bin/../lib/gcc/arm-none-eabi/4.8.2/../../../../arm-none-eabi/lib/thumb/libstdc++.a(string-inst.o)
                0x000000000202a22c                std::string::find_last_not_of(char const*, unsigned int, unsigned int) const
 .text._ZNKSs16find_last_not_ofERKSsj
                0x000000000202a284       0x14 /home/linux/devkitPro/devkitARM/bin/../lib/gcc/arm-none-eabi/4.8.2/../../../../arm-none-eabi/lib/thumb/libstdc++.a(string-inst.o)
                0x000000000202a284                std::string::find_last_not_of(std::string const&, unsigned int) const
 .text._ZNKSs16find_last_not_ofEPKcj
                0x000000000202a298       0x20 /home/linux/devkitPro/devkitARM/bin/../lib/gcc/arm-none-eabi/4.8.2/../../../../arm-none-eabi/lib/thumb/libstdc++.a(string-inst.o)
                0x000000000202a298                std::string::find_last_not_of(char const*, unsigned int) const
 .text._ZNKSs16find_last_not_ofEcj
                0x000000000202a2b8       0x34 /home/linux/devkitPro/devkitARM/bin/../lib/gcc/arm-none-eabi/4.8.2/../../../../arm-none-eabi/lib/thumb/libstdc++.a(string-inst.o)
                0x000000000202a2b8                std::string::find_last_not_of(char, unsigned int) const
 .text._ZNKSs7compareERKSs
                0x000000000202a2ec       0x2c /home/linux/devkitPro/devkitARM/bin/../lib/gcc/arm-none-eabi/4.8.2/../../../../arm-none-eabi/lib/thumb/libstdc++.a(string-inst.o)
                0x000000000202a2ec                std::string::compare(std::string const&) const
 .text._ZNKSs7compareEjjRKSs
                0x000000000202a318       0x58 /home/linux/devkitPro/devkitARM/bin/../lib/gcc/arm-none-eabi/4.8.2/../../../../arm-none-eabi/lib/thumb/libstdc++.a(string-inst.o)
                0x000000000202a318                std::string::compare(unsigned int, unsigned int, std::string const&) const
 .text._ZNKSs7compareEjjRKSsjj
                0x000000000202a370       0x6c /home/linux/devkitPro/devkitARM/bin/../lib/gcc/arm-none-eabi/4.8.2/../../../../arm-none-eabi/lib/thumb/libstdc++.a(string-inst.o)
                0x000000000202a370                std::string::compare(unsigned int, unsigned int, std::string const&, unsigned int, unsigned int) const
 .text._ZNKSs7compareEPKc
                0x000000000202a3dc       0x30 /home/linux/devkitPro/devkitARM/bin/../lib/gcc/arm-none-eabi/4.8.2/../../../../arm-none-eabi/lib/thumb/libstdc++.a(string-inst.o)
                0x000000000202a3dc                std::string::compare(char const*) const
 .text._ZNKSs7compareEjjPKc
                0x000000000202a40c       0x64 /home/linux/devkitPro/devkitARM/bin/../lib/gcc/arm-none-eabi/4.8.2/../../../../arm-none-eabi/lib/thumb/libstdc++.a(string-inst.o)
                0x000000000202a40c                std::string::compare(unsigned int, unsigned int, char const*) const
 .text._ZNKSs7compareEjjPKcj
                0x000000000202a470       0x4c /home/linux/devkitPro/devkitARM/bin/../lib/gcc/arm-none-eabi/4.8.2/../../../../arm-none-eabi/lib/thumb/libstdc++.a(string-inst.o)
                0x000000000202a470                std::string::compare(unsigned int, unsigned int, char const*, unsigned int) const
 .text._ZNSs12_Alloc_hiderC2EPcRKSaIcE
                0x000000000202a4bc        0x4 /home/linux/devkitPro/devkitARM/bin/../lib/gcc/arm-none-eabi/4.8.2/../../../../arm-none-eabi/lib/thumb/libstdc++.a(string-inst.o)
                0x000000000202a4bc                std::string::_Alloc_hider::_Alloc_hider(char*, std::allocator<char> const&)
                0x000000000202a4bc                std::string::_Alloc_hider::_Alloc_hider(char*, std::allocator<char> const&)
 .text._ZNSs4_Rep12_S_empty_repEv
                0x000000000202a4c0        0x8 /home/linux/devkitPro/devkitARM/bin/../lib/gcc/arm-none-eabi/4.8.2/../../../../arm-none-eabi/lib/thumb/libstdc++.a(string-inst.o)
                0x000000000202a4c0                std::string::_Rep::_S_empty_rep()
 .text._ZNKSs4_Rep12_M_is_leakedEv
                0x000000000202a4c8        0x8 /home/linux/devkitPro/devkitARM/bin/../lib/gcc/arm-none-eabi/4.8.2/../../../../arm-none-eabi/lib/thumb/libstdc++.a(string-inst.o)
                0x000000000202a4c8                std::string::_Rep::_M_is_leaked() const
 .text._ZNKSs4_Rep12_M_is_sharedEv
                0x000000000202a4d0        0xc /home/linux/devkitPro/devkitARM/bin/../lib/gcc/arm-none-eabi/4.8.2/../../../../arm-none-eabi/lib/thumb/libstdc++.a(string-inst.o)
                0x000000000202a4d0                std::string::_Rep::_M_is_shared() const
 .text._ZNSs4_Rep13_M_set_leakedEv
                0x000000000202a4dc        0x8 /home/linux/devkitPro/devkitARM/bin/../lib/gcc/arm-none-eabi/4.8.2/../../../../arm-none-eabi/lib/thumb/libstdc++.a(string-inst.o)
                0x000000000202a4dc                std::string::_Rep::_M_set_leaked()
 .text._ZNSs4_Rep15_M_set_sharableEv
                0x000000000202a4e4        0x8 /home/linux/devkitPro/devkitARM/bin/../lib/gcc/arm-none-eabi/4.8.2/../../../../arm-none-eabi/lib/thumb/libstdc++.a(string-inst.o)
                0x000000000202a4e4                std::string::_Rep::_M_set_sharable()
 .text._ZNSs4_Rep26_M_set_length_and_sharableEj
                0x000000000202a4ec       0x1c /home/linux/devkitPro/devkitARM/bin/../lib/gcc/arm-none-eabi/4.8.2/../../../../arm-none-eabi/lib/thumb/libstdc++.a(string-inst.o)
                0x000000000202a4ec                std::string::_Rep::_M_set_length_and_sharable(unsigned int)
 .text._ZNSs4_Rep10_M_refdataEv
                0x000000000202a508        0x4 /home/linux/devkitPro/devkitARM/bin/../lib/gcc/arm-none-eabi/4.8.2/../../../../arm-none-eabi/lib/thumb/libstdc++.a(string-inst.o)
                0x000000000202a508                std::string::_Rep::_M_refdata()
 .text._ZNSs4_Rep9_S_createEjjRKSaIcE
                0x000000000202a50c       0x60 /home/linux/devkitPro/devkitARM/bin/../lib/gcc/arm-none-eabi/4.8.2/../../../../arm-none-eabi/lib/thumb/libstdc++.a(string-inst.o)
                0x000000000202a50c                std::string::_Rep::_S_create(unsigned int, unsigned int, std::allocator<char> const&)
 .text._ZNSs12_S_constructEjcRKSaIcE
                0x000000000202a56c       0x4c /home/linux/devkitPro/devkitARM/bin/../lib/gcc/arm-none-eabi/4.8.2/../../../../arm-none-eabi/lib/thumb/libstdc++.a(string-inst.o)
                0x000000000202a56c                std::string::_S_construct(unsigned int, char, std::allocator<char> const&)
 .text._ZNSsC2ERKSaIcE
                0x000000000202a5b8       0x18 /home/linux/devkitPro/devkitARM/bin/../lib/gcc/arm-none-eabi/4.8.2/../../../../arm-none-eabi/lib/thumb/libstdc++.a(string-inst.o)
                0x000000000202a5b8                std::basic_string<char, std::char_traits<char>, std::allocator<char> >::basic_string(std::allocator<char> const&)
                0x000000000202a5b8                std::basic_string<char, std::char_traits<char>, std::allocator<char> >::basic_string(std::allocator<char> const&)
 .text._ZNSsC2EjcRKSaIcE
                0x000000000202a5d0       0x18 /home/linux/devkitPro/devkitARM/bin/../lib/gcc/arm-none-eabi/4.8.2/../../../../arm-none-eabi/lib/thumb/libstdc++.a(string-inst.o)
                0x000000000202a5d0                std::basic_string<char, std::char_traits<char>, std::allocator<char> >::basic_string(unsigned int, char, std::allocator<char> const&)
                0x000000000202a5d0                std::basic_string<char, std::char_traits<char>, std::allocator<char> >::basic_string(unsigned int, char, std::allocator<char> const&)
 .text._ZNSs18_S_construct_aux_2EjcRKSaIcE
                0x000000000202a5e8        0xc /home/linux/devkitPro/devkitARM/bin/../lib/gcc/arm-none-eabi/4.8.2/../../../../arm-none-eabi/lib/thumb/libstdc++.a(string-inst.o)
                0x000000000202a5e8                std::string::_S_construct_aux_2(unsigned int, char, std::allocator<char> const&)
 .text._ZNSs4_Rep10_M_destroyERKSaIcE
                0x000000000202a5f4        0xc /home/linux/devkitPro/devkitARM/bin/../lib/gcc/arm-none-eabi/4.8.2/../../../../arm-none-eabi/lib/thumb/libstdc++.a(string-inst.o)
                0x000000000202a5f4                std::string::_Rep::_M_destroy(std::allocator<char> const&)
 .text.unlikely._ZNSs4_Rep10_M_disposeERKSaIcE.part.11
                0x000000000202a600       0x18 /home/linux/devkitPro/devkitARM/bin/../lib/gcc/arm-none-eabi/4.8.2/../../../../arm-none-eabi/lib/thumb/libstdc++.a(string-inst.o)
 .text._ZNSs4_Rep10_M_disposeERKSaIcE
                0x000000000202a618       0x18 /home/linux/devkitPro/devkitARM/bin/../lib/gcc/arm-none-eabi/4.8.2/../../../../arm-none-eabi/lib/thumb/libstdc++.a(string-inst.o)
                0x000000000202a618                std::string::_Rep::_M_dispose(std::allocator<char> const&)
 .text._ZNSsD2Ev
                0x000000000202a630       0x28 /home/linux/devkitPro/devkitARM/bin/../lib/gcc/arm-none-eabi/4.8.2/../../../../arm-none-eabi/lib/thumb/libstdc++.a(string-inst.o)
                0x000000000202a630                std::basic_string<char, std::char_traits<char>, std::allocator<char> >::~basic_string()
                0x000000000202a630                std::basic_string<char, std::char_traits<char>, std::allocator<char> >::~basic_string()
 .text._ZNSs9_M_mutateEjjj
                0x000000000202a658      0x104 /home/linux/devkitPro/devkitARM/bin/../lib/gcc/arm-none-eabi/4.8.2/../../../../arm-none-eabi/lib/thumb/libstdc++.a(string-inst.o)
                0x000000000202a658                std::string::_M_mutate(unsigned int, unsigned int, unsigned int)
 .text._ZNSs12_M_leak_hardEv
                0x000000000202a75c       0x34 /home/linux/devkitPro/devkitARM/bin/../lib/gcc/arm-none-eabi/4.8.2/../../../../arm-none-eabi/lib/thumb/libstdc++.a(string-inst.o)
                0x000000000202a75c                std::string::_M_leak_hard()
 .text._ZNSs7_M_leakEv
                0x000000000202a790       0x18 /home/linux/devkitPro/devkitARM/bin/../lib/gcc/arm-none-eabi/4.8.2/../../../../arm-none-eabi/lib/thumb/libstdc++.a(string-inst.o)
                0x000000000202a790                std::string::_M_leak()
 .text._ZNSs5beginEv
                0x000000000202a7a8       0x20 /home/linux/devkitPro/devkitARM/bin/../lib/gcc/arm-none-eabi/4.8.2/../../../../arm-none-eabi/lib/thumb/libstdc++.a(string-inst.o)
                0x000000000202a7a8                std::string::begin()
 .text._ZNSs4rendEv
                0x000000000202a7c8       0x24 /home/linux/devkitPro/devkitARM/bin/../lib/gcc/arm-none-eabi/4.8.2/../../../../arm-none-eabi/lib/thumb/libstdc++.a(string-inst.o)
                0x000000000202a7c8                std::string::rend()
 .text._ZNSs3endEv
                0x000000000202a7ec       0x24 /home/linux/devkitPro/devkitARM/bin/../lib/gcc/arm-none-eabi/4.8.2/../../../../arm-none-eabi/lib/thumb/libstdc++.a(string-inst.o)
                0x000000000202a7ec                std::string::end()
 .text._ZNSsixEj
                0x000000000202a810       0x20 /home/linux/devkitPro/devkitARM/bin/../lib/gcc/arm-none-eabi/4.8.2/../../../../arm-none-eabi/lib/thumb/libstdc++.a(string-inst.o)
                0x000000000202a810                std::string::operator[](unsigned int)
 .text._ZNSs5frontEv
                0x000000000202a830       0x20 /home/linux/devkitPro/devkitARM/bin/../lib/gcc/arm-none-eabi/4.8.2/../../../../arm-none-eabi/lib/thumb/libstdc++.a(string-inst.o)
                0x000000000202a830                std::string::front()
 .text._ZNSs4backEv
                0x000000000202a850       0x24 /home/linux/devkitPro/devkitARM/bin/../lib/gcc/arm-none-eabi/4.8.2/../../../../arm-none-eabi/lib/thumb/libstdc++.a(string-inst.o)
                0x000000000202a850                std::string::back()
 .text._ZNSs2atEj
                0x000000000202a874       0x30 /home/linux/devkitPro/devkitARM/bin/../lib/gcc/arm-none-eabi/4.8.2/../../../../arm-none-eabi/lib/thumb/libstdc++.a(string-inst.o)
                0x000000000202a874                std::string::at(unsigned int)
 .text._ZNSs6rbeginEv
                0x000000000202a8a4       0x2c /home/linux/devkitPro/devkitARM/bin/../lib/gcc/arm-none-eabi/4.8.2/../../../../arm-none-eabi/lib/thumb/libstdc++.a(string-inst.o)
                0x000000000202a8a4                std::string::rbegin()
 .text._ZNSs5clearEv
                0x000000000202a8d0       0x18 /home/linux/devkitPro/devkitARM/bin/../lib/gcc/arm-none-eabi/4.8.2/../../../../arm-none-eabi/lib/thumb/libstdc++.a(string-inst.o)
                0x000000000202a8d0                std::string::clear()
 .text._ZNSs5eraseEjj
                0x000000000202a8e8       0x34 /home/linux/devkitPro/devkitARM/bin/../lib/gcc/arm-none-eabi/4.8.2/../../../../arm-none-eabi/lib/thumb/libstdc++.a(string-inst.o)
                0x000000000202a8e8                std::string::erase(unsigned int, unsigned int)
 .text._ZNSs5eraseEN9__gnu_cxx17__normal_iteratorIPcSsEE
                0x000000000202a91c       0x28 /home/linux/devkitPro/devkitARM/bin/../lib/gcc/arm-none-eabi/4.8.2/../../../../arm-none-eabi/lib/thumb/libstdc++.a(string-inst.o)
                0x000000000202a91c                std::string::erase(__gnu_cxx::__normal_iterator<char*, std::string>)
 .text._ZNSs5eraseEN9__gnu_cxx17__normal_iteratorIPcSsEES2_
                0x000000000202a944       0x30 /home/linux/devkitPro/devkitARM/bin/../lib/gcc/arm-none-eabi/4.8.2/../../../../arm-none-eabi/lib/thumb/libstdc++.a(string-inst.o)
                0x000000000202a944                std::string::erase(__gnu_cxx::__normal_iterator<char*, std::string>, __gnu_cxx::__normal_iterator<char*, std::string>)
 .text._ZNSs14_M_replace_auxEjjjc
                0x000000000202a974       0x54 /home/linux/devkitPro/devkitARM/bin/../lib/gcc/arm-none-eabi/4.8.2/../../../../arm-none-eabi/lib/thumb/libstdc++.a(string-inst.o)
                0x000000000202a974                std::string::_M_replace_aux(unsigned int, unsigned int, unsigned int, char)
 .text._ZNSs6assignEjc
                0x000000000202a9c8       0x1c /home/linux/devkitPro/devkitARM/bin/../lib/gcc/arm-none-eabi/4.8.2/../../../../arm-none-eabi/lib/thumb/libstdc++.a(string-inst.o)
                0x000000000202a9c8                std::string::assign(unsigned int, char)
 .text._ZNSsaSEc
                0x000000000202a9e4       0x20 /home/linux/devkitPro/devkitARM/bin/../lib/gcc/arm-none-eabi/4.8.2/../../../../arm-none-eabi/lib/thumb/libstdc++.a(string-inst.o)
                0x000000000202a9e4                std::string::operator=(char)
 .text._ZNSs6insertEjjc
                0x000000000202aa04       0x2c /home/linux/devkitPro/devkitARM/bin/../lib/gcc/arm-none-eabi/4.8.2/../../../../arm-none-eabi/lib/thumb/libstdc++.a(string-inst.o)
                0x000000000202aa04                std::string::insert(unsigned int, unsigned int, char)
 .text._ZNSs6insertEN9__gnu_cxx17__normal_iteratorIPcSsEEc
                0x000000000202aa30       0x2c /home/linux/devkitPro/devkitARM/bin/../lib/gcc/arm-none-eabi/4.8.2/../../../../arm-none-eabi/lib/thumb/libstdc++.a(string-inst.o)
                0x000000000202aa30                std::string::insert(__gnu_cxx::__normal_iterator<char*, std::string>, char)
 .text._ZNSs7replaceEjjjc
                0x000000000202aa5c       0x38 /home/linux/devkitPro/devkitARM/bin/../lib/gcc/arm-none-eabi/4.8.2/../../../../arm-none-eabi/lib/thumb/libstdc++.a(string-inst.o)
                0x000000000202aa5c                std::string::replace(unsigned int, unsigned int, unsigned int, char)
 .text._ZNSs7replaceEN9__gnu_cxx17__normal_iteratorIPcSsEES2_jc
                0x000000000202aa94       0x20 /home/linux/devkitPro/devkitARM/bin/../lib/gcc/arm-none-eabi/4.8.2/../../../../arm-none-eabi/lib/thumb/libstdc++.a(string-inst.o)
                0x000000000202aa94                std::string::replace(__gnu_cxx::__normal_iterator<char*, std::string>, __gnu_cxx::__normal_iterator<char*, std::string>, unsigned int, char)
 .text._ZNSs6insertEN9__gnu_cxx17__normal_iteratorIPcSsEEjc
                0x000000000202aab4       0x1c /home/linux/devkitPro/devkitARM/bin/../lib/gcc/arm-none-eabi/4.8.2/../../../../arm-none-eabi/lib/thumb/libstdc++.a(string-inst.o)
                0x000000000202aab4                std::string::insert(__gnu_cxx::__normal_iterator<char*, std::string>, unsigned int, char)
 .text._ZNSs15_M_replace_safeEjjPKcj
                0x000000000202aad0       0x34 /home/linux/devkitPro/devkitARM/bin/../lib/gcc/arm-none-eabi/4.8.2/../../../../arm-none-eabi/lib/thumb/libstdc++.a(string-inst.o)
                0x000000000202aad0                std::string::_M_replace_safe(unsigned int, unsigned int, char const*, unsigned int)
 .text._ZNSs6assignEPKcj
                0x000000000202ab04       0xa0 /home/linux/devkitPro/devkitARM/bin/../lib/gcc/arm-none-eabi/4.8.2/../../../../arm-none-eabi/lib/thumb/libstdc++.a(string-inst.o)
                0x000000000202ab04                std::string::assign(char const*, unsigned int)
 .text._ZNSsaSESt16initializer_listIcE
                0x000000000202aba4       0x14 /home/linux/devkitPro/devkitARM/bin/../lib/gcc/arm-none-eabi/4.8.2/../../../../arm-none-eabi/lib/thumb/libstdc++.a(string-inst.o)
                0x000000000202aba4                std::string::operator=(std::initializer_list<char>)
 .text._ZNSs6assignERKSsjj
                0x000000000202abb8       0x30 /home/linux/devkitPro/devkitARM/bin/../lib/gcc/arm-none-eabi/4.8.2/../../../../arm-none-eabi/lib/thumb/libstdc++.a(string-inst.o)
                0x000000000202abb8                std::string::assign(std::string const&, unsigned int, unsigned int)
 .text._ZNSs6assignEPKc
                0x000000000202abe8       0x1c /home/linux/devkitPro/devkitARM/bin/../lib/gcc/arm-none-eabi/4.8.2/../../../../arm-none-eabi/lib/thumb/libstdc++.a(string-inst.o)
                0x000000000202abe8                std::string::assign(char const*)
 .text._ZNSs6assignESt16initializer_listIcE
                0x000000000202ac04       0x10 /home/linux/devkitPro/devkitARM/bin/../lib/gcc/arm-none-eabi/4.8.2/../../../../arm-none-eabi/lib/thumb/libstdc++.a(string-inst.o)
                0x000000000202ac04                std::string::assign(std::initializer_list<char>)
 .text._ZNSsaSEPKc
                0x000000000202ac14       0x1c /home/linux/devkitPro/devkitARM/bin/../lib/gcc/arm-none-eabi/4.8.2/../../../../arm-none-eabi/lib/thumb/libstdc++.a(string-inst.o)
                0x000000000202ac14                std::string::operator=(char const*)
 .text._ZNSs6insertEjPKcj
                0x000000000202ac30       0xd8 /home/linux/devkitPro/devkitARM/bin/../lib/gcc/arm-none-eabi/4.8.2/../../../../arm-none-eabi/lib/thumb/libstdc++.a(string-inst.o)
                0x000000000202ac30                std::string::insert(unsigned int, char const*, unsigned int)
 .text._ZNSs6insertEN9__gnu_cxx17__normal_iteratorIPcSsEESt16initializer_listIcE
                0x000000000202ad08       0x14 /home/linux/devkitPro/devkitARM/bin/../lib/gcc/arm-none-eabi/4.8.2/../../../../arm-none-eabi/lib/thumb/libstdc++.a(string-inst.o)
                0x000000000202ad08                std::string::insert(__gnu_cxx::__normal_iterator<char*, std::string>, std::initializer_list<char>)
 .text._ZNSs6insertEjRKSsjj
                0x000000000202ad1c       0x30 /home/linux/devkitPro/devkitARM/bin/../lib/gcc/arm-none-eabi/4.8.2/../../../../arm-none-eabi/lib/thumb/libstdc++.a(string-inst.o)
                0x000000000202ad1c                std::string::insert(unsigned int, std::string const&, unsigned int, unsigned int)
 .text._ZNSs6insertEjPKc
                0x000000000202ad4c       0x20 /home/linux/devkitPro/devkitARM/bin/../lib/gcc/arm-none-eabi/4.8.2/../../../../arm-none-eabi/lib/thumb/libstdc++.a(string-inst.o)
                0x000000000202ad4c                std::string::insert(unsigned int, char const*)
 .text._ZNSs6insertEjRKSs
                0x000000000202ad6c       0x14 /home/linux/devkitPro/devkitARM/bin/../lib/gcc/arm-none-eabi/4.8.2/../../../../arm-none-eabi/lib/thumb/libstdc++.a(string-inst.o)
                0x000000000202ad6c                std::string::insert(unsigned int, std::string const&)
 .text._ZNSs8pop_backEv
                0x000000000202ad80       0x28 /home/linux/devkitPro/devkitARM/bin/../lib/gcc/arm-none-eabi/4.8.2/../../../../arm-none-eabi/lib/thumb/libstdc++.a(string-inst.o)
                0x000000000202ad80                std::string::pop_back()
 .text._ZNSs4_Rep10_M_refcopyEv
                0x000000000202ada8       0x1c /home/linux/devkitPro/devkitARM/bin/../lib/gcc/arm-none-eabi/4.8.2/../../../../arm-none-eabi/lib/thumb/libstdc++.a(string-inst.o)
                0x000000000202ada8                std::string::_Rep::_M_refcopy()
 .text._ZNSs4_Rep8_M_cloneERKSaIcEj
                0x000000000202adc4       0x58 /home/linux/devkitPro/devkitARM/bin/../lib/gcc/arm-none-eabi/4.8.2/../../../../arm-none-eabi/lib/thumb/libstdc++.a(string-inst.o)
                0x000000000202adc4                std::string::_Rep::_M_clone(std::allocator<char> const&, unsigned int)
 .text._ZNSs7reserveEj
                0x000000000202ae1c       0x4c /home/linux/devkitPro/devkitARM/bin/../lib/gcc/arm-none-eabi/4.8.2/../../../../arm-none-eabi/lib/thumb/libstdc++.a(string-inst.o)
                0x000000000202ae1c                std::string::reserve(unsigned int)
 .text._ZNSs13shrink_to_fitEv
                0x000000000202ae68       0x28 /home/linux/devkitPro/devkitARM/bin/../lib/gcc/arm-none-eabi/4.8.2/../../../../arm-none-eabi/lib/thumb/libstdc++.a(string-inst.o)
                0x000000000202ae68                std::string::shrink_to_fit()
 .text._ZNSs6appendERKSs
                0x000000000202ae90       0x80 /home/linux/devkitPro/devkitARM/bin/../lib/gcc/arm-none-eabi/4.8.2/../../../../arm-none-eabi/lib/thumb/libstdc++.a(string-inst.o)
                0x000000000202ae90                std::string::append(std::string const&)
 .text._ZNSspLERKSs
                0x000000000202af10        0xc /home/linux/devkitPro/devkitARM/bin/../lib/gcc/arm-none-eabi/4.8.2/../../../../arm-none-eabi/lib/thumb/libstdc++.a(string-inst.o)
                0x000000000202af10                std::string::operator+=(std::string const&)
 .text._ZNSs6appendERKSsjj
                0x000000000202af1c       0xa0 /home/linux/devkitPro/devkitARM/bin/../lib/gcc/arm-none-eabi/4.8.2/../../../../arm-none-eabi/lib/thumb/libstdc++.a(string-inst.o)
                0x000000000202af1c                std::string::append(std::string const&, unsigned int, unsigned int)
 .text._ZNSs6appendEPKcj
                0x000000000202afbc       0xa4 /home/linux/devkitPro/devkitARM/bin/../lib/gcc/arm-none-eabi/4.8.2/../../../../arm-none-eabi/lib/thumb/libstdc++.a(string-inst.o)
                0x000000000202afbc                std::string::append(char const*, unsigned int)
 .text._ZNSspLESt16initializer_listIcE
                0x000000000202b060       0x10 /home/linux/devkitPro/devkitARM/bin/../lib/gcc/arm-none-eabi/4.8.2/../../../../arm-none-eabi/lib/thumb/libstdc++.a(string-inst.o)
                0x000000000202b060                std::string::operator+=(std::initializer_list<char>)
 .text._ZNSs6appendEPKc
                0x000000000202b070       0x1c /home/linux/devkitPro/devkitARM/bin/../lib/gcc/arm-none-eabi/4.8.2/../../../../arm-none-eabi/lib/thumb/libstdc++.a(string-inst.o)
                0x000000000202b070                std::string::append(char const*)
 .text._ZNSs6appendESt16initializer_listIcE
                0x000000000202b08c       0x10 /home/linux/devkitPro/devkitARM/bin/../lib/gcc/arm-none-eabi/4.8.2/../../../../arm-none-eabi/lib/thumb/libstdc++.a(string-inst.o)
                0x000000000202b08c                std::string::append(std::initializer_list<char>)
 .text._ZNSspLEPKc
                0x000000000202b09c       0x1c /home/linux/devkitPro/devkitARM/bin/../lib/gcc/arm-none-eabi/4.8.2/../../../../arm-none-eabi/lib/thumb/libstdc++.a(string-inst.o)
                0x000000000202b09c                std::string::operator+=(char const*)
 .text._ZNSs6appendEjc
                0x000000000202b0b8       0x88 /home/linux/devkitPro/devkitARM/bin/../lib/gcc/arm-none-eabi/4.8.2/../../../../arm-none-eabi/lib/thumb/libstdc++.a(string-inst.o)
                0x000000000202b0b8                std::string::append(unsigned int, char)
 .text._ZNSs6resizeEjc
                0x000000000202b140       0x3c /home/linux/devkitPro/devkitARM/bin/../lib/gcc/arm-none-eabi/4.8.2/../../../../arm-none-eabi/lib/thumb/libstdc++.a(string-inst.o)
                0x000000000202b140                std::string::resize(unsigned int, char)
 .text._ZNSs6resizeEj
                0x000000000202b17c       0x10 /home/linux/devkitPro/devkitARM/bin/../lib/gcc/arm-none-eabi/4.8.2/../../../../arm-none-eabi/lib/thumb/libstdc++.a(string-inst.o)
                0x000000000202b17c                std::string::resize(unsigned int)
 .text._ZNSs9push_backEc
                0x000000000202b18c       0x50 /home/linux/devkitPro/devkitARM/bin/../lib/gcc/arm-none-eabi/4.8.2/../../../../arm-none-eabi/lib/thumb/libstdc++.a(string-inst.o)
                0x000000000202b18c                std::string::push_back(char)
 .text._ZNSspLEc
                0x000000000202b1dc       0x50 /home/linux/devkitPro/devkitARM/bin/../lib/gcc/arm-none-eabi/4.8.2/../../../../arm-none-eabi/lib/thumb/libstdc++.a(string-inst.o)
                0x000000000202b1dc                std::string::operator+=(char)
 .text._ZNSs4_Rep7_M_grabERKSaIcES2_
                0x000000000202b22c       0x28 /home/linux/devkitPro/devkitARM/bin/../lib/gcc/arm-none-eabi/4.8.2/../../../../arm-none-eabi/lib/thumb/libstdc++.a(string-inst.o)
                0x000000000202b22c                std::string::_Rep::_M_grab(std::allocator<char> const&, std::allocator<char> const&)
 .text._ZNSsC2ERKSs
                0x000000000202b254       0x3c /home/linux/devkitPro/devkitARM/bin/../lib/gcc/arm-none-eabi/4.8.2/../../../../arm-none-eabi/lib/thumb/libstdc++.a(string-inst.o)
                0x000000000202b254                std::basic_string<char, std::char_traits<char>, std::allocator<char> >::basic_string(std::string const&)
                0x000000000202b254                std::basic_string<char, std::char_traits<char>, std::allocator<char> >::basic_string(std::string const&)
 .text._ZNSs6assignERKSs
                0x000000000202b290       0x5c /home/linux/devkitPro/devkitARM/bin/../lib/gcc/arm-none-eabi/4.8.2/../../../../arm-none-eabi/lib/thumb/libstdc++.a(string-inst.o)
                0x000000000202b290                std::string::assign(std::string const&)
 .text._ZNSsaSERKSs
                0x000000000202b2ec        0xc /home/linux/devkitPro/devkitARM/bin/../lib/gcc/arm-none-eabi/4.8.2/../../../../arm-none-eabi/lib/thumb/libstdc++.a(string-inst.o)
                0x000000000202b2ec                std::string::operator=(std::string const&)
 .text._ZStplIcSt11char_traitsIcESaIcEESbIT_T0_T1_EPKS3_RKS6_
                0x000000000202b2f8       0x5c /home/linux/devkitPro/devkitARM/bin/../lib/gcc/arm-none-eabi/4.8.2/../../../../arm-none-eabi/lib/thumb/libstdc++.a(string-inst.o)
                0x000000000202b2f8                std::basic_string<char, std::char_traits<char>, std::allocator<char> > std::operator+<char, std::char_traits<char>, std::allocator<char> >(char const*, std::basic_string<char, std::char_traits<char>, std::allocator<char> > const&)
 .text._ZStplIcSt11char_traitsIcESaIcEESbIT_T0_T1_ES3_RKS6_
                0x000000000202b354       0x54 /home/linux/devkitPro/devkitARM/bin/../lib/gcc/arm-none-eabi/4.8.2/../../../../arm-none-eabi/lib/thumb/libstdc++.a(string-inst.o)
                0x000000000202b354                std::basic_string<char, std::char_traits<char>, std::allocator<char> > std::operator+<char, std::char_traits<char>, std::allocator<char> >(char, std::basic_string<char, std::char_traits<char>, std::allocator<char> > const&)
 .text._ZStplIcSt11char_traitsIcESaIcEESbIT_T0_T1_ERKS6_S8_
                0x000000000202b3a8       0x38 /home/linux/devkitPro/devkitARM/bin/../lib/gcc/arm-none-eabi/4.8.2/../../../../arm-none-eabi/lib/thumb/libstdc++.a(string-inst.o)
                0x000000000202b3a8                std::basic_string<char, std::char_traits<char>, std::allocator<char> > std::operator+<char, std::char_traits<char>, std::allocator<char> >(std::basic_string<char, std::char_traits<char>, std::allocator<char> > const&, std::basic_string<char, std::char_traits<char>, std::allocator<char> > const&)
 .text._ZNSs12_S_constructIN9__gnu_cxx17__normal_iteratorIPcSsEEEES2_T_S4_RKSaIcESt20forward_iterator_tag
                0x000000000202b3e0       0x50 /home/linux/devkitPro/devkitARM/bin/../lib/gcc/arm-none-eabi/4.8.2/../../../../arm-none-eabi/lib/thumb/libstdc++.a(string-inst.o)
                0x000000000202b3e0                char* std::string::_S_construct<__gnu_cxx::__normal_iterator<char*, std::string> >(__gnu_cxx::__normal_iterator<char*, std::string>, __gnu_cxx::__normal_iterator<char*, std::string>, std::allocator<char> const&, std::forward_iterator_tag)
 .text._ZNSsC2IN9__gnu_cxx17__normal_iteratorIPcSsEEEET_S4_RKSaIcE
                0x000000000202b430       0x1c /home/linux/devkitPro/devkitARM/bin/../lib/gcc/arm-none-eabi/4.8.2/../../../../arm-none-eabi/lib/thumb/libstdc++.a(string-inst.o)
                0x000000000202b430                std::basic_string<char, std::char_traits<char>, std::allocator<char> >::basic_string<__gnu_cxx::__normal_iterator<char*, std::string> >(__gnu_cxx::__normal_iterator<char*, std::string>, __gnu_cxx::__normal_iterator<char*, std::string>, std::allocator<char> const&)
                0x000000000202b430                std::basic_string<char, std::char_traits<char>, std::allocator<char> >::basic_string<__gnu_cxx::__normal_iterator<char*, std::string> >(__gnu_cxx::__normal_iterator<char*, std::string>, __gnu_cxx::__normal_iterator<char*, std::string>, std::allocator<char> const&)
 .text._ZNSs12_S_constructIPcEES0_T_S1_RKSaIcESt20forward_iterator_tag
                0x000000000202b44c       0x74 /home/linux/devkitPro/devkitARM/bin/../lib/gcc/arm-none-eabi/4.8.2/../../../../arm-none-eabi/lib/thumb/libstdc++.a(string-inst.o)
                0x000000000202b44c                char* std::string::_S_construct<char*>(char*, char*, std::allocator<char> const&, std::forward_iterator_tag)
 .text._ZNSsC2ERKSsjj
                0x000000000202b4c0       0x40 /home/linux/devkitPro/devkitARM/bin/../lib/gcc/arm-none-eabi/4.8.2/../../../../arm-none-eabi/lib/thumb/libstdc++.a(string-inst.o)
                0x000000000202b4c0                std::basic_string<char, std::char_traits<char>, std::allocator<char> >::basic_string(std::string const&, unsigned int, unsigned int)
                0x000000000202b4c0                std::basic_string<char, std::char_traits<char>, std::allocator<char> >::basic_string(std::string const&, unsigned int, unsigned int)
 .text._ZNKSs6substrEjj
                0x000000000202b500       0x28 /home/linux/devkitPro/devkitARM/bin/../lib/gcc/arm-none-eabi/4.8.2/../../../../arm-none-eabi/lib/thumb/libstdc++.a(string-inst.o)
                0x000000000202b500                std::string::substr(unsigned int, unsigned int) const
 .text._ZNSsC2ERKSsjjRKSaIcE
                0x000000000202b528       0x3c /home/linux/devkitPro/devkitARM/bin/../lib/gcc/arm-none-eabi/4.8.2/../../../../arm-none-eabi/lib/thumb/libstdc++.a(string-inst.o)
                0x000000000202b528                std::basic_string<char, std::char_traits<char>, std::allocator<char> >::basic_string(std::string const&, unsigned int, unsigned int, std::allocator<char> const&)
                0x000000000202b528                std::basic_string<char, std::char_traits<char>, std::allocator<char> >::basic_string(std::string const&, unsigned int, unsigned int, std::allocator<char> const&)
 .text._ZNSsC2IPcEET_S1_RKSaIcE
                0x000000000202b564       0x1c /home/linux/devkitPro/devkitARM/bin/../lib/gcc/arm-none-eabi/4.8.2/../../../../arm-none-eabi/lib/thumb/libstdc++.a(string-inst.o)
                0x000000000202b564                std::basic_string<char, std::char_traits<char>, std::allocator<char> >::basic_string<char*>(char*, char*, std::allocator<char> const&)
                0x000000000202b564                std::basic_string<char, std::char_traits<char>, std::allocator<char> >::basic_string<char*>(char*, char*, std::allocator<char> const&)
 .text._ZNSs12_S_constructIPKcEEPcT_S3_RKSaIcESt20forward_iterator_tag
                0x000000000202b580       0x74 /home/linux/devkitPro/devkitARM/bin/../lib/gcc/arm-none-eabi/4.8.2/../../../../arm-none-eabi/lib/thumb/libstdc++.a(string-inst.o)
                0x000000000202b580                char* std::string::_S_construct<char const*>(char const*, char const*, std::allocator<char> const&, std::forward_iterator_tag)
 .text._ZNSsC2EPKcjRKSaIcE
                0x000000000202b5f4       0x1c /home/linux/devkitPro/devkitARM/bin/../lib/gcc/arm-none-eabi/4.8.2/../../../../arm-none-eabi/lib/thumb/libstdc++.a(string-inst.o)
                0x000000000202b5f4                std::basic_string<char, std::char_traits<char>, std::allocator<char> >::basic_string(char const*, unsigned int, std::allocator<char> const&)
                0x000000000202b5f4                std::basic_string<char, std::char_traits<char>, std::allocator<char> >::basic_string(char const*, unsigned int, std::allocator<char> const&)
 .text._ZNSs7replaceEjjPKcj
                0x000000000202b610      0x100 /home/linux/devkitPro/devkitARM/bin/../lib/gcc/arm-none-eabi/4.8.2/../../../../arm-none-eabi/lib/thumb/libstdc++.a(string-inst.o)
                0x000000000202b610                std::string::replace(unsigned int, unsigned int, char const*, unsigned int)
 .text._ZNSs7replaceEjjRKSs
                0x000000000202b710       0x1c /home/linux/devkitPro/devkitARM/bin/../lib/gcc/arm-none-eabi/4.8.2/../../../../arm-none-eabi/lib/thumb/libstdc++.a(string-inst.o)
                0x000000000202b710                std::string::replace(unsigned int, unsigned int, std::string const&)
 .text._ZNSs7replaceEjjRKSsjj
                0x000000000202b72c       0x38 /home/linux/devkitPro/devkitARM/bin/../lib/gcc/arm-none-eabi/4.8.2/../../../../arm-none-eabi/lib/thumb/libstdc++.a(string-inst.o)
                0x000000000202b72c                std::string::replace(unsigned int, unsigned int, std::string const&, unsigned int, unsigned int)
 .text._ZNSs7replaceEjjPKc
                0x000000000202b764       0x28 /home/linux/devkitPro/devkitARM/bin/../lib/gcc/arm-none-eabi/4.8.2/../../../../arm-none-eabi/lib/thumb/libstdc++.a(string-inst.o)
                0x000000000202b764                std::string::replace(unsigned int, unsigned int, char const*)
 .text._ZNSs7replaceEN9__gnu_cxx17__normal_iteratorIPcSsEES2_PKcj
                0x000000000202b78c       0x1c /home/linux/devkitPro/devkitARM/bin/../lib/gcc/arm-none-eabi/4.8.2/../../../../arm-none-eabi/lib/thumb/libstdc++.a(string-inst.o)
                0x000000000202b78c                std::string::replace(__gnu_cxx::__normal_iterator<char*, std::string>, __gnu_cxx::__normal_iterator<char*, std::string>, char const*, unsigned int)
 .text._ZNSs7replaceEN9__gnu_cxx17__normal_iteratorIPcSsEES2_RKSs
                0x000000000202b7a8       0x24 /home/linux/devkitPro/devkitARM/bin/../lib/gcc/arm-none-eabi/4.8.2/../../../../arm-none-eabi/lib/thumb/libstdc++.a(string-inst.o)
                0x000000000202b7a8                std::string::replace(__gnu_cxx::__normal_iterator<char*, std::string>, __gnu_cxx::__normal_iterator<char*, std::string>, std::string const&)
 .text._ZNSs7replaceEN9__gnu_cxx17__normal_iteratorIPcSsEES2_PKc
                0x000000000202b7cc       0x2c /home/linux/devkitPro/devkitARM/bin/../lib/gcc/arm-none-eabi/4.8.2/../../../../arm-none-eabi/lib/thumb/libstdc++.a(string-inst.o)
                0x000000000202b7cc                std::string::replace(__gnu_cxx::__normal_iterator<char*, std::string>, __gnu_cxx::__normal_iterator<char*, std::string>, char const*)
 .text._ZNSs7replaceEN9__gnu_cxx17__normal_iteratorIPcSsEES2_S1_S1_
                0x000000000202b7f8       0x20 /home/linux/devkitPro/devkitARM/bin/../lib/gcc/arm-none-eabi/4.8.2/../../../../arm-none-eabi/lib/thumb/libstdc++.a(string-inst.o)
                0x000000000202b7f8                std::string::replace(__gnu_cxx::__normal_iterator<char*, std::string>, __gnu_cxx::__normal_iterator<char*, std::string>, char*, char*)
 .text._ZNSs7replaceEN9__gnu_cxx17__normal_iteratorIPcSsEES2_PKcS4_
                0x000000000202b818       0x20 /home/linux/devkitPro/devkitARM/bin/../lib/gcc/arm-none-eabi/4.8.2/../../../../arm-none-eabi/lib/thumb/libstdc++.a(string-inst.o)
                0x000000000202b818                std::string::replace(__gnu_cxx::__normal_iterator<char*, std::string>, __gnu_cxx::__normal_iterator<char*, std::string>, char const*, char const*)
 .text._ZNSs7replaceEN9__gnu_cxx17__normal_iteratorIPcSsEES2_St16initializer_listIcE
                0x000000000202b838       0x24 /home/linux/devkitPro/devkitARM/bin/../lib/gcc/arm-none-eabi/4.8.2/../../../../arm-none-eabi/lib/thumb/libstdc++.a(string-inst.o)
                0x000000000202b838                std::string::replace(__gnu_cxx::__normal_iterator<char*, std::string>, __gnu_cxx::__normal_iterator<char*, std::string>, std::initializer_list<char>)
 .text._ZNSs7replaceEN9__gnu_cxx17__normal_iteratorIPcSsEES2_S2_S2_
                0x000000000202b85c       0x20 /home/linux/devkitPro/devkitARM/bin/../lib/gcc/arm-none-eabi/4.8.2/../../../../arm-none-eabi/lib/thumb/libstdc++.a(string-inst.o)
                0x000000000202b85c                std::string::replace(__gnu_cxx::__normal_iterator<char*, std::string>, __gnu_cxx::__normal_iterator<char*, std::string>, __gnu_cxx::__normal_iterator<char*, std::string>, __gnu_cxx::__normal_iterator<char*, std::string>)
 .text._ZNSs7replaceEN9__gnu_cxx17__normal_iteratorIPcSsEES2_NS0_IPKcSsEES5_
                0x000000000202b87c       0x20 /home/linux/devkitPro/devkitARM/bin/../lib/gcc/arm-none-eabi/4.8.2/../../../../arm-none-eabi/lib/thumb/libstdc++.a(string-inst.o)
                0x000000000202b87c                std::string::replace(__gnu_cxx::__normal_iterator<char*, std::string>, __gnu_cxx::__normal_iterator<char*, std::string>, __gnu_cxx::__normal_iterator<char const*, std::string>, __gnu_cxx::__normal_iterator<char const*, std::string>)
 .text._ZNSsC2EPKcRKSaIcE
                0x000000000202b89c       0x30 /home/linux/devkitPro/devkitARM/bin/../lib/gcc/arm-none-eabi/4.8.2/../../../../arm-none-eabi/lib/thumb/libstdc++.a(string-inst.o)
                0x000000000202b89c                std::basic_string<char, std::char_traits<char>, std::allocator<char> >::basic_string(char const*, std::allocator<char> const&)
                0x000000000202b89c                std::basic_string<char, std::char_traits<char>, std::allocator<char> >::basic_string(char const*, std::allocator<char> const&)
 .text._ZNSsC2ESt16initializer_listIcERKSaIcE
                0x000000000202b8cc       0x20 /home/linux/devkitPro/devkitARM/bin/../lib/gcc/arm-none-eabi/4.8.2/../../../../arm-none-eabi/lib/thumb/libstdc++.a(string-inst.o)
                0x000000000202b8cc                std::basic_string<char, std::char_traits<char>, std::allocator<char> >::basic_string(std::initializer_list<char>, std::allocator<char> const&)
                0x000000000202b8cc                std::basic_string<char, std::char_traits<char>, std::allocator<char> >::basic_string(std::initializer_list<char>, std::allocator<char> const&)
 .text._ZNSsC2IPKcEET_S2_RKSaIcE
                0x000000000202b8ec       0x1c /home/linux/devkitPro/devkitARM/bin/../lib/gcc/arm-none-eabi/4.8.2/../../../../arm-none-eabi/lib/thumb/libstdc++.a(string-inst.o)
                0x000000000202b8ec                std::basic_string<char, std::char_traits<char>, std::allocator<char> >::basic_string<char const*>(char const*, char const*, std::allocator<char> const&)
                0x000000000202b8ec                std::basic_string<char, std::char_traits<char>, std::allocator<char> >::basic_string<char const*>(char const*, char const*, std::allocator<char> const&)
 .text._ZN9__gnu_cxxeqIPcSsEEbRKNS_17__normal_iteratorIT_T0_EES7_
                0x000000000202b908        0xc /home/linux/devkitPro/devkitARM/bin/../lib/gcc/arm-none-eabi/4.8.2/../../../../arm-none-eabi/lib/thumb/libstdc++.a(string-inst.o)
                0x000000000202b908                bool __gnu_cxx::operator==<char*, std::string>(__gnu_cxx::__normal_iterator<char*, std::string> const&, __gnu_cxx::__normal_iterator<char*, std::string> const&)
 .text._ZN9__gnu_cxxeqIPKcSsEEbRKNS_17__normal_iteratorIT_T0_EES8_
                0x000000000202b914        0xc /home/linux/devkitPro/devkitARM/bin/../lib/gcc/arm-none-eabi/4.8.2/../../../../arm-none-eabi/lib/thumb/libstdc++.a(string-inst.o)
                0x000000000202b914                bool __gnu_cxx::operator==<char const*, std::string>(__gnu_cxx::__normal_iterator<char const*, std::string> const&, __gnu_cxx::__normal_iterator<char const*, std::string> const&)
 .text._ZSt21__throw_bad_exceptionv
                0x000000000202b920       0x20 /home/linux/devkitPro/devkitARM/bin/../lib/gcc/arm-none-eabi/4.8.2/../../../../arm-none-eabi/lib/thumb/libstdc++.a(functexcept.o)
                0x000000000202b920                std::__throw_bad_exception()
 .text._ZSt17__throw_bad_allocv
                0x000000000202b940       0x20 /home/linux/devkitPro/devkitARM/bin/../lib/gcc/arm-none-eabi/4.8.2/../../../../arm-none-eabi/lib/thumb/libstdc++.a(functexcept.o)
                0x000000000202b940                std::__throw_bad_alloc()
 .text._ZSt16__throw_bad_castv
                0x000000000202b960       0x20 /home/linux/devkitPro/devkitARM/bin/../lib/gcc/arm-none-eabi/4.8.2/../../../../arm-none-eabi/lib/thumb/libstdc++.a(functexcept.o)
                0x000000000202b960                std::__throw_bad_cast()
 .text._ZSt18__throw_bad_typeidv
                0x000000000202b980       0x20 /home/linux/devkitPro/devkitARM/bin/../lib/gcc/arm-none-eabi/4.8.2/../../../../arm-none-eabi/lib/thumb/libstdc++.a(functexcept.o)
                0x000000000202b980                std::__throw_bad_typeid()
 .text._ZSt19__throw_logic_errorPKc
                0x000000000202b9a0       0x54 /home/linux/devkitPro/devkitARM/bin/../lib/gcc/arm-none-eabi/4.8.2/../../../../arm-none-eabi/lib/thumb/libstdc++.a(functexcept.o)
                0x000000000202b9a0                std::__throw_logic_error(char const*)
 .text._ZSt20__throw_domain_errorPKc
                0x000000000202b9f4       0x54 /home/linux/devkitPro/devkitARM/bin/../lib/gcc/arm-none-eabi/4.8.2/../../../../arm-none-eabi/lib/thumb/libstdc++.a(functexcept.o)
                0x000000000202b9f4                std::__throw_domain_error(char const*)
 .text._ZSt24__throw_invalid_argumentPKc
                0x000000000202ba48       0x54 /home/linux/devkitPro/devkitARM/bin/../lib/gcc/arm-none-eabi/4.8.2/../../../../arm-none-eabi/lib/thumb/libstdc++.a(functexcept.o)
                0x000000000202ba48                std::__throw_invalid_argument(char const*)
 .text._ZSt20__throw_length_errorPKc
                0x000000000202ba9c       0x54 /home/linux/devkitPro/devkitARM/bin/../lib/gcc/arm-none-eabi/4.8.2/../../../../arm-none-eabi/lib/thumb/libstdc++.a(functexcept.o)
                0x000000000202ba9c                std::__throw_length_error(char const*)
 .text._ZSt20__throw_out_of_rangePKc
                0x000000000202baf0       0x54 /home/linux/devkitPro/devkitARM/bin/../lib/gcc/arm-none-eabi/4.8.2/../../../../arm-none-eabi/lib/thumb/libstdc++.a(functexcept.o)
                0x000000000202baf0                std::__throw_out_of_range(char const*)
 .text._ZSt21__throw_runtime_errorPKc
                0x000000000202bb44       0x54 /home/linux/devkitPro/devkitARM/bin/../lib/gcc/arm-none-eabi/4.8.2/../../../../arm-none-eabi/lib/thumb/libstdc++.a(functexcept.o)
                0x000000000202bb44                std::__throw_runtime_error(char const*)
 .text._ZSt19__throw_range_errorPKc
                0x000000000202bb98       0x54 /home/linux/devkitPro/devkitARM/bin/../lib/gcc/arm-none-eabi/4.8.2/../../../../arm-none-eabi/lib/thumb/libstdc++.a(functexcept.o)
                0x000000000202bb98                std::__throw_range_error(char const*)
 .text._ZSt22__throw_overflow_errorPKc
                0x000000000202bbec       0x54 /home/linux/devkitPro/devkitARM/bin/../lib/gcc/arm-none-eabi/4.8.2/../../../../arm-none-eabi/lib/thumb/libstdc++.a(functexcept.o)
                0x000000000202bbec                std::__throw_overflow_error(char const*)
 .text._ZSt23__throw_underflow_errorPKc
                0x000000000202bc40       0x54 /home/linux/devkitPro/devkitARM/bin/../lib/gcc/arm-none-eabi/4.8.2/../../../../arm-none-eabi/lib/thumb/libstdc++.a(functexcept.o)
                0x000000000202bc40                std::__throw_underflow_error(char const*)
 .text._ZSt19__throw_ios_failurePKc
                0x000000000202bc94       0x48 /home/linux/devkitPro/devkitARM/bin/../lib/gcc/arm-none-eabi/4.8.2/../../../../arm-none-eabi/lib/thumb/libstdc++.a(functexcept.o)
                0x000000000202bc94                std::__throw_ios_failure(char const*)
 .text._ZSt20__throw_system_errori
                0x000000000202bcdc       0x6c /home/linux/devkitPro/devkitARM/bin/../lib/gcc/arm-none-eabi/4.8.2/../../../../arm-none-eabi/lib/thumb/libstdc++.a(functexcept.o)
                0x000000000202bcdc                std::__throw_system_error(int)
 .text._ZSt20__throw_future_errori
                0x000000000202bd48       0x68 /home/linux/devkitPro/devkitARM/bin/../lib/gcc/arm-none-eabi/4.8.2/../../../../arm-none-eabi/lib/thumb/libstdc++.a(functexcept.o)
                0x000000000202bd48                std::__throw_future_error(int)
 .text._ZSt25__throw_bad_function_callv
                0x000000000202bdb0       0x20 /home/linux/devkitPro/devkitARM/bin/../lib/gcc/arm-none-eabi/4.8.2/../../../../arm-none-eabi/lib/thumb/libstdc++.a(functexcept.o)
                0x000000000202bdb0                std::__throw_bad_function_call()
 .text._ZSt19__throw_regex_errorNSt15regex_constants10error_typeE
                0x000000000202bdd0       0x30 /home/linux/devkitPro/devkitARM/bin/../lib/gcc/arm-none-eabi/4.8.2/../../../../arm-none-eabi/lib/thumb/libstdc++.a(functexcept.o)
                0x000000000202bdd0                std::__throw_regex_error(std::regex_constants::error_type)
 .text.__cxa_end_cleanup
                0x000000000202be00        0xc /home/linux/devkitPro/devkitARM/bin/../lib/gcc/arm-none-eabi/4.8.2/../../../../arm-none-eabi/lib/thumb/libstdc++.a(eh_arm.o)
                0x000000000202be00                __cxa_end_cleanup
 .text.__cxa_type_match
                0x000000000202be0c       0xc4 /home/linux/devkitPro/devkitARM/bin/../lib/gcc/arm-none-eabi/4.8.2/../../../../arm-none-eabi/lib/thumb/libstdc++.a(eh_arm.o)
                0x000000000202be0c                __cxa_type_match
 .text.__cxa_begin_cleanup
                0x000000000202bed0       0x64 /home/linux/devkitPro/devkitARM/bin/../lib/gcc/arm-none-eabi/4.8.2/../../../../arm-none-eabi/lib/thumb/libstdc++.a(eh_arm.o)
                0x000000000202bed0                __cxa_begin_cleanup
 .text.__gnu_end_cleanup
                0x000000000202bf34       0x74 /home/linux/devkitPro/devkitARM/bin/../lib/gcc/arm-none-eabi/4.8.2/../../../../arm-none-eabi/lib/thumb/libstdc++.a(eh_arm.o)
                0x000000000202bf34                __gnu_end_cleanup
 .text._ZL23__gxx_exception_cleanup19_Unwind_Reason_CodeP21_Unwind_Control_Block
                0x000000000202bfa8       0x30 /home/linux/devkitPro/devkitARM/bin/../lib/gcc/arm-none-eabi/4.8.2/../../../../arm-none-eabi/lib/thumb/libstdc++.a(eh_throw.o)
 .text.__cxa_throw
                0x000000000202bfd8       0x68 /home/linux/devkitPro/devkitARM/bin/../lib/gcc/arm-none-eabi/4.8.2/../../../../arm-none-eabi/lib/thumb/libstdc++.a(eh_throw.o)
                0x000000000202bfd8                __cxa_throw
 .text.__cxa_rethrow
                0x000000000202c040       0x74 /home/linux/devkitPro/devkitARM/bin/../lib/gcc/arm-none-eabi/4.8.2/../../../../arm-none-eabi/lib/thumb/libstdc++.a(eh_throw.o)
                0x000000000202c040                __cxa_rethrow
 .text.__cxa_pure_virtual
                0x000000000202c0b4       0x14 /home/linux/devkitPro/devkitARM/bin/../lib/gcc/arm-none-eabi/4.8.2/../../../../arm-none-eabi/lib/thumb/libstdc++.a(pure.o)
                0x000000000202c0b4                __cxa_pure_virtual
 .text.__cxa_deleted_virtual
                0x000000000202c0c8       0x14 /home/linux/devkitPro/devkitARM/bin/../lib/gcc/arm-none-eabi/4.8.2/../../../../arm-none-eabi/lib/thumb/libstdc++.a(pure.o)
                0x000000000202c0c8                __cxa_deleted_virtual
 .text._ZNKSt8bad_cast4whatEv
                0x000000000202c0dc        0x8 /home/linux/devkitPro/devkitARM/bin/../lib/gcc/arm-none-eabi/4.8.2/../../../../arm-none-eabi/lib/thumb/libstdc++.a(bad_cast.o)
                0x000000000202c0dc                std::bad_cast::what() const
 .text._ZNSt8bad_castD2Ev
                0x000000000202c0e4       0x1c /home/linux/devkitPro/devkitARM/bin/../lib/gcc/arm-none-eabi/4.8.2/../../../../arm-none-eabi/lib/thumb/libstdc++.a(bad_cast.o)
                0x000000000202c0e4                std::bad_cast::~bad_cast()
                0x000000000202c0e4                std::bad_cast::~bad_cast()
 .text._ZNSt8bad_castD0Ev
                0x000000000202c100       0x20 /home/linux/devkitPro/devkitARM/bin/../lib/gcc/arm-none-eabi/4.8.2/../../../../arm-none-eabi/lib/thumb/libstdc++.a(bad_cast.o)
                0x000000000202c100                std::bad_cast::~bad_cast()
 .text.__cxa_get_globals_fast
                0x000000000202c120        0x8 /home/linux/devkitPro/devkitARM/bin/../lib/gcc/arm-none-eabi/4.8.2/../../../../arm-none-eabi/lib/thumb/libstdc++.a(eh_globals.o)
                0x000000000202c120                __cxa_get_globals_fast
 .text.__cxa_get_globals
                0x000000000202c128        0x8 /home/linux/devkitPro/devkitARM/bin/../lib/gcc/arm-none-eabi/4.8.2/../../../../arm-none-eabi/lib/thumb/libstdc++.a(eh_globals.o)
                0x000000000202c128                __cxa_get_globals
 .text.__cxa_get_exception_ptr
                0x000000000202c130        0x4 /home/linux/devkitPro/devkitARM/bin/../lib/gcc/arm-none-eabi/4.8.2/../../../../arm-none-eabi/lib/thumb/libstdc++.a(eh_catch.o)
                0x000000000202c130                __cxa_get_exception_ptr
 .text.__cxa_begin_catch
                0x000000000202c134       0x88 /home/linux/devkitPro/devkitARM/bin/../lib/gcc/arm-none-eabi/4.8.2/../../../../arm-none-eabi/lib/thumb/libstdc++.a(eh_catch.o)
                0x000000000202c134                __cxa_begin_catch
 .text.__cxa_end_catch
                0x000000000202c1bc       0x90 /home/linux/devkitPro/devkitARM/bin/../lib/gcc/arm-none-eabi/4.8.2/../../../../arm-none-eabi/lib/thumb/libstdc++.a(eh_catch.o)
                0x000000000202c1bc                __cxa_end_catch
 .text._ZSt18uncaught_exceptionv
                0x000000000202c24c       0x14 /home/linux/devkitPro/devkitARM/bin/../lib/gcc/arm-none-eabi/4.8.2/../../../../arm-none-eabi/lib/thumb/libstdc++.a(eh_catch.o)
                0x000000000202c24c                std::uncaught_exception()
 .text._ZN10__cxxabiv120__si_class_type_infoD2Ev
                0x000000000202c260       0x1c /home/linux/devkitPro/devkitARM/bin/../lib/gcc/arm-none-eabi/4.8.2/../../../../arm-none-eabi/lib/thumb/libstdc++.a(si_class_type_info.o)
                0x000000000202c260                __cxxabiv1::__si_class_type_info::~__si_class_type_info()
                0x000000000202c260                __cxxabiv1::__si_class_type_info::~__si_class_type_info()
 .text._ZN10__cxxabiv120__si_class_type_infoD0Ev
                0x000000000202c27c       0x20 /home/linux/devkitPro/devkitARM/bin/../lib/gcc/arm-none-eabi/4.8.2/../../../../arm-none-eabi/lib/thumb/libstdc++.a(si_class_type_info.o)
                0x000000000202c27c                __cxxabiv1::__si_class_type_info::~__si_class_type_info()
 .text._ZNK10__cxxabiv120__si_class_type_info20__do_find_public_srcEiPKvPKNS_17__class_type_infoES2_
                0x000000000202c29c       0x40 /home/linux/devkitPro/devkitARM/bin/../lib/gcc/arm-none-eabi/4.8.2/../../../../arm-none-eabi/lib/thumb/libstdc++.a(si_class_type_info.o)
                0x000000000202c29c                __cxxabiv1::__si_class_type_info::__do_find_public_src(int, void const*, __cxxabiv1::__class_type_info const*, void const*) const
 .text._ZNK10__cxxabiv120__si_class_type_info12__do_dyncastEiNS_17__class_type_info10__sub_kindEPKS1_PKvS4_S6_RNS1_16__dyncast_resultE
                0x000000000202c2dc       0x9c /home/linux/devkitPro/devkitARM/bin/../lib/gcc/arm-none-eabi/4.8.2/../../../../arm-none-eabi/lib/thumb/libstdc++.a(si_class_type_info.o)
                0x000000000202c2dc                __cxxabiv1::__si_class_type_info::__do_dyncast(int, __cxxabiv1::__class_type_info::__sub_kind, __cxxabiv1::__class_type_info const*, void const*, __cxxabiv1::__class_type_info const*, void const*, __cxxabiv1::__class_type_info::__dyncast_result&) const
 .text._ZNK10__cxxabiv120__si_class_type_info11__do_upcastEPKNS_17__class_type_infoEPKvRNS1_15__upcast_resultE
                0x000000000202c378       0x2c /home/linux/devkitPro/devkitARM/bin/../lib/gcc/arm-none-eabi/4.8.2/../../../../arm-none-eabi/lib/thumb/libstdc++.a(si_class_type_info.o)
                0x000000000202c378                __cxxabiv1::__si_class_type_info::__do_upcast(__cxxabiv1::__class_type_info const*, void const*, __cxxabiv1::__class_type_info::__upcast_result&) const
 .text._ZNSt9type_infoD2Ev
                0x000000000202c3a4        0xc /home/linux/devkitPro/devkitARM/bin/../lib/gcc/arm-none-eabi/4.8.2/../../../../arm-none-eabi/lib/thumb/libstdc++.a(tinfo.o)
                0x000000000202c3a4                std::type_info::~type_info()
                0x000000000202c3a4                std::type_info::~type_info()
 .text._ZNKSt9type_info14__is_pointer_pEv
                0x000000000202c3b0        0x4 /home/linux/devkitPro/devkitARM/bin/../lib/gcc/arm-none-eabi/4.8.2/../../../../arm-none-eabi/lib/thumb/libstdc++.a(tinfo.o)
                0x000000000202c3b0                std::type_info::__is_pointer_p() const
 .text._ZNKSt9type_info15__is_function_pEv
                0x000000000202c3b4        0x4 /home/linux/devkitPro/devkitARM/bin/../lib/gcc/arm-none-eabi/4.8.2/../../../../arm-none-eabi/lib/thumb/libstdc++.a(tinfo.o)
                0x000000000202c3b4                std::type_info::__is_function_p() const
 .text._ZNKSt9type_info11__do_upcastEPKN10__cxxabiv117__class_type_infoEPPv
                0x000000000202c3b8        0x4 /home/linux/devkitPro/devkitARM/bin/../lib/gcc/arm-none-eabi/4.8.2/../../../../arm-none-eabi/lib/thumb/libstdc++.a(tinfo.o)
                0x000000000202c3b8                std::type_info::__do_upcast(__cxxabiv1::__class_type_info const*, void**) const
 .text._ZNSt9type_infoD0Ev
                0x000000000202c3bc       0x1c /home/linux/devkitPro/devkitARM/bin/../lib/gcc/arm-none-eabi/4.8.2/../../../../arm-none-eabi/lib/thumb/libstdc++.a(tinfo.o)
                0x000000000202c3bc                std::type_info::~type_info()
 .text._ZNKSt9type_infoeqERKS_
                0x000000000202c3d8       0x30 /home/linux/devkitPro/devkitARM/bin/../lib/gcc/arm-none-eabi/4.8.2/../../../../arm-none-eabi/lib/thumb/libstdc++.a(tinfo.o)
                0x000000000202c3d8                std::type_info::operator==(std::type_info const&) const
 .text._ZNKSt9type_info10__do_catchEPKS_PPvj
                0x000000000202c408        0xc /home/linux/devkitPro/devkitARM/bin/../lib/gcc/arm-none-eabi/4.8.2/../../../../arm-none-eabi/lib/thumb/libstdc++.a(tinfo.o)
                0x000000000202c408                std::type_info::__do_catch(std::type_info const*, void**, unsigned int) const
 .text._ZNKSt10bad_typeid4whatEv
                0x000000000202c414        0x8 /home/linux/devkitPro/devkitARM/bin/../lib/gcc/arm-none-eabi/4.8.2/../../../../arm-none-eabi/lib/thumb/libstdc++.a(bad_typeid.o)
                0x000000000202c414                std::bad_typeid::what() const
 .text._ZNSt10bad_typeidD2Ev
                0x000000000202c41c       0x1c /home/linux/devkitPro/devkitARM/bin/../lib/gcc/arm-none-eabi/4.8.2/../../../../arm-none-eabi/lib/thumb/libstdc++.a(bad_typeid.o)
                0x000000000202c41c                std::bad_typeid::~bad_typeid()
                0x000000000202c41c                std::bad_typeid::~bad_typeid()
 .text._ZNSt10bad_typeidD0Ev
                0x000000000202c438       0x20 /home/linux/devkitPro/devkitARM/bin/../lib/gcc/arm-none-eabi/4.8.2/../../../../arm-none-eabi/lib/thumb/libstdc++.a(bad_typeid.o)
                0x000000000202c438                std::bad_typeid::~bad_typeid()
 .text._ZNKSt8ios_base7failure4whatEv
                0x000000000202c458        0x4 /home/linux/devkitPro/devkitARM/bin/../lib/gcc/arm-none-eabi/4.8.2/../../../../arm-none-eabi/lib/thumb/libstdc++.a(ios_failure.o)
                0x000000000202c458                std::ios_base::failure::what() const
 .text._ZNSt8ios_base7failureD2Ev
                0x000000000202c45c       0x44 /home/linux/devkitPro/devkitARM/bin/../lib/gcc/arm-none-eabi/4.8.2/../../../../arm-none-eabi/lib/thumb/libstdc++.a(ios_failure.o)
                0x000000000202c45c                std::ios_base::failure::~failure()
                0x000000000202c45c                std::ios_base::failure::~failure()
 .text._ZNSt8ios_base7failureD0Ev
                0x000000000202c4a0       0x18 /home/linux/devkitPro/devkitARM/bin/../lib/gcc/arm-none-eabi/4.8.2/../../../../arm-none-eabi/lib/thumb/libstdc++.a(ios_failure.o)
                0x000000000202c4a0                std::ios_base::failure::~failure()
 .text._ZNSt8ios_base7failureC2ERKSs
                0x000000000202c4b8       0x34 /home/linux/devkitPro/devkitARM/bin/../lib/gcc/arm-none-eabi/4.8.2/../../../../arm-none-eabi/lib/thumb/libstdc++.a(ios_failure.o)
                0x000000000202c4b8                std::ios_base::failure::failure(std::string const&)
                0x000000000202c4b8                std::ios_base::failure::failure(std::string const&)
 .text._ZNKSt11logic_error4whatEv
                0x000000000202c4ec        0x4 /home/linux/devkitPro/devkitARM/bin/../lib/gcc/arm-none-eabi/4.8.2/../../../../arm-none-eabi/lib/thumb/libstdc++.a(stdexcept.o)
                0x000000000202c4ec                std::logic_error::what() const
 .text._ZNKSt13runtime_error4whatEv
                0x000000000202c4f0        0x4 /home/linux/devkitPro/devkitARM/bin/../lib/gcc/arm-none-eabi/4.8.2/../../../../arm-none-eabi/lib/thumb/libstdc++.a(stdexcept.o)
                0x000000000202c4f0                std::runtime_error::what() const
 .text._ZNSt11logic_errorD2Ev
                0x000000000202c4f4       0x44 /home/linux/devkitPro/devkitARM/bin/../lib/gcc/arm-none-eabi/4.8.2/../../../../arm-none-eabi/lib/thumb/libstdc++.a(stdexcept.o)
                0x000000000202c4f4                std::logic_error::~logic_error()
                0x000000000202c4f4                std::logic_error::~logic_error()
 .text._ZNSt11logic_errorD0Ev
                0x000000000202c538       0x18 /home/linux/devkitPro/devkitARM/bin/../lib/gcc/arm-none-eabi/4.8.2/../../../../arm-none-eabi/lib/thumb/libstdc++.a(stdexcept.o)
                0x000000000202c538                std::logic_error::~logic_error()
 .text._ZNSt12domain_errorD2Ev
                0x000000000202c550       0x1c /home/linux/devkitPro/devkitARM/bin/../lib/gcc/arm-none-eabi/4.8.2/../../../../arm-none-eabi/lib/thumb/libstdc++.a(stdexcept.o)
                0x000000000202c550                std::domain_error::~domain_error()
                0x000000000202c550                std::domain_error::~domain_error()
 .text._ZNSt12domain_errorD0Ev
                0x000000000202c56c       0x20 /home/linux/devkitPro/devkitARM/bin/../lib/gcc/arm-none-eabi/4.8.2/../../../../arm-none-eabi/lib/thumb/libstdc++.a(stdexcept.o)
                0x000000000202c56c                std::domain_error::~domain_error()
 .text._ZNSt16invalid_argumentD2Ev
                0x000000000202c58c       0x1c /home/linux/devkitPro/devkitARM/bin/../lib/gcc/arm-none-eabi/4.8.2/../../../../arm-none-eabi/lib/thumb/libstdc++.a(stdexcept.o)
                0x000000000202c58c                std::invalid_argument::~invalid_argument()
                0x000000000202c58c                std::invalid_argument::~invalid_argument()
 .text._ZNSt16invalid_argumentD0Ev
                0x000000000202c5a8       0x20 /home/linux/devkitPro/devkitARM/bin/../lib/gcc/arm-none-eabi/4.8.2/../../../../arm-none-eabi/lib/thumb/libstdc++.a(stdexcept.o)
                0x000000000202c5a8                std::invalid_argument::~invalid_argument()
 .text._ZNSt12length_errorD2Ev
                0x000000000202c5c8       0x1c /home/linux/devkitPro/devkitARM/bin/../lib/gcc/arm-none-eabi/4.8.2/../../../../arm-none-eabi/lib/thumb/libstdc++.a(stdexcept.o)
                0x000000000202c5c8                std::length_error::~length_error()
                0x000000000202c5c8                std::length_error::~length_error()
 .text._ZNSt12length_errorD0Ev
                0x000000000202c5e4       0x20 /home/linux/devkitPro/devkitARM/bin/../lib/gcc/arm-none-eabi/4.8.2/../../../../arm-none-eabi/lib/thumb/libstdc++.a(stdexcept.o)
                0x000000000202c5e4                std::length_error::~length_error()
 .text._ZNSt12out_of_rangeD2Ev
                0x000000000202c604       0x1c /home/linux/devkitPro/devkitARM/bin/../lib/gcc/arm-none-eabi/4.8.2/../../../../arm-none-eabi/lib/thumb/libstdc++.a(stdexcept.o)
                0x000000000202c604                std::out_of_range::~out_of_range()
                0x000000000202c604                std::out_of_range::~out_of_range()
 .text._ZNSt12out_of_rangeD0Ev
                0x000000000202c620       0x20 /home/linux/devkitPro/devkitARM/bin/../lib/gcc/arm-none-eabi/4.8.2/../../../../arm-none-eabi/lib/thumb/libstdc++.a(stdexcept.o)
                0x000000000202c620                std::out_of_range::~out_of_range()
 .text._ZNSt13runtime_errorD2Ev
                0x000000000202c640       0x44 /home/linux/devkitPro/devkitARM/bin/../lib/gcc/arm-none-eabi/4.8.2/../../../../arm-none-eabi/lib/thumb/libstdc++.a(stdexcept.o)
                0x000000000202c640                std::runtime_error::~runtime_error()
                0x000000000202c640                std::runtime_error::~runtime_error()
 .text._ZNSt13runtime_errorD0Ev
                0x000000000202c684       0x18 /home/linux/devkitPro/devkitARM/bin/../lib/gcc/arm-none-eabi/4.8.2/../../../../arm-none-eabi/lib/thumb/libstdc++.a(stdexcept.o)
                0x000000000202c684                std::runtime_error::~runtime_error()
 .text._ZNSt11range_errorD2Ev
                0x000000000202c69c       0x1c /home/linux/devkitPro/devkitARM/bin/../lib/gcc/arm-none-eabi/4.8.2/../../../../arm-none-eabi/lib/thumb/libstdc++.a(stdexcept.o)
                0x000000000202c69c                std::range_error::~range_error()
                0x000000000202c69c                std::range_error::~range_error()
 .text._ZNSt11range_errorD0Ev
                0x000000000202c6b8       0x20 /home/linux/devkitPro/devkitARM/bin/../lib/gcc/arm-none-eabi/4.8.2/../../../../arm-none-eabi/lib/thumb/libstdc++.a(stdexcept.o)
                0x000000000202c6b8                std::range_error::~range_error()
 .text._ZNSt14overflow_errorD2Ev
                0x000000000202c6d8       0x1c /home/linux/devkitPro/devkitARM/bin/../lib/gcc/arm-none-eabi/4.8.2/../../../../arm-none-eabi/lib/thumb/libstdc++.a(stdexcept.o)
                0x000000000202c6d8                std::overflow_error::~overflow_error()
                0x000000000202c6d8                std::overflow_error::~overflow_error()
 .text._ZNSt14overflow_errorD0Ev
                0x000000000202c6f4       0x20 /home/linux/devkitPro/devkitARM/bin/../lib/gcc/arm-none-eabi/4.8.2/../../../../arm-none-eabi/lib/thumb/libstdc++.a(stdexcept.o)
                0x000000000202c6f4                std::overflow_error::~overflow_error()
 .text._ZNSt15underflow_errorD2Ev
                0x000000000202c714       0x1c /home/linux/devkitPro/devkitARM/bin/../lib/gcc/arm-none-eabi/4.8.2/../../../../arm-none-eabi/lib/thumb/libstdc++.a(stdexcept.o)
                0x000000000202c714                std::underflow_error::~underflow_error()
                0x000000000202c714                std::underflow_error::~underflow_error()
 .text._ZNSt15underflow_errorD0Ev
                0x000000000202c730       0x20 /home/linux/devkitPro/devkitARM/bin/../lib/gcc/arm-none-eabi/4.8.2/../../../../arm-none-eabi/lib/thumb/libstdc++.a(stdexcept.o)
                0x000000000202c730                std::underflow_error::~underflow_error()
 .text._ZNSt11logic_errorC2ERKSs
                0x000000000202c750       0x24 /home/linux/devkitPro/devkitARM/bin/../lib/gcc/arm-none-eabi/4.8.2/../../../../arm-none-eabi/lib/thumb/libstdc++.a(stdexcept.o)
                0x000000000202c750                std::logic_error::logic_error(std::string const&)
                0x000000000202c750                std::logic_error::logic_error(std::string const&)
 .text._ZNSt12domain_errorC2ERKSs
                0x000000000202c774       0x1c /home/linux/devkitPro/devkitARM/bin/../lib/gcc/arm-none-eabi/4.8.2/../../../../arm-none-eabi/lib/thumb/libstdc++.a(stdexcept.o)
                0x000000000202c774                std::domain_error::domain_error(std::string const&)
                0x000000000202c774                std::domain_error::domain_error(std::string const&)
 .text._ZNSt16invalid_argumentC2ERKSs
                0x000000000202c790       0x1c /home/linux/devkitPro/devkitARM/bin/../lib/gcc/arm-none-eabi/4.8.2/../../../../arm-none-eabi/lib/thumb/libstdc++.a(stdexcept.o)
                0x000000000202c790                std::invalid_argument::invalid_argument(std::string const&)
                0x000000000202c790                std::invalid_argument::invalid_argument(std::string const&)
 .text._ZNSt12length_errorC2ERKSs
                0x000000000202c7ac       0x1c /home/linux/devkitPro/devkitARM/bin/../lib/gcc/arm-none-eabi/4.8.2/../../../../arm-none-eabi/lib/thumb/libstdc++.a(stdexcept.o)
                0x000000000202c7ac                std::length_error::length_error(std::string const&)
                0x000000000202c7ac                std::length_error::length_error(std::string const&)
 .text._ZNSt12out_of_rangeC2ERKSs
                0x000000000202c7c8       0x1c /home/linux/devkitPro/devkitARM/bin/../lib/gcc/arm-none-eabi/4.8.2/../../../../arm-none-eabi/lib/thumb/libstdc++.a(stdexcept.o)
                0x000000000202c7c8                std::out_of_range::out_of_range(std::string const&)
                0x000000000202c7c8                std::out_of_range::out_of_range(std::string const&)
 .text._ZNSt13runtime_errorC2ERKSs
                0x000000000202c7e4       0x24 /home/linux/devkitPro/devkitARM/bin/../lib/gcc/arm-none-eabi/4.8.2/../../../../arm-none-eabi/lib/thumb/libstdc++.a(stdexcept.o)
                0x000000000202c7e4                std::runtime_error::runtime_error(std::string const&)
                0x000000000202c7e4                std::runtime_error::runtime_error(std::string const&)
 .text._ZNSt11range_errorC2ERKSs
                0x000000000202c808       0x1c /home/linux/devkitPro/devkitARM/bin/../lib/gcc/arm-none-eabi/4.8.2/../../../../arm-none-eabi/lib/thumb/libstdc++.a(stdexcept.o)
                0x000000000202c808                std::range_error::range_error(std::string const&)
                0x000000000202c808                std::range_error::range_error(std::string const&)
 .text._ZNSt14overflow_errorC2ERKSs
                0x000000000202c824       0x1c /home/linux/devkitPro/devkitARM/bin/../lib/gcc/arm-none-eabi/4.8.2/../../../../arm-none-eabi/lib/thumb/libstdc++.a(stdexcept.o)
                0x000000000202c824                std::overflow_error::overflow_error(std::string const&)
                0x000000000202c824                std::overflow_error::overflow_error(std::string const&)
 .text._ZNSt15underflow_errorC2ERKSs
                0x000000000202c840       0x1c /home/linux/devkitPro/devkitARM/bin/../lib/gcc/arm-none-eabi/4.8.2/../../../../arm-none-eabi/lib/thumb/libstdc++.a(stdexcept.o)
                0x000000000202c840                std::underflow_error::underflow_error(std::string const&)
                0x000000000202c840                std::underflow_error::underflow_error(std::string const&)
 .text._ZNKSt17bad_function_call4whatEv
                0x000000000202c85c        0x8 /home/linux/devkitPro/devkitARM/bin/../lib/gcc/arm-none-eabi/4.8.2/../../../../arm-none-eabi/lib/thumb/libstdc++.a(functional.o)
                0x000000000202c85c                std::bad_function_call::what() const
 .text._ZNSt17bad_function_callD2Ev
                0x000000000202c864       0x1c /home/linux/devkitPro/devkitARM/bin/../lib/gcc/arm-none-eabi/4.8.2/../../../../arm-none-eabi/lib/thumb/libstdc++.a(functional.o)
                0x000000000202c864                std::bad_function_call::~bad_function_call()
                0x000000000202c864                std::bad_function_call::~bad_function_call()
 .text._ZNSt17bad_function_callD0Ev
                0x000000000202c880       0x20 /home/linux/devkitPro/devkitARM/bin/../lib/gcc/arm-none-eabi/4.8.2/../../../../arm-none-eabi/lib/thumb/libstdc++.a(functional.o)
                0x000000000202c880                std::bad_function_call::~bad_function_call()
 .text._ZNK12_GLOBAL__N_121future_error_category4nameEv
                0x000000000202c8a0        0x8 /home/linux/devkitPro/devkitARM/bin/../lib/gcc/arm-none-eabi/4.8.2/../../../../arm-none-eabi/lib/thumb/libstdc++.a(future.o)
 .text._ZN12_GLOBAL__N_121future_error_categoryD2Ev
                0x000000000202c8a8       0x1c /home/linux/devkitPro/devkitARM/bin/../lib/gcc/arm-none-eabi/4.8.2/../../../../arm-none-eabi/lib/thumb/libstdc++.a(future.o)
 .text._ZN12_GLOBAL__N_121future_error_categoryD0Ev
                0x000000000202c8c4       0x20 /home/linux/devkitPro/devkitARM/bin/../lib/gcc/arm-none-eabi/4.8.2/../../../../arm-none-eabi/lib/thumb/libstdc++.a(future.o)
 .text._ZNSt12future_errorD2Ev
                0x000000000202c8e4       0x1c /home/linux/devkitPro/devkitARM/bin/../lib/gcc/arm-none-eabi/4.8.2/../../../../arm-none-eabi/lib/thumb/libstdc++.a(future.o)
                0x000000000202c8e4                std::future_error::~future_error()
                0x000000000202c8e4                std::future_error::~future_error()
 .text._ZNSt12future_errorD0Ev
                0x000000000202c900       0x20 /home/linux/devkitPro/devkitARM/bin/../lib/gcc/arm-none-eabi/4.8.2/../../../../arm-none-eabi/lib/thumb/libstdc++.a(future.o)
                0x000000000202c900                std::future_error::~future_error()
 .text._ZNKSt12future_error4whatEv
                0x000000000202c920       0x44 /home/linux/devkitPro/devkitARM/bin/../lib/gcc/arm-none-eabi/4.8.2/../../../../arm-none-eabi/lib/thumb/libstdc++.a(future.o)
                0x000000000202c920                std::future_error::what() const
 .text._ZNK12_GLOBAL__N_121future_error_category7messageEi
                0x000000000202c964       0x80 /home/linux/devkitPro/devkitARM/bin/../lib/gcc/arm-none-eabi/4.8.2/../../../../arm-none-eabi/lib/thumb/libstdc++.a(future.o)
 .text._ZSt15future_categoryv
                0x000000000202c9e4       0x58 /home/linux/devkitPro/devkitARM/bin/../lib/gcc/arm-none-eabi/4.8.2/../../../../arm-none-eabi/lib/thumb/libstdc++.a(future.o)
                0x000000000202c9e4                std::future_category()
 .text._ZNSt11regex_errorD2Ev
                0x000000000202ca3c       0x1c /home/linux/devkitPro/devkitARM/bin/../lib/gcc/arm-none-eabi/4.8.2/../../../../arm-none-eabi/lib/thumb/libstdc++.a(regex.o)
                0x000000000202ca3c                std::regex_error::~regex_error()
                0x000000000202ca3c                std::regex_error::~regex_error()
 .text._ZNSt11regex_errorD0Ev
                0x000000000202ca58       0x20 /home/linux/devkitPro/devkitARM/bin/../lib/gcc/arm-none-eabi/4.8.2/../../../../arm-none-eabi/lib/thumb/libstdc++.a(regex.o)
                0x000000000202ca58                std::regex_error::~regex_error()
 .text._ZNSt11regex_errorC2ENSt15regex_constants10error_typeE
                0x000000000202ca78       0x68 /home/linux/devkitPro/devkitARM/bin/../lib/gcc/arm-none-eabi/4.8.2/../../../../arm-none-eabi/lib/thumb/libstdc++.a(regex.o)
                0x000000000202ca78                std::regex_error::regex_error(std::regex_constants::error_type)
                0x000000000202ca78                std::regex_error::regex_error(std::regex_constants::error_type)
 .text._ZNK12_GLOBAL__N_122generic_error_category4nameEv
                0x000000000202cae0        0x8 /home/linux/devkitPro/devkitARM/bin/../lib/gcc/arm-none-eabi/4.8.2/../../../../arm-none-eabi/lib/thumb/libstdc++.a(system_error.o)
 .text._ZNK12_GLOBAL__N_121system_error_category4nameEv
                0x000000000202cae8        0x8 /home/linux/devkitPro/devkitARM/bin/../lib/gcc/arm-none-eabi/4.8.2/../../../../arm-none-eabi/lib/thumb/libstdc++.a(system_error.o)
 .text._ZNSt14error_categoryD2Ev
                0x000000000202caf0        0xc /home/linux/devkitPro/devkitARM/bin/../lib/gcc/arm-none-eabi/4.8.2/../../../../arm-none-eabi/lib/thumb/libstdc++.a(system_error.o)
                0x000000000202caf0                std::error_category::~error_category()
                0x000000000202caf0                std::error_category::~error_category()
 .text._ZNKSt14error_category23default_error_conditionEi
                0x000000000202cafc        0x8 /home/linux/devkitPro/devkitARM/bin/../lib/gcc/arm-none-eabi/4.8.2/../../../../arm-none-eabi/lib/thumb/libstdc++.a(system_error.o)
                0x000000000202cafc                std::error_category::default_error_condition(int) const
 .text._ZNKSt14error_category10equivalentEiRKSt15error_condition
                0x000000000202cb04       0x38 /home/linux/devkitPro/devkitARM/bin/../lib/gcc/arm-none-eabi/4.8.2/../../../../arm-none-eabi/lib/thumb/libstdc++.a(system_error.o)
                0x000000000202cb04                std::error_category::equivalent(int, std::error_condition const&) const
 .text._ZNKSt14error_category10equivalentERKSt10error_codei
                0x000000000202cb3c       0x1c /home/linux/devkitPro/devkitARM/bin/../lib/gcc/arm-none-eabi/4.8.2/../../../../arm-none-eabi/lib/thumb/libstdc++.a(system_error.o)
                0x000000000202cb3c                std::error_category::equivalent(std::error_code const&, int) const
 .text._ZN12_GLOBAL__N_121system_error_categoryD2Ev
                0x000000000202cb58        0xc /home/linux/devkitPro/devkitARM/bin/../lib/gcc/arm-none-eabi/4.8.2/../../../../arm-none-eabi/lib/thumb/libstdc++.a(system_error.o)
 .text._ZN12_GLOBAL__N_122generic_error_categoryD2Ev
                0x000000000202cb64        0xc /home/linux/devkitPro/devkitARM/bin/../lib/gcc/arm-none-eabi/4.8.2/../../../../arm-none-eabi/lib/thumb/libstdc++.a(system_error.o)
 .text._ZNSt14error_categoryD0Ev
                0x000000000202cb70       0x1c /home/linux/devkitPro/devkitARM/bin/../lib/gcc/arm-none-eabi/4.8.2/../../../../arm-none-eabi/lib/thumb/libstdc++.a(system_error.o)
                0x000000000202cb70                std::error_category::~error_category()
 .text._ZN12_GLOBAL__N_121system_error_categoryD0Ev
                0x000000000202cb8c       0x1c /home/linux/devkitPro/devkitARM/bin/../lib/gcc/arm-none-eabi/4.8.2/../../../../arm-none-eabi/lib/thumb/libstdc++.a(system_error.o)
 .text._ZN12_GLOBAL__N_122generic_error_categoryD0Ev
                0x000000000202cba8       0x1c /home/linux/devkitPro/devkitARM/bin/../lib/gcc/arm-none-eabi/4.8.2/../../../../arm-none-eabi/lib/thumb/libstdc++.a(system_error.o)
 .text._ZNSt12system_errorD2Ev
                0x000000000202cbc4       0x1c /home/linux/devkitPro/devkitARM/bin/../lib/gcc/arm-none-eabi/4.8.2/../../../../arm-none-eabi/lib/thumb/libstdc++.a(system_error.o)
                0x000000000202cbc4                std::system_error::~system_error()
                0x000000000202cbc4                std::system_error::~system_error()
 .text._ZNSt12system_errorD0Ev
                0x000000000202cbe0       0x20 /home/linux/devkitPro/devkitARM/bin/../lib/gcc/arm-none-eabi/4.8.2/../../../../arm-none-eabi/lib/thumb/libstdc++.a(system_error.o)
                0x000000000202cbe0                std::system_error::~system_error()
 .text._ZNK12_GLOBAL__N_121system_error_category7messageEi
                0x000000000202cc00       0x20 /home/linux/devkitPro/devkitARM/bin/../lib/gcc/arm-none-eabi/4.8.2/../../../../arm-none-eabi/lib/thumb/libstdc++.a(system_error.o)
 .text._ZNK12_GLOBAL__N_122generic_error_category7messageEi
                0x000000000202cc20       0x20 /home/linux/devkitPro/devkitARM/bin/../lib/gcc/arm-none-eabi/4.8.2/../../../../arm-none-eabi/lib/thumb/libstdc++.a(system_error.o)
 .text._ZNSt14error_categoryC2Ev
                0x000000000202cc40        0xc /home/linux/devkitPro/devkitARM/bin/../lib/gcc/arm-none-eabi/4.8.2/../../../../arm-none-eabi/lib/thumb/libstdc++.a(system_error.o)
                0x000000000202cc40                std::error_category::error_category()
                0x000000000202cc40                std::error_category::error_category()
 .text._ZSt15system_categoryv
                0x000000000202cc4c        0x8 /home/linux/devkitPro/devkitARM/bin/../lib/gcc/arm-none-eabi/4.8.2/../../../../arm-none-eabi/lib/thumb/libstdc++.a(system_error.o)
                0x000000000202cc4c                std::system_category()
 .text._ZSt16generic_categoryv
                0x000000000202cc54        0x8 /home/linux/devkitPro/devkitARM/bin/../lib/gcc/arm-none-eabi/4.8.2/../../../../arm-none-eabi/lib/thumb/libstdc++.a(system_error.o)
                0x000000000202cc54                std::generic_category()
 .text._ZNKSt10error_code23default_error_conditionEv
                0x000000000202cc5c       0x20 /home/linux/devkitPro/devkitARM/bin/../lib/gcc/arm-none-eabi/4.8.2/../../../../arm-none-eabi/lib/thumb/libstdc++.a(system_error.o)
                0x000000000202cc5c                std::error_code::default_error_condition() const
 .text.startup._GLOBAL__sub_I__ZNSt14error_categoryC2Ev
                0x000000000202cc7c       0x48 /home/linux/devkitPro/devkitARM/bin/../lib/gcc/arm-none-eabi/4.8.2/../../../../arm-none-eabi/lib/thumb/libstdc++.a(system_error.o)
 .text.__cxa_guard_acquire
                0x000000000202ccc4       0x3c /home/linux/devkitPro/devkitARM/bin/../lib/gcc/arm-none-eabi/4.8.2/../../../../arm-none-eabi/lib/thumb/libstdc++.a(guard.o)
                0x000000000202ccc4                __cxa_guard_acquire
 .text.__cxa_guard_abort
                0x000000000202cd00        0x8 /home/linux/devkitPro/devkitARM/bin/../lib/gcc/arm-none-eabi/4.8.2/../../../../arm-none-eabi/lib/thumb/libstdc++.a(guard.o)
                0x000000000202cd00                __cxa_guard_abort
 .text.__cxa_guard_release
                0x000000000202cd08        0x8 /home/linux/devkitPro/devkitARM/bin/../lib/gcc/arm-none-eabi/4.8.2/../../../../arm-none-eabi/lib/thumb/libstdc++.a(guard.o)
                0x000000000202cd08                __cxa_guard_release
 .text._ZN9__gnu_cxx27__verbose_terminate_handlerEv
                0x000000000202cd10      0x11c /home/linux/devkitPro/devkitARM/bin/../lib/gcc/arm-none-eabi/4.8.2/../../../../arm-none-eabi/lib/thumb/libstdc++.a(vterminate.o)
                0x000000000202cd10                __gnu_cxx::__verbose_terminate_handler()
 .text._ZN9__gnu_cxx20recursive_init_errorD2Ev
                0x000000000202ce2c       0x1c /home/linux/devkitPro/devkitARM/bin/../lib/gcc/arm-none-eabi/4.8.2/../../../../arm-none-eabi/lib/thumb/libstdc++.a(guard_error.o)
                0x000000000202ce2c                __gnu_cxx::recursive_init_error::~recursive_init_error()
                0x000000000202ce2c                __gnu_cxx::recursive_init_error::~recursive_init_error()
 .text._ZN9__gnu_cxx20recursive_init_errorD0Ev
                0x000000000202ce48       0x20 /home/linux/devkitPro/devkitARM/bin/../lib/gcc/arm-none-eabi/4.8.2/../../../../arm-none-eabi/lib/thumb/libstdc++.a(guard_error.o)
                0x000000000202ce48                __gnu_cxx::recursive_init_error::~recursive_init_error()
 .text.__cxa_current_exception_type
                0x000000000202ce68       0x28 /home/linux/devkitPro/devkitARM/bin/../lib/gcc/arm-none-eabi/4.8.2/../../../../arm-none-eabi/lib/thumb/libstdc++.a(eh_type.o)
                0x000000000202ce68                __cxa_current_exception_type
 .text.__cxa_current_exception_type.__stub
                0x000000000202ce90      0x150 linker stubs
 *(.stub)
 *(.gnu.warning)
 *(.gnu.linkonce.t*)
 *(.glue_7)
 .glue_7        0x0000000000000000        0x0 linker stubs
 *(.glue_7t)
 .glue_7t       0x0000000000000000        0x0 linker stubs
                0x000000000202cfe0                . = ALIGN (0x4)

.vfp11_veneer   0x000000000202cff0        0x0
 .vfp11_veneer  0x0000000000000000        0x0 linker stubs

.v4_bx          0x000000000202cff0        0x0
 .v4_bx         0x0000000000000000        0x0 linker stubs

.iplt           0x000000000202cff0        0x0
 .iplt          0x0000000000000000        0x0 /home/linux/devkitPro/devkitARM/bin/../lib/gcc/arm-none-eabi/4.8.2/../../../../arm-none-eabi/lib/thumb/ds_arm9_crt0.o

.fini           0x000000000202cff0        0xc
 *(.fini)
 .fini          0x000000000202cff0        0x4 /home/linux/devkitPro/devkitARM/bin/../lib/gcc/arm-none-eabi/4.8.2/thumb/crti.o
                0x000000000202cff0                _fini
 .fini          0x000000000202cff4        0x8 /home/linux/devkitPro/devkitARM/bin/../lib/gcc/arm-none-eabi/4.8.2/thumb/crtn.o
                0x000000000202cffc                __text_end = .

.rodata         0x000000000202d000    0x3b230
 *(.rodata)
 .rodata        0x000000000202d000    0x10200 plain.o
                0x000000000202d000                plainTiles
                0x000000000203d000                plainPal
 .rodata        0x000000000203d200    0x10200 underground.o
                0x000000000203d200                undergroundTiles
                0x000000000204d200                undergroundPal
 .rodata        0x000000000204d400    0x10200 indoor.o
                0x000000000204d400                indoorTiles
                0x000000000205d400                indoorPal
 .rodata        0x000000000205d600      0x600 link.o
                0x000000000205d600                linkTiles
                0x000000000205da00                linkPal
 .rodata        0x000000000205dc00       0x80 grass_effect.o
                0x000000000205dc00                grass_effectTiles
 .rodata        0x000000000205dc80      0x180 water_effect.o
                0x000000000205dc80                water_effectTiles
 .rodata        0x000000000205de00       0x64 /home/linux/devkitPro/libnds/lib/libfat.a(libfat.o)
 .rodata        0x000000000205de64        0xc /home/linux/devkitPro/libnds/lib/libfat.a(partition.o)
 .rodata        0x000000000205de70       0x54 /home/linux/devkitPro/libnds/lib/libfat.a(directory.o)
 .rodata        0x000000000205dec4       0x18 /home/linux/devkitPro/libnds/lib/libfat.a(disc.o)
                0x000000000205dec4                _FAT_disc_interfaces
 .rodata        0x000000000205dedc      0x200 /home/linux/devkitPro/libnds/lib/libnds9.a(console.o)
 .rodata        0x000000000205e0dc       0x40 /home/linux/devkitPro/libnds/lib/libnds9.a(gurumeditation.o)
 .rodata        0x000000000205e11c      0x308 /home/linux/devkitPro/libnds/lib/libnds9.a(trig.o)
                0x000000000205e11c                SIN_LUT
                0x000000000205e220                TAN_LUT
 .rodata        0x000000000205e424        0xc /home/linux/devkitPro/libnds/lib/libnds9.a(dldi.o)
                0x000000000205e424                DLDI_MAGIC_STRING_BACKWARDS
                0x000000000205e42c                DLDI_MAGIC_NUMBER
 .rodata        0x000000000205e430       0x20 /home/linux/devkitPro/libnds/lib/libnds9.a(dsi_sd.o)
                0x000000000205e430                __io_dsisd
 .rodata        0x000000000205e450     0x2004 /home/linux/devkitPro/libnds/lib/libnds9.a(default_font.bin.o)
                0x000000000205e450                default_font_bin
                0x0000000002060450                default_font_bin_end
                0x0000000002060450                default_font_bin_size
 .rodata        0x0000000002060454     0x1020 /home/linux/devkitPro/devkitARM/bin/../lib/gcc/arm-none-eabi/4.8.2/../../../../arm-none-eabi/lib/thumb/libstdc++.a(cp-demangle.o)
 .rodata        0x0000000002061474      0x104 /home/linux/devkitPro/devkitARM/bin/../lib/gcc/arm-none-eabi/4.8.2/../../../../arm-none-eabi/lib/thumb/libg.a(lib_a-ctype_.o)
                0x0000000002061474                _ctype_
 .rodata        0x0000000002061578        0x4 /home/linux/devkitPro/devkitARM/bin/../lib/gcc/arm-none-eabi/4.8.2/../../../../arm-none-eabi/lib/thumb/libg.a(lib_a-impure.o)
                0x0000000002061578                _global_impure_ptr
 .rodata        0x000000000206157c       0xf0 /home/linux/devkitPro/devkitARM/bin/../lib/gcc/arm-none-eabi/4.8.2/../../../../arm-none-eabi/lib/thumb/libg.a(lib_a-locale.o)
 .rodata        0x000000000206166c       0xa8 /home/linux/devkitPro/devkitARM/bin/../lib/gcc/arm-none-eabi/4.8.2/../../../../arm-none-eabi/lib/thumb/libg.a(lib_a-mbtowc_r.o)
 .rodata        0x0000000002061714       0x60 /home/linux/devkitPro/devkitARM/bin/../lib/gcc/arm-none-eabi/4.8.2/../../../../arm-none-eabi/lib/thumb/libg.a(lib_a-mktime.o)
 .rodata        0x0000000002061774       0x68 /home/linux/devkitPro/devkitARM/bin/../lib/gcc/arm-none-eabi/4.8.2/../../../../arm-none-eabi/lib/thumb/libg.a(lib_a-mktm_r.o)
 .rodata        0x00000000020617dc      0x23c /home/linux/devkitPro/devkitARM/bin/../lib/gcc/arm-none-eabi/4.8.2/../../../../arm-none-eabi/lib/thumb/libg.a(lib_a-strerror.o)
 .rodata        0x0000000002061a18      0x340 /home/linux/devkitPro/devkitARM/bin/../lib/gcc/arm-none-eabi/4.8.2/../../../../arm-none-eabi/lib/thumb/libg.a(lib_a-svfiscanf.o)
 .rodata        0x0000000002061d58      0x184 /home/linux/devkitPro/devkitARM/bin/../lib/gcc/arm-none-eabi/4.8.2/../../../../arm-none-eabi/lib/thumb/libg.a(lib_a-svfprintf.o)
 .rodata        0x0000000002061edc      0x674 /home/linux/devkitPro/devkitARM/bin/../lib/gcc/arm-none-eabi/4.8.2/../../../../arm-none-eabi/lib/thumb/libg.a(lib_a-towlower.o)
 .rodata        0x0000000002062550      0x3e4 /home/linux/devkitPro/devkitARM/bin/../lib/gcc/arm-none-eabi/4.8.2/../../../../arm-none-eabi/lib/thumb/libg.a(lib_a-towupper.o)
 .rodata        0x0000000002062934      0x184 /home/linux/devkitPro/devkitARM/bin/../lib/gcc/arm-none-eabi/4.8.2/../../../../arm-none-eabi/lib/thumb/libg.a(lib_a-vfiprintf.o)
 .rodata        0x0000000002062ab8      0x184 /home/linux/devkitPro/devkitARM/bin/../lib/gcc/arm-none-eabi/4.8.2/../../../../arm-none-eabi/lib/thumb/libg.a(lib_a-vfprintf.o)
 .rodata        0x0000000002062c3c     0x34f0 /home/linux/devkitPro/devkitARM/bin/../lib/gcc/arm-none-eabi/4.8.2/../../../../arm-none-eabi/lib/thumb/libg.a(lib_a-jp2uc.o)
 *fill*         0x000000000206612c        0x4 ff
 .rodata        0x0000000002066130      0x128 /home/linux/devkitPro/devkitARM/bin/../lib/gcc/arm-none-eabi/4.8.2/../../../../arm-none-eabi/lib/thumb/libg.a(lib_a-mprec.o)
                0x0000000002066140                __mprec_tens
                0x0000000002066208                __mprec_tinytens
                0x0000000002066230                __mprec_bigtens
 .rodata        0x0000000002066258      0x184 /home/linux/devkitPro/devkitARM/bin/../lib/gcc/arm-none-eabi/4.8.2/../../../../arm-none-eabi/lib/thumb/libg.a(lib_a-svfiprintf.o)
 .rodata        0x00000000020663dc       0x64 /home/linux/devkitPro/devkitARM/bin/../lib/gcc/arm-none-eabi/4.8.2/../../../../arm-none-eabi/lib/thumb/libsysbase.a(iosupport.o)
                0x00000000020663dc                dotab_stdnull
 .rodata        0x0000000002066440        0xc /home/linux/devkitPro/devkitARM/bin/../lib/gcc/arm-none-eabi/4.8.2/../../../../arm-none-eabi/lib/thumb/libsysbase.a(chdir.o)
                0x0000000002066440                DIRECTORY_PARENT
                0x0000000002066444                DIRECTORY_THIS
                0x0000000002066448                DIRECTORY_SEPARATOR
 *all.rodata*(*)
 *(.roda)
 *(.rodata.*)
 .rodata.str1.4
                0x000000000206644c       0x63 Game.o
                                         0x64 (size before relaxing)
 *fill*         0x00000000020664af        0x1 ff
 .rodata.str1.4
                0x00000000020664b0       0x11 Map.o
                                         0x18 (size before relaxing)
 *fill*         0x00000000020664c1        0x3 ff
 .rodata.str1.4
                0x00000000020664c4      0x144 MapManager.o
 .rodata.str1.4
                0x0000000002066608       0x1e /home/linux/devkitPro/libnds/lib/libfilesystem.a(nitrofs.o)
                                         0x20 (size before relaxing)
 *fill*         0x0000000002066626        0x2 ff
 .rodata.str1.4
                0x0000000002066628        0xc /home/linux/devkitPro/libnds/lib/libfat.a(libfat.o)
                                         0x14 (size before relaxing)
 .rodata.str1.4
                0x0000000000000000        0x8 /home/linux/devkitPro/libnds/lib/libfat.a(directory.o)
 .rodata.str1.4
                0x0000000000000000        0x8 /home/linux/devkitPro/libnds/lib/libfat.a(disc.o)
 .rodata.str1.4
                0x0000000002066634        0x5 /home/linux/devkitPro/libnds/lib/libfat.a(fatdir.o)
                                          0x8 (size before relaxing)
 *fill*         0x0000000002066639        0x3 ff
 .rodata.str1.4
                0x000000000206663c       0x4c /home/linux/devkitPro/libnds/lib/libnds9.a(console.o)
 .rodata.str1.4
                0x0000000002066688       0xd8 /home/linux/devkitPro/libnds/lib/libnds9.a(gurumeditation.o)
                                         0xdc (size before relaxing)
 .rodata.str1.4
                0x0000000002066760       0x42 /home/linux/devkitPro/libnds/lib/libnds9.a(sassert.o)
                                         0x44 (size before relaxing)
 *fill*         0x00000000020667a2        0x2 ff
 .rodata._ZL28read_encoded_value_with_basehjPKhPj
                0x00000000020667a4       0x34 /home/linux/devkitPro/devkitARM/bin/../lib/gcc/arm-none-eabi/4.8.2/../../../../arm-none-eabi/lib/thumb/libstdc++.a(eh_personality.o)
 .rodata._ZTVN10__cxxabiv115__forced_unwindE
                0x00000000020667d8       0x18 /home/linux/devkitPro/devkitARM/bin/../lib/gcc/arm-none-eabi/4.8.2/../../../../arm-none-eabi/lib/thumb/libstdc++.a(eh_exception.o)
                0x00000000020667d8                vtable for __cxxabiv1::__forced_unwind
 .rodata._ZTVSt9exception
                0x00000000020667f0       0x18 /home/linux/devkitPro/devkitARM/bin/../lib/gcc/arm-none-eabi/4.8.2/../../../../arm-none-eabi/lib/thumb/libstdc++.a(eh_exception.o)
                0x00000000020667f0                vtable for std::exception
 .rodata._ZTIN10__cxxabiv115__forced_unwindE
                0x0000000002066808        0x8 /home/linux/devkitPro/devkitARM/bin/../lib/gcc/arm-none-eabi/4.8.2/../../../../arm-none-eabi/lib/thumb/libstdc++.a(eh_exception.o)
                0x0000000002066808                typeinfo for __cxxabiv1::__forced_unwind
 .rodata._ZTISt9exception
                0x0000000002066810        0x8 /home/linux/devkitPro/devkitARM/bin/../lib/gcc/arm-none-eabi/4.8.2/../../../../arm-none-eabi/lib/thumb/libstdc++.a(eh_exception.o)
                0x0000000002066810                typeinfo for std::exception
 .rodata._ZTSSt13bad_exception
                0x0000000002066818       0x14 /home/linux/devkitPro/devkitARM/bin/../lib/gcc/arm-none-eabi/4.8.2/../../../../arm-none-eabi/lib/thumb/libstdc++.a(eh_exception.o)
                0x0000000002066818                typeinfo name for std::bad_exception
 .rodata.str1.4
                0x000000000206682c       0x23 /home/linux/devkitPro/devkitARM/bin/../lib/gcc/arm-none-eabi/4.8.2/../../../../arm-none-eabi/lib/thumb/libstdc++.a(eh_exception.o)
                                         0x24 (size before relaxing)
 *fill*         0x000000000206684f        0x1 ff
 .rodata._ZTSN10__cxxabiv119__foreign_exceptionE
                0x0000000002066850       0x24 /home/linux/devkitPro/devkitARM/bin/../lib/gcc/arm-none-eabi/4.8.2/../../../../arm-none-eabi/lib/thumb/libstdc++.a(eh_exception.o)
                0x0000000002066850                typeinfo name for __cxxabiv1::__foreign_exception
 .rodata._ZTIN10__cxxabiv119__foreign_exceptionE
                0x0000000002066874        0x8 /home/linux/devkitPro/devkitARM/bin/../lib/gcc/arm-none-eabi/4.8.2/../../../../arm-none-eabi/lib/thumb/libstdc++.a(eh_exception.o)
                0x0000000002066874                typeinfo for __cxxabiv1::__foreign_exception
 *fill*         0x000000000206687c        0x4 ff
 .rodata._ZTVSt13bad_exception
                0x0000000002066880       0x18 /home/linux/devkitPro/devkitARM/bin/../lib/gcc/arm-none-eabi/4.8.2/../../../../arm-none-eabi/lib/thumb/libstdc++.a(eh_exception.o)
                0x0000000002066880                vtable for std::bad_exception
 .rodata._ZTSSt9exception
                0x0000000002066898       0x10 /home/linux/devkitPro/devkitARM/bin/../lib/gcc/arm-none-eabi/4.8.2/../../../../arm-none-eabi/lib/thumb/libstdc++.a(eh_exception.o)
                0x0000000002066898                typeinfo name for std::exception
 .rodata._ZTVN10__cxxabiv119__foreign_exceptionE
                0x00000000020668a8       0x18 /home/linux/devkitPro/devkitARM/bin/../lib/gcc/arm-none-eabi/4.8.2/../../../../arm-none-eabi/lib/thumb/libstdc++.a(eh_exception.o)
                0x00000000020668a8                vtable for __cxxabiv1::__foreign_exception
 .rodata._ZTSN10__cxxabiv115__forced_unwindE
                0x00000000020668c0       0x20 /home/linux/devkitPro/devkitARM/bin/../lib/gcc/arm-none-eabi/4.8.2/../../../../arm-none-eabi/lib/thumb/libstdc++.a(eh_exception.o)
                0x00000000020668c0                typeinfo name for __cxxabiv1::__forced_unwind
 .rodata._ZTISt13bad_exception
                0x00000000020668e0        0xc /home/linux/devkitPro/devkitARM/bin/../lib/gcc/arm-none-eabi/4.8.2/../../../../arm-none-eabi/lib/thumb/libstdc++.a(eh_exception.o)
                0x00000000020668e0                typeinfo for std::bad_exception
 *fill*         0x00000000020668ec        0x4 ff
 .rodata._ZTVSt9bad_alloc
                0x00000000020668f0       0x18 /home/linux/devkitPro/devkitARM/bin/../lib/gcc/arm-none-eabi/4.8.2/../../../../arm-none-eabi/lib/thumb/libstdc++.a(bad_alloc.o)
                0x00000000020668f0                vtable for std::bad_alloc
 .rodata._ZTISt9bad_alloc
                0x0000000002066908        0xc /home/linux/devkitPro/devkitARM/bin/../lib/gcc/arm-none-eabi/4.8.2/../../../../arm-none-eabi/lib/thumb/libstdc++.a(bad_alloc.o)
                0x0000000002066908                typeinfo for std::bad_alloc
 .rodata.str1.4
                0x0000000002066914        0xf /home/linux/devkitPro/devkitARM/bin/../lib/gcc/arm-none-eabi/4.8.2/../../../../arm-none-eabi/lib/thumb/libstdc++.a(bad_alloc.o)
                                         0x10 (size before relaxing)
 *fill*         0x0000000002066923        0x1 ff
 .rodata._ZTSSt9bad_alloc
                0x0000000002066924       0x10 /home/linux/devkitPro/devkitARM/bin/../lib/gcc/arm-none-eabi/4.8.2/../../../../arm-none-eabi/lib/thumb/libstdc++.a(bad_alloc.o)
                0x0000000002066924                typeinfo name for std::bad_alloc
 *fill*         0x0000000002066934        0x4 ff
 .rodata._ZTVN10__cxxabiv117__class_type_infoE
                0x0000000002066938       0x30 /home/linux/devkitPro/devkitARM/bin/../lib/gcc/arm-none-eabi/4.8.2/../../../../arm-none-eabi/lib/thumb/libstdc++.a(class_type_info.o)
                0x0000000002066938                vtable for __cxxabiv1::__class_type_info
 .rodata._ZTIN10__cxxabiv117__class_type_infoE
                0x0000000002066968        0xc /home/linux/devkitPro/devkitARM/bin/../lib/gcc/arm-none-eabi/4.8.2/../../../../arm-none-eabi/lib/thumb/libstdc++.a(class_type_info.o)
                0x0000000002066968                typeinfo for __cxxabiv1::__class_type_info
 .rodata._ZTSN10__cxxabiv117__class_type_infoE
                0x0000000002066974       0x24 /home/linux/devkitPro/devkitARM/bin/../lib/gcc/arm-none-eabi/4.8.2/../../../../arm-none-eabi/lib/thumb/libstdc++.a(class_type_info.o)
                0x0000000002066974                typeinfo name for __cxxabiv1::__class_type_info
 .rodata._ZSt7nothrow
                0x0000000002066998        0x4 /home/linux/devkitPro/devkitARM/bin/../lib/gcc/arm-none-eabi/4.8.2/../../../../arm-none-eabi/lib/thumb/libstdc++.a(new_handler.o)
                0x0000000002066998                std::nothrow
 .rodata._ZNSs4_Rep11_S_terminalE
                0x000000000206699c        0x1 /home/linux/devkitPro/devkitARM/bin/../lib/gcc/arm-none-eabi/4.8.2/../../../../arm-none-eabi/lib/thumb/libstdc++.a(string-inst.o)
                0x000000000206699c                std::string::_Rep::_S_terminal
 *fill*         0x000000000206699d        0x3 ff
 .rodata._ZNSs4_Rep11_S_max_sizeE
                0x00000000020669a0        0x4 /home/linux/devkitPro/devkitARM/bin/../lib/gcc/arm-none-eabi/4.8.2/../../../../arm-none-eabi/lib/thumb/libstdc++.a(string-inst.o)
                0x00000000020669a0                std::string::_Rep::_S_max_size
 .rodata._ZNSs4nposE
                0x00000000020669a4        0x4 /home/linux/devkitPro/devkitARM/bin/../lib/gcc/arm-none-eabi/4.8.2/../../../../arm-none-eabi/lib/thumb/libstdc++.a(string-inst.o)
                0x00000000020669a4                std::string::npos
 .rodata.str1.4
                0x00000000020669a8      0x161 /home/linux/devkitPro/devkitARM/bin/../lib/gcc/arm-none-eabi/4.8.2/../../../../arm-none-eabi/lib/thumb/libstdc++.a(string-inst.o)
                                        0x164 (size before relaxing)
 *fill*         0x0000000002066b09        0x3 ff
 .rodata.str1.4
                0x0000000002066b0c       0x12 /home/linux/devkitPro/devkitARM/bin/../lib/gcc/arm-none-eabi/4.8.2/../../../../arm-none-eabi/lib/thumb/libstdc++.a(functexcept.o)
                                         0x14 (size before relaxing)
 *fill*         0x0000000002066b1e        0x2 ff
 .rodata.str1.4
                0x0000000002066b20       0x3b /home/linux/devkitPro/devkitARM/bin/../lib/gcc/arm-none-eabi/4.8.2/../../../../arm-none-eabi/lib/thumb/libstdc++.a(pure.o)
                                         0x3c (size before relaxing)
 *fill*         0x0000000002066b5b        0x1 ff
 .rodata._ZTISt8bad_cast
                0x0000000002066b5c        0xc /home/linux/devkitPro/devkitARM/bin/../lib/gcc/arm-none-eabi/4.8.2/../../../../arm-none-eabi/lib/thumb/libstdc++.a(bad_cast.o)
                0x0000000002066b5c                typeinfo for std::bad_cast
 .rodata._ZTSSt8bad_cast
                0x0000000002066b68        0xc /home/linux/devkitPro/devkitARM/bin/../lib/gcc/arm-none-eabi/4.8.2/../../../../arm-none-eabi/lib/thumb/libstdc++.a(bad_cast.o)
                0x0000000002066b68                typeinfo name for std::bad_cast
 *fill*         0x0000000002066b74        0x4 ff
 .rodata._ZTVSt8bad_cast
                0x0000000002066b78       0x18 /home/linux/devkitPro/devkitARM/bin/../lib/gcc/arm-none-eabi/4.8.2/../../../../arm-none-eabi/lib/thumb/libstdc++.a(bad_cast.o)
                0x0000000002066b78                vtable for std::bad_cast
 .rodata.str1.4
                0x0000000002066b90        0xe /home/linux/devkitPro/devkitARM/bin/../lib/gcc/arm-none-eabi/4.8.2/../../../../arm-none-eabi/lib/thumb/libstdc++.a(bad_cast.o)
                                         0x10 (size before relaxing)
 *fill*         0x0000000002066b9e        0x2 ff
 .rodata._ZTVN10__cxxabiv120__si_class_type_infoE
                0x0000000002066ba0       0x30 /home/linux/devkitPro/devkitARM/bin/../lib/gcc/arm-none-eabi/4.8.2/../../../../arm-none-eabi/lib/thumb/libstdc++.a(si_class_type_info.o)
                0x0000000002066ba0                vtable for __cxxabiv1::__si_class_type_info
 .rodata._ZTIN10__cxxabiv120__si_class_type_infoE
                0x0000000002066bd0        0xc /home/linux/devkitPro/devkitARM/bin/../lib/gcc/arm-none-eabi/4.8.2/../../../../arm-none-eabi/lib/thumb/libstdc++.a(si_class_type_info.o)
                0x0000000002066bd0                typeinfo for __cxxabiv1::__si_class_type_info
 .rodata._ZTSN10__cxxabiv120__si_class_type_infoE
                0x0000000002066bdc       0x28 /home/linux/devkitPro/devkitARM/bin/../lib/gcc/arm-none-eabi/4.8.2/../../../../arm-none-eabi/lib/thumb/libstdc++.a(si_class_type_info.o)
                0x0000000002066bdc                typeinfo name for __cxxabiv1::__si_class_type_info
 .rodata._ZTISt9type_info
                0x0000000002066c04        0x8 /home/linux/devkitPro/devkitARM/bin/../lib/gcc/arm-none-eabi/4.8.2/../../../../arm-none-eabi/lib/thumb/libstdc++.a(tinfo.o)
                0x0000000002066c04                typeinfo for std::type_info
 .rodata._ZTSSt9type_info
                0x0000000002066c0c       0x10 /home/linux/devkitPro/devkitARM/bin/../lib/gcc/arm-none-eabi/4.8.2/../../../../arm-none-eabi/lib/thumb/libstdc++.a(tinfo.o)
                0x0000000002066c0c                typeinfo name for std::type_info
 *fill*         0x0000000002066c1c        0x4 ff
 .rodata._ZTVSt9type_info
                0x0000000002066c20       0x20 /home/linux/devkitPro/devkitARM/bin/../lib/gcc/arm-none-eabi/4.8.2/../../../../arm-none-eabi/lib/thumb/libstdc++.a(tinfo.o)
                0x0000000002066c20                vtable for std::type_info
 .rodata._ZTVSt10bad_typeid
                0x0000000002066c40       0x18 /home/linux/devkitPro/devkitARM/bin/../lib/gcc/arm-none-eabi/4.8.2/../../../../arm-none-eabi/lib/thumb/libstdc++.a(bad_typeid.o)
                0x0000000002066c40                vtable for std::bad_typeid
 .rodata._ZTISt10bad_typeid
                0x0000000002066c58        0xc /home/linux/devkitPro/devkitARM/bin/../lib/gcc/arm-none-eabi/4.8.2/../../../../arm-none-eabi/lib/thumb/libstdc++.a(bad_typeid.o)
                0x0000000002066c58                typeinfo for std::bad_typeid
 .rodata.str1.4
                0x0000000002066c64       0x10 /home/linux/devkitPro/devkitARM/bin/../lib/gcc/arm-none-eabi/4.8.2/../../../../arm-none-eabi/lib/thumb/libstdc++.a(bad_typeid.o)
 .rodata._ZTSSt10bad_typeid
                0x0000000002066c74       0x10 /home/linux/devkitPro/devkitARM/bin/../lib/gcc/arm-none-eabi/4.8.2/../../../../arm-none-eabi/lib/thumb/libstdc++.a(bad_typeid.o)
                0x0000000002066c74                typeinfo name for std::bad_typeid
 *fill*         0x0000000002066c84        0x4 ff
 .rodata._ZTVNSt8ios_base7failureE
                0x0000000002066c88       0x18 /home/linux/devkitPro/devkitARM/bin/../lib/gcc/arm-none-eabi/4.8.2/../../../../arm-none-eabi/lib/thumb/libstdc++.a(ios_failure.o)
                0x0000000002066c88                vtable for std::ios_base::failure
 .rodata._ZTSNSt8ios_base7failureE
                0x0000000002066ca0       0x18 /home/linux/devkitPro/devkitARM/bin/../lib/gcc/arm-none-eabi/4.8.2/../../../../arm-none-eabi/lib/thumb/libstdc++.a(ios_failure.o)
                0x0000000002066ca0                typeinfo name for std::ios_base::failure
 .rodata._ZTINSt8ios_base7failureE
                0x0000000002066cb8        0xc /home/linux/devkitPro/devkitARM/bin/../lib/gcc/arm-none-eabi/4.8.2/../../../../arm-none-eabi/lib/thumb/libstdc++.a(ios_failure.o)
                0x0000000002066cb8                typeinfo for std::ios_base::failure
 .rodata._ZTSSt13runtime_error
                0x0000000002066cc4       0x14 /home/linux/devkitPro/devkitARM/bin/../lib/gcc/arm-none-eabi/4.8.2/../../../../arm-none-eabi/lib/thumb/libstdc++.a(stdexcept.o)
                0x0000000002066cc4                typeinfo name for std::runtime_error
 .rodata._ZTVSt13runtime_error
                0x0000000002066cd8       0x18 /home/linux/devkitPro/devkitARM/bin/../lib/gcc/arm-none-eabi/4.8.2/../../../../arm-none-eabi/lib/thumb/libstdc++.a(stdexcept.o)
                0x0000000002066cd8                vtable for std::runtime_error
 .rodata._ZTISt13runtime_error
                0x0000000002066cf0        0xc /home/linux/devkitPro/devkitARM/bin/../lib/gcc/arm-none-eabi/4.8.2/../../../../arm-none-eabi/lib/thumb/libstdc++.a(stdexcept.o)
                0x0000000002066cf0                typeinfo for std::runtime_error
 .rodata._ZTISt11logic_error
                0x0000000002066cfc        0xc /home/linux/devkitPro/devkitARM/bin/../lib/gcc/arm-none-eabi/4.8.2/../../../../arm-none-eabi/lib/thumb/libstdc++.a(stdexcept.o)
                0x0000000002066cfc                typeinfo for std::logic_error
 .rodata._ZTVSt15underflow_error
                0x0000000002066d08       0x18 /home/linux/devkitPro/devkitARM/bin/../lib/gcc/arm-none-eabi/4.8.2/../../../../arm-none-eabi/lib/thumb/libstdc++.a(stdexcept.o)
                0x0000000002066d08                vtable for std::underflow_error
 .rodata._ZTSSt14overflow_error
                0x0000000002066d20       0x14 /home/linux/devkitPro/devkitARM/bin/../lib/gcc/arm-none-eabi/4.8.2/../../../../arm-none-eabi/lib/thumb/libstdc++.a(stdexcept.o)
                0x0000000002066d20                typeinfo name for std::overflow_error
 .rodata._ZTISt11range_error
                0x0000000002066d34        0xc /home/linux/devkitPro/devkitARM/bin/../lib/gcc/arm-none-eabi/4.8.2/../../../../arm-none-eabi/lib/thumb/libstdc++.a(stdexcept.o)
                0x0000000002066d34                typeinfo for std::range_error
 .rodata._ZTSSt16invalid_argument
                0x0000000002066d40       0x18 /home/linux/devkitPro/devkitARM/bin/../lib/gcc/arm-none-eabi/4.8.2/../../../../arm-none-eabi/lib/thumb/libstdc++.a(stdexcept.o)
                0x0000000002066d40                typeinfo name for std::invalid_argument
 .rodata._ZTSSt12out_of_range
                0x0000000002066d58       0x14 /home/linux/devkitPro/devkitARM/bin/../lib/gcc/arm-none-eabi/4.8.2/../../../../arm-none-eabi/lib/thumb/libstdc++.a(stdexcept.o)
                0x0000000002066d58                typeinfo name for std::out_of_range
 *fill*         0x0000000002066d6c        0x4 ff
 .rodata._ZTVSt11range_error
                0x0000000002066d70       0x18 /home/linux/devkitPro/devkitARM/bin/../lib/gcc/arm-none-eabi/4.8.2/../../../../arm-none-eabi/lib/thumb/libstdc++.a(stdexcept.o)
                0x0000000002066d70                vtable for std::range_error
 .rodata._ZTSSt11logic_error
                0x0000000002066d88       0x10 /home/linux/devkitPro/devkitARM/bin/../lib/gcc/arm-none-eabi/4.8.2/../../../../arm-none-eabi/lib/thumb/libstdc++.a(stdexcept.o)
                0x0000000002066d88                typeinfo name for std::logic_error
 .rodata._ZTVSt12out_of_range
                0x0000000002066d98       0x18 /home/linux/devkitPro/devkitARM/bin/../lib/gcc/arm-none-eabi/4.8.2/../../../../arm-none-eabi/lib/thumb/libstdc++.a(stdexcept.o)
                0x0000000002066d98                vtable for std::out_of_range
 .rodata._ZTISt15underflow_error
                0x0000000002066db0        0xc /home/linux/devkitPro/devkitARM/bin/../lib/gcc/arm-none-eabi/4.8.2/../../../../arm-none-eabi/lib/thumb/libstdc++.a(stdexcept.o)
                0x0000000002066db0                typeinfo for std::underflow_error
 .rodata._ZTSSt11range_error
                0x0000000002066dbc       0x10 /home/linux/devkitPro/devkitARM/bin/../lib/gcc/arm-none-eabi/4.8.2/../../../../arm-none-eabi/lib/thumb/libstdc++.a(stdexcept.o)
                0x0000000002066dbc                typeinfo name for std::range_error
 .rodata._ZTISt16invalid_argument
                0x0000000002066dcc        0xc /home/linux/devkitPro/devkitARM/bin/../lib/gcc/arm-none-eabi/4.8.2/../../../../arm-none-eabi/lib/thumb/libstdc++.a(stdexcept.o)
                0x0000000002066dcc                typeinfo for std::invalid_argument
 .rodata._ZTVSt11logic_error
                0x0000000002066dd8       0x18 /home/linux/devkitPro/devkitARM/bin/../lib/gcc/arm-none-eabi/4.8.2/../../../../arm-none-eabi/lib/thumb/libstdc++.a(stdexcept.o)
                0x0000000002066dd8                vtable for std::logic_error
 .rodata._ZTISt12out_of_range
                0x0000000002066df0        0xc /home/linux/devkitPro/devkitARM/bin/../lib/gcc/arm-none-eabi/4.8.2/../../../../arm-none-eabi/lib/thumb/libstdc++.a(stdexcept.o)
                0x0000000002066df0                typeinfo for std::out_of_range
 .rodata._ZTSSt12domain_error
                0x0000000002066dfc       0x14 /home/linux/devkitPro/devkitARM/bin/../lib/gcc/arm-none-eabi/4.8.2/../../../../arm-none-eabi/lib/thumb/libstdc++.a(stdexcept.o)
                0x0000000002066dfc                typeinfo name for std::domain_error
 .rodata._ZTVSt16invalid_argument
                0x0000000002066e10       0x18 /home/linux/devkitPro/devkitARM/bin/../lib/gcc/arm-none-eabi/4.8.2/../../../../arm-none-eabi/lib/thumb/libstdc++.a(stdexcept.o)
                0x0000000002066e10                vtable for std::invalid_argument
 .rodata._ZTVSt12domain_error
                0x0000000002066e28       0x18 /home/linux/devkitPro/devkitARM/bin/../lib/gcc/arm-none-eabi/4.8.2/../../../../arm-none-eabi/lib/thumb/libstdc++.a(stdexcept.o)
                0x0000000002066e28                vtable for std::domain_error
 .rodata._ZTSSt12length_error
                0x0000000002066e40       0x14 /home/linux/devkitPro/devkitARM/bin/../lib/gcc/arm-none-eabi/4.8.2/../../../../arm-none-eabi/lib/thumb/libstdc++.a(stdexcept.o)
                0x0000000002066e40                typeinfo name for std::length_error
 *fill*         0x0000000002066e54        0x4 ff
 .rodata._ZTVSt14overflow_error
                0x0000000002066e58       0x18 /home/linux/devkitPro/devkitARM/bin/../lib/gcc/arm-none-eabi/4.8.2/../../../../arm-none-eabi/lib/thumb/libstdc++.a(stdexcept.o)
                0x0000000002066e58                vtable for std::overflow_error
 .rodata._ZTISt14overflow_error
                0x0000000002066e70        0xc /home/linux/devkitPro/devkitARM/bin/../lib/gcc/arm-none-eabi/4.8.2/../../../../arm-none-eabi/lib/thumb/libstdc++.a(stdexcept.o)
                0x0000000002066e70                typeinfo for std::overflow_error
 .rodata._ZTISt12length_error
                0x0000000002066e7c        0xc /home/linux/devkitPro/devkitARM/bin/../lib/gcc/arm-none-eabi/4.8.2/../../../../arm-none-eabi/lib/thumb/libstdc++.a(stdexcept.o)
                0x0000000002066e7c                typeinfo for std::length_error
 .rodata._ZTVSt12length_error
                0x0000000002066e88       0x18 /home/linux/devkitPro/devkitARM/bin/../lib/gcc/arm-none-eabi/4.8.2/../../../../arm-none-eabi/lib/thumb/libstdc++.a(stdexcept.o)
                0x0000000002066e88                vtable for std::length_error
 .rodata._ZTSSt15underflow_error
                0x0000000002066ea0       0x14 /home/linux/devkitPro/devkitARM/bin/../lib/gcc/arm-none-eabi/4.8.2/../../../../arm-none-eabi/lib/thumb/libstdc++.a(stdexcept.o)
                0x0000000002066ea0                typeinfo name for std::underflow_error
 .rodata._ZTISt12domain_error
                0x0000000002066eb4        0xc /home/linux/devkitPro/devkitARM/bin/../lib/gcc/arm-none-eabi/4.8.2/../../../../arm-none-eabi/lib/thumb/libstdc++.a(stdexcept.o)
                0x0000000002066eb4                typeinfo for std::domain_error
 .rodata._ZTISt17bad_function_call
                0x0000000002066ec0        0xc /home/linux/devkitPro/devkitARM/bin/../lib/gcc/arm-none-eabi/4.8.2/../../../../arm-none-eabi/lib/thumb/libstdc++.a(functional.o)
                0x0000000002066ec0                typeinfo for std::bad_function_call
 *fill*         0x0000000002066ecc        0x4 ff
 .rodata._ZTVSt17bad_function_call
                0x0000000002066ed0       0x18 /home/linux/devkitPro/devkitARM/bin/../lib/gcc/arm-none-eabi/4.8.2/../../../../arm-none-eabi/lib/thumb/libstdc++.a(functional.o)
                0x0000000002066ed0                vtable for std::bad_function_call
 .rodata.str1.4
                0x0000000002066ee8       0x12 /home/linux/devkitPro/devkitARM/bin/../lib/gcc/arm-none-eabi/4.8.2/../../../../arm-none-eabi/lib/thumb/libstdc++.a(functional.o)
                                         0x14 (size before relaxing)
 *fill*         0x0000000002066efa        0x2 ff
 .rodata._ZTSSt17bad_function_call
                0x0000000002066efc       0x18 /home/linux/devkitPro/devkitARM/bin/../lib/gcc/arm-none-eabi/4.8.2/../../../../arm-none-eabi/lib/thumb/libstdc++.a(functional.o)
                0x0000000002066efc                typeinfo name for std::bad_function_call
 .rodata._ZTIN12_GLOBAL__N_121future_error_categoryE
                0x0000000002066f14        0xc /home/linux/devkitPro/devkitARM/bin/../lib/gcc/arm-none-eabi/4.8.2/../../../../arm-none-eabi/lib/thumb/libstdc++.a(future.o)
 .rodata._ZTVN12_GLOBAL__N_121future_error_categoryE
                0x0000000002066f20       0x28 /home/linux/devkitPro/devkitARM/bin/../lib/gcc/arm-none-eabi/4.8.2/../../../../arm-none-eabi/lib/thumb/libstdc++.a(future.o)
 .rodata._ZTISt12future_error
                0x0000000002066f48        0xc /home/linux/devkitPro/devkitARM/bin/../lib/gcc/arm-none-eabi/4.8.2/../../../../arm-none-eabi/lib/thumb/libstdc++.a(future.o)
                0x0000000002066f48                typeinfo for std::future_error
 .rodata.str1.4
                0x0000000002066f54       0x72 /home/linux/devkitPro/devkitARM/bin/../lib/gcc/arm-none-eabi/4.8.2/../../../../arm-none-eabi/lib/thumb/libstdc++.a(future.o)
                                         0x74 (size before relaxing)
 *fill*         0x0000000002066fc6        0x2 ff
 .rodata._ZTSSt12future_error
                0x0000000002066fc8       0x14 /home/linux/devkitPro/devkitARM/bin/../lib/gcc/arm-none-eabi/4.8.2/../../../../arm-none-eabi/lib/thumb/libstdc++.a(future.o)
                0x0000000002066fc8                typeinfo name for std::future_error
 .rodata._ZTSN12_GLOBAL__N_121future_error_categoryE
                0x0000000002066fdc       0x2c /home/linux/devkitPro/devkitARM/bin/../lib/gcc/arm-none-eabi/4.8.2/../../../../arm-none-eabi/lib/thumb/libstdc++.a(future.o)
 .rodata._ZTVSt12future_error
                0x0000000002067008       0x18 /home/linux/devkitPro/devkitARM/bin/../lib/gcc/arm-none-eabi/4.8.2/../../../../arm-none-eabi/lib/thumb/libstdc++.a(future.o)
                0x0000000002067008                vtable for std::future_error
 .rodata._ZTVSt11regex_error
                0x0000000002067020       0x18 /home/linux/devkitPro/devkitARM/bin/../lib/gcc/arm-none-eabi/4.8.2/../../../../arm-none-eabi/lib/thumb/libstdc++.a(regex.o)
                0x0000000002067020                vtable for std::regex_error
 .rodata._ZTSSt11regex_error
                0x0000000002067038       0x10 /home/linux/devkitPro/devkitARM/bin/../lib/gcc/arm-none-eabi/4.8.2/../../../../arm-none-eabi/lib/thumb/libstdc++.a(regex.o)
                0x0000000002067038                typeinfo name for std::regex_error
 .rodata.str1.4
                0x0000000002067048        0xc /home/linux/devkitPro/devkitARM/bin/../lib/gcc/arm-none-eabi/4.8.2/../../../../arm-none-eabi/lib/thumb/libstdc++.a(regex.o)
 .rodata._ZTISt11regex_error
                0x0000000002067054        0xc /home/linux/devkitPro/devkitARM/bin/../lib/gcc/arm-none-eabi/4.8.2/../../../../arm-none-eabi/lib/thumb/libstdc++.a(regex.o)
                0x0000000002067054                typeinfo for std::regex_error
 .rodata._ZTVSt12system_error
                0x0000000002067060       0x18 /home/linux/devkitPro/devkitARM/bin/../lib/gcc/arm-none-eabi/4.8.2/../../../../arm-none-eabi/lib/thumb/libstdc++.a(system_error.o)
                0x0000000002067060                vtable for std::system_error
 .rodata._ZTSN12_GLOBAL__N_121system_error_categoryE
                0x0000000002067078       0x2c /home/linux/devkitPro/devkitARM/bin/../lib/gcc/arm-none-eabi/4.8.2/../../../../arm-none-eabi/lib/thumb/libstdc++.a(system_error.o)
 *fill*         0x00000000020670a4        0x4 ff
 .rodata._ZTVSt14error_category
                0x00000000020670a8       0x28 /home/linux/devkitPro/devkitARM/bin/../lib/gcc/arm-none-eabi/4.8.2/../../../../arm-none-eabi/lib/thumb/libstdc++.a(system_error.o)
                0x00000000020670a8                vtable for std::error_category
 .rodata._ZTVN12_GLOBAL__N_121system_error_categoryE
                0x00000000020670d0       0x28 /home/linux/devkitPro/devkitARM/bin/../lib/gcc/arm-none-eabi/4.8.2/../../../../arm-none-eabi/lib/thumb/libstdc++.a(system_error.o)
 .rodata._ZTSSt14error_category
                0x00000000020670f8       0x14 /home/linux/devkitPro/devkitARM/bin/../lib/gcc/arm-none-eabi/4.8.2/../../../../arm-none-eabi/lib/thumb/libstdc++.a(system_error.o)
                0x00000000020670f8                typeinfo name for std::error_category
 *fill*         0x000000000206710c        0x4 ff
 .rodata._ZTVN12_GLOBAL__N_122generic_error_categoryE
                0x0000000002067110       0x28 /home/linux/devkitPro/devkitARM/bin/../lib/gcc/arm-none-eabi/4.8.2/../../../../arm-none-eabi/lib/thumb/libstdc++.a(system_error.o)
 .rodata._ZTISt12system_error
                0x0000000002067138        0xc /home/linux/devkitPro/devkitARM/bin/../lib/gcc/arm-none-eabi/4.8.2/../../../../arm-none-eabi/lib/thumb/libstdc++.a(system_error.o)
                0x0000000002067138                typeinfo for std::system_error
 .rodata.str1.4
                0x0000000002067144        0xf /home/linux/devkitPro/devkitARM/bin/../lib/gcc/arm-none-eabi/4.8.2/../../../../arm-none-eabi/lib/thumb/libstdc++.a(system_error.o)
                                         0x10 (size before relaxing)
 *fill*         0x0000000002067153        0x1 ff
 .rodata._ZTISt14error_category
                0x0000000002067154        0x8 /home/linux/devkitPro/devkitARM/bin/../lib/gcc/arm-none-eabi/4.8.2/../../../../arm-none-eabi/lib/thumb/libstdc++.a(system_error.o)
                0x0000000002067154                typeinfo for std::error_category
 .rodata._ZTSN12_GLOBAL__N_122generic_error_categoryE
                0x000000000206715c       0x2c /home/linux/devkitPro/devkitARM/bin/../lib/gcc/arm-none-eabi/4.8.2/../../../../arm-none-eabi/lib/thumb/libstdc++.a(system_error.o)
 .rodata._ZTIN12_GLOBAL__N_121system_error_categoryE
                0x0000000002067188        0xc /home/linux/devkitPro/devkitARM/bin/../lib/gcc/arm-none-eabi/4.8.2/../../../../arm-none-eabi/lib/thumb/libstdc++.a(system_error.o)
 .rodata._ZTIN12_GLOBAL__N_122generic_error_categoryE
                0x0000000002067194        0xc /home/linux/devkitPro/devkitARM/bin/../lib/gcc/arm-none-eabi/4.8.2/../../../../arm-none-eabi/lib/thumb/libstdc++.a(system_error.o)
 .rodata._ZTSSt12system_error
                0x00000000020671a0       0x14 /home/linux/devkitPro/devkitARM/bin/../lib/gcc/arm-none-eabi/4.8.2/../../../../arm-none-eabi/lib/thumb/libstdc++.a(system_error.o)
                0x00000000020671a0                typeinfo name for std::system_error
 .rodata.str1.4
                0x00000000020671b4       0x94 /home/linux/devkitPro/devkitARM/bin/../lib/gcc/arm-none-eabi/4.8.2/../../../../arm-none-eabi/lib/thumb/libstdc++.a(vterminate.o)
 .rodata._ZTIN9__gnu_cxx20recursive_init_errorE
                0x0000000002067248        0xc /home/linux/devkitPro/devkitARM/bin/../lib/gcc/arm-none-eabi/4.8.2/../../../../arm-none-eabi/lib/thumb/libstdc++.a(guard_error.o)
                0x0000000002067248                typeinfo for __gnu_cxx::recursive_init_error
 .rodata._ZTSN9__gnu_cxx20recursive_init_errorE
                0x0000000002067254       0x24 /home/linux/devkitPro/devkitARM/bin/../lib/gcc/arm-none-eabi/4.8.2/../../../../arm-none-eabi/lib/thumb/libstdc++.a(guard_error.o)
                0x0000000002067254                typeinfo name for __gnu_cxx::recursive_init_error
 .rodata._ZTVN9__gnu_cxx20recursive_init_errorE
                0x0000000002067278       0x18 /home/linux/devkitPro/devkitARM/bin/../lib/gcc/arm-none-eabi/4.8.2/../../../../arm-none-eabi/lib/thumb/libstdc++.a(guard_error.o)
                0x0000000002067278                vtable for __gnu_cxx::recursive_init_error
 .rodata.str1.4
                0x0000000002067290      0x7da /home/linux/devkitPro/devkitARM/bin/../lib/gcc/arm-none-eabi/4.8.2/../../../../arm-none-eabi/lib/thumb/libstdc++.a(cp-demangle.o)
                                        0x840 (size before relaxing)
 *fill*         0x0000000002067a6a        0x2 ff
 .rodata.str1.4
                0x0000000002067a6c        0x5 /home/linux/devkitPro/devkitARM/bin/../lib/gcc/arm-none-eabi/4.8.2/../../../../arm-none-eabi/lib/thumb/libm.a(lib_a-w_sqrt.o)
                                          0x8 (size before relaxing)
 *fill*         0x0000000002067a71        0x3 ff
 .rodata.str1.4
                0x0000000002067a74        0x2 /home/linux/devkitPro/devkitARM/bin/../lib/gcc/arm-none-eabi/4.8.2/../../../../arm-none-eabi/lib/thumb/libg.a(lib_a-impure.o)
                                          0x4 (size before relaxing)
 *fill*         0x0000000002067a76        0x2 ff
 .rodata.str1.4
                0x0000000002067a78      0x120 /home/linux/devkitPro/devkitARM/bin/../lib/gcc/arm-none-eabi/4.8.2/../../../../arm-none-eabi/lib/thumb/libg.a(lib_a-locale.o)
                                        0x130 (size before relaxing)
 .rodata.str1.4
                0x0000000000000000        0x4 /home/linux/devkitPro/devkitARM/bin/../lib/gcc/arm-none-eabi/4.8.2/../../../../arm-none-eabi/lib/thumb/libg.a(lib_a-mbrtowc.o)
 .rodata.str1.4
                0x0000000000000000        0x4 /home/linux/devkitPro/devkitARM/bin/../lib/gcc/arm-none-eabi/4.8.2/../../../../arm-none-eabi/lib/thumb/libg.a(lib_a-puts.o)
 .rodata.str1.4
                0x0000000002067b98      0x635 /home/linux/devkitPro/devkitARM/bin/../lib/gcc/arm-none-eabi/4.8.2/../../../../arm-none-eabi/lib/thumb/libg.a(lib_a-strerror.o)
                                        0x63c (size before relaxing)
 *fill*         0x00000000020681cd        0x3 ff
 .rodata.str1.4
                0x00000000020681d0       0x42 /home/linux/devkitPro/devkitARM/bin/../lib/gcc/arm-none-eabi/4.8.2/../../../../arm-none-eabi/lib/thumb/libg.a(lib_a-svfprintf.o)
                                         0x44 (size before relaxing)
 *fill*         0x0000000002068212        0x2 ff
 .rodata.str1.4
                0x0000000002068214        0x4 /home/linux/devkitPro/devkitARM/bin/../lib/gcc/arm-none-eabi/4.8.2/../../../../arm-none-eabi/lib/thumb/libg.a(lib_a-tzvars.o)
 .rodata.str1.4
                0x0000000000000000       0x30 /home/linux/devkitPro/devkitARM/bin/../lib/gcc/arm-none-eabi/4.8.2/../../../../arm-none-eabi/lib/thumb/libg.a(lib_a-vfiprintf.o)
 .rodata.str1.4
                0x0000000000000000       0x44 /home/linux/devkitPro/devkitARM/bin/../lib/gcc/arm-none-eabi/4.8.2/../../../../arm-none-eabi/lib/thumb/libg.a(lib_a-vfprintf.o)
 .rodata.str1.4
                0x0000000002068218       0x10 /home/linux/devkitPro/devkitARM/bin/../lib/gcc/arm-none-eabi/4.8.2/../../../../arm-none-eabi/lib/thumb/libg.a(lib_a-dtoa.o)
                                         0x14 (size before relaxing)
 .rodata.str1.4
                0x0000000000000000       0x14 /home/linux/devkitPro/devkitARM/bin/../lib/gcc/arm-none-eabi/4.8.2/../../../../arm-none-eabi/lib/thumb/libg.a(lib_a-jp2uc.o)
 .rodata.str1.4
                0x0000000000000000       0x30 /home/linux/devkitPro/devkitARM/bin/../lib/gcc/arm-none-eabi/4.8.2/../../../../arm-none-eabi/lib/thumb/libg.a(lib_a-svfiprintf.o)
 .rodata.str1.4
                0x0000000002068228        0x8 /home/linux/devkitPro/devkitARM/bin/../lib/gcc/arm-none-eabi/4.8.2/../../../../arm-none-eabi/lib/thumb/libsysbase.a(iosupport.o)
 *(.gnu.linkonce.r*)
                0x0000000002068230                . = ALIGN (0x4)

.ARM.extab      0x0000000002068230      0x50c
 *(.ARM.extab* .gnu.linkonce.armextab.*)
 .ARM.extab.text._Znwj
                0x0000000002068230       0x20 /home/linux/devkitPro/devkitARM/bin/../lib/gcc/arm-none-eabi/4.8.2/../../../../arm-none-eabi/lib/thumb/libstdc++.a(new_op.o)
 .ARM.extab.text._ZN10__cxxabiv1L24__is_gxx_exception_classEPc
                0x0000000002068250        0x0 /home/linux/devkitPro/devkitARM/bin/../lib/gcc/arm-none-eabi/4.8.2/../../../../arm-none-eabi/lib/thumb/libstdc++.a(eh_call.o)
 .ARM.extab.text.__cxa_call_terminate
                0x0000000002068250        0x0 /home/linux/devkitPro/devkitARM/bin/../lib/gcc/arm-none-eabi/4.8.2/../../../../arm-none-eabi/lib/thumb/libstdc++.a(eh_call.o)
 .ARM.extab.text.__cxa_call_unexpected
                0x0000000002068250       0x30 /home/linux/devkitPro/devkitARM/bin/../lib/gcc/arm-none-eabi/4.8.2/../../../../arm-none-eabi/lib/thumb/libstdc++.a(eh_call.o)
 .ARM.extab.text._Znaj
                0x0000000002068280       0x24 /home/linux/devkitPro/devkitARM/bin/../lib/gcc/arm-none-eabi/4.8.2/../../../../arm-none-eabi/lib/thumb/libstdc++.a(new_opv.o)
 .ARM.extab.text._ZL12read_sleb128PKhPl
                0x00000000020682a4        0x0 /home/linux/devkitPro/devkitARM/bin/../lib/gcc/arm-none-eabi/4.8.2/../../../../arm-none-eabi/lib/thumb/libstdc++.a(eh_personality.o)
 .ARM.extab.text._ZL28read_encoded_value_with_basehjPKhPj
                0x00000000020682a4        0xc /home/linux/devkitPro/devkitARM/bin/../lib/gcc/arm-none-eabi/4.8.2/../../../../arm-none-eabi/lib/thumb/libstdc++.a(eh_personality.o)
 .ARM.extab.text._ZL21base_of_encoded_valuehP15_Unwind_Context
                0x00000000020682b0        0xc /home/linux/devkitPro/devkitARM/bin/../lib/gcc/arm-none-eabi/4.8.2/../../../../arm-none-eabi/lib/thumb/libstdc++.a(eh_personality.o)
 .ARM.extab.text._ZL17parse_lsda_headerP15_Unwind_ContextPKhP16lsda_header_info
                0x00000000020682bc        0x0 /home/linux/devkitPro/devkitARM/bin/../lib/gcc/arm-none-eabi/4.8.2/../../../../arm-none-eabi/lib/thumb/libstdc++.a(eh_personality.o)
 .ARM.extab.text.__gxx_personality_v0
                0x00000000020682bc       0x24 /home/linux/devkitPro/devkitARM/bin/../lib/gcc/arm-none-eabi/4.8.2/../../../../arm-none-eabi/lib/thumb/libstdc++.a(eh_personality.o)
 .ARM.extab.text._ZdlPv
                0x00000000020682e0        0x0 /home/linux/devkitPro/devkitARM/bin/../lib/gcc/arm-none-eabi/4.8.2/../../../../arm-none-eabi/lib/thumb/libstdc++.a(del_op.o)
 .ARM.extab.text.__aeabi_atexit
                0x00000000020682e0        0x0 /home/linux/devkitPro/devkitARM/bin/../lib/gcc/arm-none-eabi/4.8.2/../../../../arm-none-eabi/lib/thumb/libstdc++.a(atexit_arm.o)
 .ARM.extab.text._ZN10__cxxabiv111__terminateEPFvvE
                0x00000000020682e0       0x28 /home/linux/devkitPro/devkitARM/bin/../lib/gcc/arm-none-eabi/4.8.2/../../../../arm-none-eabi/lib/thumb/libstdc++.a(eh_terminate.o)
 .ARM.extab.text._ZSt9terminatev
                0x0000000002068308        0x0 /home/linux/devkitPro/devkitARM/bin/../lib/gcc/arm-none-eabi/4.8.2/../../../../arm-none-eabi/lib/thumb/libstdc++.a(eh_terminate.o)
 .ARM.extab.text._ZN10__cxxabiv112__unexpectedEPFvvE
                0x0000000002068308        0xc /home/linux/devkitPro/devkitARM/bin/../lib/gcc/arm-none-eabi/4.8.2/../../../../arm-none-eabi/lib/thumb/libstdc++.a(eh_terminate.o)
 .ARM.extab.text._ZSt10unexpectedv
                0x0000000002068314        0xc /home/linux/devkitPro/devkitARM/bin/../lib/gcc/arm-none-eabi/4.8.2/../../../../arm-none-eabi/lib/thumb/libstdc++.a(eh_terminate.o)
 .ARM.extab.text._ZSt13set_terminatePFvvE
                0x0000000002068320        0x0 /home/linux/devkitPro/devkitARM/bin/../lib/gcc/arm-none-eabi/4.8.2/../../../../arm-none-eabi/lib/thumb/libstdc++.a(eh_terminate.o)
 .ARM.extab.text._ZSt14set_unexpectedPFvvE
                0x0000000002068320        0x0 /home/linux/devkitPro/devkitARM/bin/../lib/gcc/arm-none-eabi/4.8.2/../../../../arm-none-eabi/lib/thumb/libstdc++.a(eh_terminate.o)
 .ARM.extab.text._ZNSt9exceptionD2Ev
                0x0000000002068320        0x0 /home/linux/devkitPro/devkitARM/bin/../lib/gcc/arm-none-eabi/4.8.2/../../../../arm-none-eabi/lib/thumb/libstdc++.a(eh_exception.o)
 .ARM.extab.text._ZNSt13bad_exceptionD2Ev
                0x0000000002068320        0x0 /home/linux/devkitPro/devkitARM/bin/../lib/gcc/arm-none-eabi/4.8.2/../../../../arm-none-eabi/lib/thumb/libstdc++.a(eh_exception.o)
 .ARM.extab.text._ZN10__cxxabiv115__forced_unwindD2Ev
                0x0000000002068320        0x0 /home/linux/devkitPro/devkitARM/bin/../lib/gcc/arm-none-eabi/4.8.2/../../../../arm-none-eabi/lib/thumb/libstdc++.a(eh_exception.o)
 .ARM.extab.text._ZN10__cxxabiv119__foreign_exceptionD2Ev
                0x0000000002068320        0x0 /home/linux/devkitPro/devkitARM/bin/../lib/gcc/arm-none-eabi/4.8.2/../../../../arm-none-eabi/lib/thumb/libstdc++.a(eh_exception.o)
 .ARM.extab.text._ZNKSt9exception4whatEv
                0x0000000002068320        0x0 /home/linux/devkitPro/devkitARM/bin/../lib/gcc/arm-none-eabi/4.8.2/../../../../arm-none-eabi/lib/thumb/libstdc++.a(eh_exception.o)
 .ARM.extab.text._ZNKSt13bad_exception4whatEv
                0x0000000002068320        0x0 /home/linux/devkitPro/devkitARM/bin/../lib/gcc/arm-none-eabi/4.8.2/../../../../arm-none-eabi/lib/thumb/libstdc++.a(eh_exception.o)
 .ARM.extab.text._ZNSt9exceptionD0Ev
                0x0000000002068320        0x0 /home/linux/devkitPro/devkitARM/bin/../lib/gcc/arm-none-eabi/4.8.2/../../../../arm-none-eabi/lib/thumb/libstdc++.a(eh_exception.o)
 .ARM.extab.text._ZNSt13bad_exceptionD0Ev
                0x0000000002068320        0x0 /home/linux/devkitPro/devkitARM/bin/../lib/gcc/arm-none-eabi/4.8.2/../../../../arm-none-eabi/lib/thumb/libstdc++.a(eh_exception.o)
 .ARM.extab.text._ZN10__cxxabiv115__forced_unwindD0Ev
                0x0000000002068320        0x0 /home/linux/devkitPro/devkitARM/bin/../lib/gcc/arm-none-eabi/4.8.2/../../../../arm-none-eabi/lib/thumb/libstdc++.a(eh_exception.o)
 .ARM.extab.text._ZN10__cxxabiv119__foreign_exceptionD0Ev
                0x0000000002068320        0x0 /home/linux/devkitPro/devkitARM/bin/../lib/gcc/arm-none-eabi/4.8.2/../../../../arm-none-eabi/lib/thumb/libstdc++.a(eh_exception.o)
 .ARM.extab.text.__cxa_allocate_exception
                0x0000000002068320        0x0 /home/linux/devkitPro/devkitARM/bin/../lib/gcc/arm-none-eabi/4.8.2/../../../../arm-none-eabi/lib/thumb/libstdc++.a(eh_alloc.o)
 .ARM.extab.text.__cxa_free_exception
                0x0000000002068320        0x0 /home/linux/devkitPro/devkitARM/bin/../lib/gcc/arm-none-eabi/4.8.2/../../../../arm-none-eabi/lib/thumb/libstdc++.a(eh_alloc.o)
 .ARM.extab.text.__cxa_allocate_dependent_exception
                0x0000000002068320        0x0 /home/linux/devkitPro/devkitARM/bin/../lib/gcc/arm-none-eabi/4.8.2/../../../../arm-none-eabi/lib/thumb/libstdc++.a(eh_alloc.o)
 .ARM.extab.text.__cxa_free_dependent_exception
                0x0000000002068320        0x0 /home/linux/devkitPro/devkitARM/bin/../lib/gcc/arm-none-eabi/4.8.2/../../../../arm-none-eabi/lib/thumb/libstdc++.a(eh_alloc.o)
 .ARM.extab.text._ZNKSt9bad_alloc4whatEv
                0x0000000002068320        0x0 /home/linux/devkitPro/devkitARM/bin/../lib/gcc/arm-none-eabi/4.8.2/../../../../arm-none-eabi/lib/thumb/libstdc++.a(bad_alloc.o)
 .ARM.extab.text._ZNSt9bad_allocD2Ev
                0x0000000002068320        0x0 /home/linux/devkitPro/devkitARM/bin/../lib/gcc/arm-none-eabi/4.8.2/../../../../arm-none-eabi/lib/thumb/libstdc++.a(bad_alloc.o)
 .ARM.extab.text._ZNSt9bad_allocD0Ev
                0x0000000002068320        0x0 /home/linux/devkitPro/devkitARM/bin/../lib/gcc/arm-none-eabi/4.8.2/../../../../arm-none-eabi/lib/thumb/libstdc++.a(bad_alloc.o)
 .ARM.extab.text._ZdaPv
                0x0000000002068320        0x0 /home/linux/devkitPro/devkitARM/bin/../lib/gcc/arm-none-eabi/4.8.2/../../../../arm-none-eabi/lib/thumb/libstdc++.a(del_opv.o)
 .ARM.extab.text._ZNK10__cxxabiv117__class_type_info11__do_upcastEPKS0_PPv
                0x0000000002068320        0x0 /home/linux/devkitPro/devkitARM/bin/../lib/gcc/arm-none-eabi/4.8.2/../../../../arm-none-eabi/lib/thumb/libstdc++.a(class_type_info.o)
 .ARM.extab.text._ZNK10__cxxabiv117__class_type_info20__do_find_public_srcEiPKvPKS0_S2_
                0x0000000002068320        0x0 /home/linux/devkitPro/devkitARM/bin/../lib/gcc/arm-none-eabi/4.8.2/../../../../arm-none-eabi/lib/thumb/libstdc++.a(class_type_info.o)
 .ARM.extab.text._ZN10__cxxabiv117__class_type_infoD2Ev
                0x0000000002068320        0x0 /home/linux/devkitPro/devkitARM/bin/../lib/gcc/arm-none-eabi/4.8.2/../../../../arm-none-eabi/lib/thumb/libstdc++.a(class_type_info.o)
 .ARM.extab.text._ZN10__cxxabiv117__class_type_infoD0Ev
                0x0000000002068320        0x0 /home/linux/devkitPro/devkitARM/bin/../lib/gcc/arm-none-eabi/4.8.2/../../../../arm-none-eabi/lib/thumb/libstdc++.a(class_type_info.o)
 .ARM.extab.text._ZNK10__cxxabiv117__class_type_info11__do_upcastEPKS0_PKvRNS0_15__upcast_resultE
                0x0000000002068320        0x0 /home/linux/devkitPro/devkitARM/bin/../lib/gcc/arm-none-eabi/4.8.2/../../../../arm-none-eabi/lib/thumb/libstdc++.a(class_type_info.o)
 .ARM.extab.text._ZNK10__cxxabiv117__class_type_info10__do_catchEPKSt9type_infoPPvj
                0x0000000002068320        0x0 /home/linux/devkitPro/devkitARM/bin/../lib/gcc/arm-none-eabi/4.8.2/../../../../arm-none-eabi/lib/thumb/libstdc++.a(class_type_info.o)
 .ARM.extab.text._ZNK10__cxxabiv117__class_type_info12__do_dyncastEiNS0_10__sub_kindEPKS0_PKvS3_S5_RNS0_16__dyncast_resultE
                0x0000000002068320        0x0 /home/linux/devkitPro/devkitARM/bin/../lib/gcc/arm-none-eabi/4.8.2/../../../../arm-none-eabi/lib/thumb/libstdc++.a(class_type_info.o)
 .ARM.extab.text._ZSt15set_new_handlerPFvvE
                0x0000000002068320        0x0 /home/linux/devkitPro/devkitARM/bin/../lib/gcc/arm-none-eabi/4.8.2/../../../../arm-none-eabi/lib/thumb/libstdc++.a(new_handler.o)
 .ARM.extab.text._ZNKSs4dataEv
                0x0000000002068320        0x0 /home/linux/devkitPro/devkitARM/bin/../lib/gcc/arm-none-eabi/4.8.2/../../../../arm-none-eabi/lib/thumb/libstdc++.a(string-inst.o)
 .ARM.extab.text._ZNKSs6lengthEv
                0x0000000002068320        0x0 /home/linux/devkitPro/devkitARM/bin/../lib/gcc/arm-none-eabi/4.8.2/../../../../arm-none-eabi/lib/thumb/libstdc++.a(string-inst.o)
 .ARM.extab.text._ZNKSs7_M_dataEv
                0x0000000002068320        0x0 /home/linux/devkitPro/devkitARM/bin/../lib/gcc/arm-none-eabi/4.8.2/../../../../arm-none-eabi/lib/thumb/libstdc++.a(string-inst.o)
 .ARM.extab.text._ZNSs7_M_dataEPc
                0x0000000002068320        0x0 /home/linux/devkitPro/devkitARM/bin/../lib/gcc/arm-none-eabi/4.8.2/../../../../arm-none-eabi/lib/thumb/libstdc++.a(string-inst.o)
 .ARM.extab.text._ZNKSs6_M_repEv
                0x0000000002068320        0x0 /home/linux/devkitPro/devkitARM/bin/../lib/gcc/arm-none-eabi/4.8.2/../../../../arm-none-eabi/lib/thumb/libstdc++.a(string-inst.o)
 .ARM.extab.text._ZNKSs9_M_ibeginEv
                0x0000000002068320        0x0 /home/linux/devkitPro/devkitARM/bin/../lib/gcc/arm-none-eabi/4.8.2/../../../../arm-none-eabi/lib/thumb/libstdc++.a(string-inst.o)
 .ARM.extab.text._ZNKSs7_M_iendEv
                0x0000000002068320        0x0 /home/linux/devkitPro/devkitARM/bin/../lib/gcc/arm-none-eabi/4.8.2/../../../../arm-none-eabi/lib/thumb/libstdc++.a(string-inst.o)
 .ARM.extab.text._ZNKSs8_M_checkEjPKc
                0x0000000002068320        0xc /home/linux/devkitPro/devkitARM/bin/../lib/gcc/arm-none-eabi/4.8.2/../../../../arm-none-eabi/lib/thumb/libstdc++.a(string-inst.o)
 .ARM.extab.text._ZNKSs15_M_check_lengthEjjPKc
                0x000000000206832c        0x0 /home/linux/devkitPro/devkitARM/bin/../lib/gcc/arm-none-eabi/4.8.2/../../../../arm-none-eabi/lib/thumb/libstdc++.a(string-inst.o)
 .ARM.extab.text._ZNKSs8_M_limitEjj
                0x000000000206832c        0x0 /home/linux/devkitPro/devkitARM/bin/../lib/gcc/arm-none-eabi/4.8.2/../../../../arm-none-eabi/lib/thumb/libstdc++.a(string-inst.o)
 .ARM.extab.text._ZNKSs11_M_disjunctEPKc
                0x000000000206832c        0x0 /home/linux/devkitPro/devkitARM/bin/../lib/gcc/arm-none-eabi/4.8.2/../../../../arm-none-eabi/lib/thumb/libstdc++.a(string-inst.o)
 .ARM.extab.text._ZNSs7_M_copyEPcPKcj
                0x000000000206832c        0x0 /home/linux/devkitPro/devkitARM/bin/../lib/gcc/arm-none-eabi/4.8.2/../../../../arm-none-eabi/lib/thumb/libstdc++.a(string-inst.o)
 .ARM.extab.text._ZNSs7_M_moveEPcPKcj
                0x000000000206832c        0x0 /home/linux/devkitPro/devkitARM/bin/../lib/gcc/arm-none-eabi/4.8.2/../../../../arm-none-eabi/lib/thumb/libstdc++.a(string-inst.o)
 .ARM.extab.text._ZNSs9_M_assignEPcjc
                0x000000000206832c        0x0 /home/linux/devkitPro/devkitARM/bin/../lib/gcc/arm-none-eabi/4.8.2/../../../../arm-none-eabi/lib/thumb/libstdc++.a(string-inst.o)
 .ARM.extab.text._ZNSs13_S_copy_charsEPcN9__gnu_cxx17__normal_iteratorIS_SsEES2_
                0x000000000206832c        0x0 /home/linux/devkitPro/devkitARM/bin/../lib/gcc/arm-none-eabi/4.8.2/../../../../arm-none-eabi/lib/thumb/libstdc++.a(string-inst.o)
 .ARM.extab.text._ZNSs13_S_copy_charsEPcN9__gnu_cxx17__normal_iteratorIPKcSsEES4_
                0x000000000206832c        0x0 /home/linux/devkitPro/devkitARM/bin/../lib/gcc/arm-none-eabi/4.8.2/../../../../arm-none-eabi/lib/thumb/libstdc++.a(string-inst.o)
 .ARM.extab.text._ZNSs13_S_copy_charsEPcS_S_
                0x000000000206832c        0x0 /home/linux/devkitPro/devkitARM/bin/../lib/gcc/arm-none-eabi/4.8.2/../../../../arm-none-eabi/lib/thumb/libstdc++.a(string-inst.o)
 .ARM.extab.text._ZNSs13_S_copy_charsEPcPKcS1_
                0x000000000206832c        0x0 /home/linux/devkitPro/devkitARM/bin/../lib/gcc/arm-none-eabi/4.8.2/../../../../arm-none-eabi/lib/thumb/libstdc++.a(string-inst.o)
 .ARM.extab.text._ZNSs10_S_compareEjj
                0x000000000206832c        0x0 /home/linux/devkitPro/devkitARM/bin/../lib/gcc/arm-none-eabi/4.8.2/../../../../arm-none-eabi/lib/thumb/libstdc++.a(string-inst.o)
 .ARM.extab.text._ZNSs12_S_empty_repEv
                0x000000000206832c        0x0 /home/linux/devkitPro/devkitARM/bin/../lib/gcc/arm-none-eabi/4.8.2/../../../../arm-none-eabi/lib/thumb/libstdc++.a(string-inst.o)
 .ARM.extab.text._ZNSsC2Ev
                0x000000000206832c        0x0 /home/linux/devkitPro/devkitARM/bin/../lib/gcc/arm-none-eabi/4.8.2/../../../../arm-none-eabi/lib/thumb/libstdc++.a(string-inst.o)
 .ARM.extab.text._ZNSsC2EOSs
                0x000000000206832c        0x0 /home/linux/devkitPro/devkitARM/bin/../lib/gcc/arm-none-eabi/4.8.2/../../../../arm-none-eabi/lib/thumb/libstdc++.a(string-inst.o)
 .ARM.extab.text._ZNKSs5beginEv
                0x000000000206832c        0x0 /home/linux/devkitPro/devkitARM/bin/../lib/gcc/arm-none-eabi/4.8.2/../../../../arm-none-eabi/lib/thumb/libstdc++.a(string-inst.o)
 .ARM.extab.text._ZNKSs3endEv
                0x000000000206832c        0x0 /home/linux/devkitPro/devkitARM/bin/../lib/gcc/arm-none-eabi/4.8.2/../../../../arm-none-eabi/lib/thumb/libstdc++.a(string-inst.o)
 .ARM.extab.text._ZNKSs6rbeginEv
                0x000000000206832c        0x0 /home/linux/devkitPro/devkitARM/bin/../lib/gcc/arm-none-eabi/4.8.2/../../../../arm-none-eabi/lib/thumb/libstdc++.a(string-inst.o)
 .ARM.extab.text._ZNKSs4rendEv
                0x000000000206832c        0x0 /home/linux/devkitPro/devkitARM/bin/../lib/gcc/arm-none-eabi/4.8.2/../../../../arm-none-eabi/lib/thumb/libstdc++.a(string-inst.o)
 .ARM.extab.text._ZNKSs6cbeginEv
                0x000000000206832c        0x0 /home/linux/devkitPro/devkitARM/bin/../lib/gcc/arm-none-eabi/4.8.2/../../../../arm-none-eabi/lib/thumb/libstdc++.a(string-inst.o)
 .ARM.extab.text._ZNKSs4cendEv
                0x000000000206832c        0x0 /home/linux/devkitPro/devkitARM/bin/../lib/gcc/arm-none-eabi/4.8.2/../../../../arm-none-eabi/lib/thumb/libstdc++.a(string-inst.o)
 .ARM.extab.text._ZNKSs7crbeginEv
                0x000000000206832c        0x0 /home/linux/devkitPro/devkitARM/bin/../lib/gcc/arm-none-eabi/4.8.2/../../../../arm-none-eabi/lib/thumb/libstdc++.a(string-inst.o)
 .ARM.extab.text._ZNKSs5crendEv
                0x000000000206832c        0x0 /home/linux/devkitPro/devkitARM/bin/../lib/gcc/arm-none-eabi/4.8.2/../../../../arm-none-eabi/lib/thumb/libstdc++.a(string-inst.o)
 .ARM.extab.text._ZNKSs4sizeEv
                0x000000000206832c        0x0 /home/linux/devkitPro/devkitARM/bin/../lib/gcc/arm-none-eabi/4.8.2/../../../../arm-none-eabi/lib/thumb/libstdc++.a(string-inst.o)
 .ARM.extab.text._ZNKSs8max_sizeEv
                0x000000000206832c        0x0 /home/linux/devkitPro/devkitARM/bin/../lib/gcc/arm-none-eabi/4.8.2/../../../../arm-none-eabi/lib/thumb/libstdc++.a(string-inst.o)
 .ARM.extab.text._ZNKSs8capacityEv
                0x000000000206832c        0x0 /home/linux/devkitPro/devkitARM/bin/../lib/gcc/arm-none-eabi/4.8.2/../../../../arm-none-eabi/lib/thumb/libstdc++.a(string-inst.o)
 .ARM.extab.text._ZNKSs5emptyEv
                0x000000000206832c        0x0 /home/linux/devkitPro/devkitARM/bin/../lib/gcc/arm-none-eabi/4.8.2/../../../../arm-none-eabi/lib/thumb/libstdc++.a(string-inst.o)
 .ARM.extab.text._ZNKSsixEj
                0x000000000206832c        0x0 /home/linux/devkitPro/devkitARM/bin/../lib/gcc/arm-none-eabi/4.8.2/../../../../arm-none-eabi/lib/thumb/libstdc++.a(string-inst.o)
 .ARM.extab.text._ZNKSs2atEj
                0x000000000206832c        0xc /home/linux/devkitPro/devkitARM/bin/../lib/gcc/arm-none-eabi/4.8.2/../../../../arm-none-eabi/lib/thumb/libstdc++.a(string-inst.o)
 .ARM.extab.text._ZNKSs5frontEv
                0x0000000002068338        0x0 /home/linux/devkitPro/devkitARM/bin/../lib/gcc/arm-none-eabi/4.8.2/../../../../arm-none-eabi/lib/thumb/libstdc++.a(string-inst.o)
 .ARM.extab.text._ZNKSs4backEv
                0x0000000002068338        0x0 /home/linux/devkitPro/devkitARM/bin/../lib/gcc/arm-none-eabi/4.8.2/../../../../arm-none-eabi/lib/thumb/libstdc++.a(string-inst.o)
 .ARM.extab.text._ZNKSs4copyEPcjj
                0x0000000002068338        0x0 /home/linux/devkitPro/devkitARM/bin/../lib/gcc/arm-none-eabi/4.8.2/../../../../arm-none-eabi/lib/thumb/libstdc++.a(string-inst.o)
 .ARM.extab.text._ZNSs4swapERSs
                0x0000000002068338        0x0 /home/linux/devkitPro/devkitARM/bin/../lib/gcc/arm-none-eabi/4.8.2/../../../../arm-none-eabi/lib/thumb/libstdc++.a(string-inst.o)
 .ARM.extab.text._ZNSsaSEOSs
                0x0000000002068338        0x0 /home/linux/devkitPro/devkitARM/bin/../lib/gcc/arm-none-eabi/4.8.2/../../../../arm-none-eabi/lib/thumb/libstdc++.a(string-inst.o)
 .ARM.extab.text._ZNSs6assignEOSs
                0x0000000002068338        0x0 /home/linux/devkitPro/devkitARM/bin/../lib/gcc/arm-none-eabi/4.8.2/../../../../arm-none-eabi/lib/thumb/libstdc++.a(string-inst.o)
 .ARM.extab.text._ZNKSs5c_strEv
                0x0000000002068338        0x0 /home/linux/devkitPro/devkitARM/bin/../lib/gcc/arm-none-eabi/4.8.2/../../../../arm-none-eabi/lib/thumb/libstdc++.a(string-inst.o)
 .ARM.extab.text._ZNKSs13get_allocatorEv
                0x0000000002068338        0x0 /home/linux/devkitPro/devkitARM/bin/../lib/gcc/arm-none-eabi/4.8.2/../../../../arm-none-eabi/lib/thumb/libstdc++.a(string-inst.o)
 .ARM.extab.text._ZNKSs4findEPKcjj
                0x0000000002068338        0x0 /home/linux/devkitPro/devkitARM/bin/../lib/gcc/arm-none-eabi/4.8.2/../../../../arm-none-eabi/lib/thumb/libstdc++.a(string-inst.o)
 .ARM.extab.text._ZNKSs4findERKSsj
                0x0000000002068338       0x10 /home/linux/devkitPro/devkitARM/bin/../lib/gcc/arm-none-eabi/4.8.2/../../../../arm-none-eabi/lib/thumb/libstdc++.a(string-inst.o)
 .ARM.extab.text._ZNKSs4findEPKcj
                0x0000000002068348        0x0 /home/linux/devkitPro/devkitARM/bin/../lib/gcc/arm-none-eabi/4.8.2/../../../../arm-none-eabi/lib/thumb/libstdc++.a(string-inst.o)
 .ARM.extab.text._ZNKSs4findEcj
                0x0000000002068348        0x0 /home/linux/devkitPro/devkitARM/bin/../lib/gcc/arm-none-eabi/4.8.2/../../../../arm-none-eabi/lib/thumb/libstdc++.a(string-inst.o)
 .ARM.extab.text._ZNKSs5rfindEPKcjj
                0x0000000002068348        0x0 /home/linux/devkitPro/devkitARM/bin/../lib/gcc/arm-none-eabi/4.8.2/../../../../arm-none-eabi/lib/thumb/libstdc++.a(string-inst.o)
 .ARM.extab.text._ZNKSs5rfindERKSsj
                0x0000000002068348       0x10 /home/linux/devkitPro/devkitARM/bin/../lib/gcc/arm-none-eabi/4.8.2/../../../../arm-none-eabi/lib/thumb/libstdc++.a(string-inst.o)
 .ARM.extab.text._ZNKSs5rfindEPKcj
                0x0000000002068358        0x0 /home/linux/devkitPro/devkitARM/bin/../lib/gcc/arm-none-eabi/4.8.2/../../../../arm-none-eabi/lib/thumb/libstdc++.a(string-inst.o)
 .ARM.extab.text._ZNKSs5rfindEcj
                0x0000000002068358        0x0 /home/linux/devkitPro/devkitARM/bin/../lib/gcc/arm-none-eabi/4.8.2/../../../../arm-none-eabi/lib/thumb/libstdc++.a(string-inst.o)
 .ARM.extab.text._ZNKSs13find_first_ofEPKcjj
                0x0000000002068358        0x0 /home/linux/devkitPro/devkitARM/bin/../lib/gcc/arm-none-eabi/4.8.2/../../../../arm-none-eabi/lib/thumb/libstdc++.a(string-inst.o)
 .ARM.extab.text._ZNKSs13find_first_ofERKSsj
                0x0000000002068358       0x10 /home/linux/devkitPro/devkitARM/bin/../lib/gcc/arm-none-eabi/4.8.2/../../../../arm-none-eabi/lib/thumb/libstdc++.a(string-inst.o)
 .ARM.extab.text._ZNKSs13find_first_ofEPKcj
                0x0000000002068368        0x0 /home/linux/devkitPro/devkitARM/bin/../lib/gcc/arm-none-eabi/4.8.2/../../../../arm-none-eabi/lib/thumb/libstdc++.a(string-inst.o)
 .ARM.extab.text._ZNKSs13find_first_ofEcj
                0x0000000002068368        0x0 /home/linux/devkitPro/devkitARM/bin/../lib/gcc/arm-none-eabi/4.8.2/../../../../arm-none-eabi/lib/thumb/libstdc++.a(string-inst.o)
 .ARM.extab.text._ZNKSs12find_last_ofEPKcjj
                0x0000000002068368        0x0 /home/linux/devkitPro/devkitARM/bin/../lib/gcc/arm-none-eabi/4.8.2/../../../../arm-none-eabi/lib/thumb/libstdc++.a(string-inst.o)
 .ARM.extab.text._ZNKSs12find_last_ofERKSsj
                0x0000000002068368       0x10 /home/linux/devkitPro/devkitARM/bin/../lib/gcc/arm-none-eabi/4.8.2/../../../../arm-none-eabi/lib/thumb/libstdc++.a(string-inst.o)
 .ARM.extab.text._ZNKSs12find_last_ofEPKcj
                0x0000000002068378        0x0 /home/linux/devkitPro/devkitARM/bin/../lib/gcc/arm-none-eabi/4.8.2/../../../../arm-none-eabi/lib/thumb/libstdc++.a(string-inst.o)
 .ARM.extab.text._ZNKSs12find_last_ofEcj
                0x0000000002068378        0x0 /home/linux/devkitPro/devkitARM/bin/../lib/gcc/arm-none-eabi/4.8.2/../../../../arm-none-eabi/lib/thumb/libstdc++.a(string-inst.o)
 .ARM.extab.text._ZNKSs17find_first_not_ofEPKcjj
                0x0000000002068378        0x0 /home/linux/devkitPro/devkitARM/bin/../lib/gcc/arm-none-eabi/4.8.2/../../../../arm-none-eabi/lib/thumb/libstdc++.a(string-inst.o)
 .ARM.extab.text._ZNKSs17find_first_not_ofERKSsj
                0x0000000002068378       0x10 /home/linux/devkitPro/devkitARM/bin/../lib/gcc/arm-none-eabi/4.8.2/../../../../arm-none-eabi/lib/thumb/libstdc++.a(string-inst.o)
 .ARM.extab.text._ZNKSs17find_first_not_ofEPKcj
                0x0000000002068388        0x0 /home/linux/devkitPro/devkitARM/bin/../lib/gcc/arm-none-eabi/4.8.2/../../../../arm-none-eabi/lib/thumb/libstdc++.a(string-inst.o)
 .ARM.extab.text._ZNKSs17find_first_not_ofEcj
                0x0000000002068388        0x0 /home/linux/devkitPro/devkitARM/bin/../lib/gcc/arm-none-eabi/4.8.2/../../../../arm-none-eabi/lib/thumb/libstdc++.a(string-inst.o)
 .ARM.extab.text._ZNKSs16find_last_not_ofEPKcjj
                0x0000000002068388        0x0 /home/linux/devkitPro/devkitARM/bin/../lib/gcc/arm-none-eabi/4.8.2/../../../../arm-none-eabi/lib/thumb/libstdc++.a(string-inst.o)
 .ARM.extab.text._ZNKSs16find_last_not_ofERKSsj
                0x0000000002068388       0x10 /home/linux/devkitPro/devkitARM/bin/../lib/gcc/arm-none-eabi/4.8.2/../../../../arm-none-eabi/lib/thumb/libstdc++.a(string-inst.o)
 .ARM.extab.text._ZNKSs16find_last_not_ofEPKcj
                0x0000000002068398        0x0 /home/linux/devkitPro/devkitARM/bin/../lib/gcc/arm-none-eabi/4.8.2/../../../../arm-none-eabi/lib/thumb/libstdc++.a(string-inst.o)
 .ARM.extab.text._ZNKSs16find_last_not_ofEcj
                0x0000000002068398        0x0 /home/linux/devkitPro/devkitARM/bin/../lib/gcc/arm-none-eabi/4.8.2/../../../../arm-none-eabi/lib/thumb/libstdc++.a(string-inst.o)
 .ARM.extab.text._ZNKSs7compareERKSs
                0x0000000002068398        0x0 /home/linux/devkitPro/devkitARM/bin/../lib/gcc/arm-none-eabi/4.8.2/../../../../arm-none-eabi/lib/thumb/libstdc++.a(string-inst.o)
 .ARM.extab.text._ZNKSs7compareEjjRKSs
                0x0000000002068398        0x0 /home/linux/devkitPro/devkitARM/bin/../lib/gcc/arm-none-eabi/4.8.2/../../../../arm-none-eabi/lib/thumb/libstdc++.a(string-inst.o)
 .ARM.extab.text._ZNKSs7compareEjjRKSsjj
                0x0000000002068398        0x0 /home/linux/devkitPro/devkitARM/bin/../lib/gcc/arm-none-eabi/4.8.2/../../../../arm-none-eabi/lib/thumb/libstdc++.a(string-inst.o)
 .ARM.extab.text._ZNKSs7compareEPKc
                0x0000000002068398        0x0 /home/linux/devkitPro/devkitARM/bin/../lib/gcc/arm-none-eabi/4.8.2/../../../../arm-none-eabi/lib/thumb/libstdc++.a(string-inst.o)
 .ARM.extab.text._ZNKSs7compareEjjPKc
                0x0000000002068398        0x0 /home/linux/devkitPro/devkitARM/bin/../lib/gcc/arm-none-eabi/4.8.2/../../../../arm-none-eabi/lib/thumb/libstdc++.a(string-inst.o)
 .ARM.extab.text._ZNKSs7compareEjjPKcj
                0x0000000002068398        0x0 /home/linux/devkitPro/devkitARM/bin/../lib/gcc/arm-none-eabi/4.8.2/../../../../arm-none-eabi/lib/thumb/libstdc++.a(string-inst.o)
 .ARM.extab.text._ZNSs12_Alloc_hiderC2EPcRKSaIcE
                0x0000000002068398        0x0 /home/linux/devkitPro/devkitARM/bin/../lib/gcc/arm-none-eabi/4.8.2/../../../../arm-none-eabi/lib/thumb/libstdc++.a(string-inst.o)
 .ARM.extab.text._ZNSs4_Rep12_S_empty_repEv
                0x0000000002068398        0x0 /home/linux/devkitPro/devkitARM/bin/../lib/gcc/arm-none-eabi/4.8.2/../../../../arm-none-eabi/lib/thumb/libstdc++.a(string-inst.o)
 .ARM.extab.text._ZNKSs4_Rep12_M_is_leakedEv
                0x0000000002068398        0x0 /home/linux/devkitPro/devkitARM/bin/../lib/gcc/arm-none-eabi/4.8.2/../../../../arm-none-eabi/lib/thumb/libstdc++.a(string-inst.o)
 .ARM.extab.text._ZNKSs4_Rep12_M_is_sharedEv
                0x0000000002068398        0x0 /home/linux/devkitPro/devkitARM/bin/../lib/gcc/arm-none-eabi/4.8.2/../../../../arm-none-eabi/lib/thumb/libstdc++.a(string-inst.o)
 .ARM.extab.text._ZNSs4_Rep13_M_set_leakedEv
                0x0000000002068398        0x0 /home/linux/devkitPro/devkitARM/bin/../lib/gcc/arm-none-eabi/4.8.2/../../../../arm-none-eabi/lib/thumb/libstdc++.a(string-inst.o)
 .ARM.extab.text._ZNSs4_Rep15_M_set_sharableEv
                0x0000000002068398        0x0 /home/linux/devkitPro/devkitARM/bin/../lib/gcc/arm-none-eabi/4.8.2/../../../../arm-none-eabi/lib/thumb/libstdc++.a(string-inst.o)
 .ARM.extab.text._ZNSs4_Rep26_M_set_length_and_sharableEj
                0x0000000002068398        0x0 /home/linux/devkitPro/devkitARM/bin/../lib/gcc/arm-none-eabi/4.8.2/../../../../arm-none-eabi/lib/thumb/libstdc++.a(string-inst.o)
 .ARM.extab.text._ZNSs4_Rep10_M_refdataEv
                0x0000000002068398        0x0 /home/linux/devkitPro/devkitARM/bin/../lib/gcc/arm-none-eabi/4.8.2/../../../../arm-none-eabi/lib/thumb/libstdc++.a(string-inst.o)
 .ARM.extab.text._ZNSs4_Rep9_S_createEjjRKSaIcE
                0x0000000002068398        0x0 /home/linux/devkitPro/devkitARM/bin/../lib/gcc/arm-none-eabi/4.8.2/../../../../arm-none-eabi/lib/thumb/libstdc++.a(string-inst.o)
 .ARM.extab.text._ZNSs12_S_constructEjcRKSaIcE
                0x0000000002068398        0x0 /home/linux/devkitPro/devkitARM/bin/../lib/gcc/arm-none-eabi/4.8.2/../../../../arm-none-eabi/lib/thumb/libstdc++.a(string-inst.o)
 .ARM.extab.text._ZNSsC2ERKSaIcE
                0x0000000002068398        0x0 /home/linux/devkitPro/devkitARM/bin/../lib/gcc/arm-none-eabi/4.8.2/../../../../arm-none-eabi/lib/thumb/libstdc++.a(string-inst.o)
 .ARM.extab.text._ZNSsC2EjcRKSaIcE
                0x0000000002068398        0x0 /home/linux/devkitPro/devkitARM/bin/../lib/gcc/arm-none-eabi/4.8.2/../../../../arm-none-eabi/lib/thumb/libstdc++.a(string-inst.o)
 .ARM.extab.text._ZNSs18_S_construct_aux_2EjcRKSaIcE
                0x0000000002068398        0xc /home/linux/devkitPro/devkitARM/bin/../lib/gcc/arm-none-eabi/4.8.2/../../../../arm-none-eabi/lib/thumb/libstdc++.a(string-inst.o)
 .ARM.extab.text._ZNSs4_Rep10_M_destroyERKSaIcE
                0x00000000020683a4        0x0 /home/linux/devkitPro/devkitARM/bin/../lib/gcc/arm-none-eabi/4.8.2/../../../../arm-none-eabi/lib/thumb/libstdc++.a(string-inst.o)
 .ARM.extab.text.unlikely._ZNSs4_Rep10_M_disposeERKSaIcE.part.11
                0x00000000020683a4        0x0 /home/linux/devkitPro/devkitARM/bin/../lib/gcc/arm-none-eabi/4.8.2/../../../../arm-none-eabi/lib/thumb/libstdc++.a(string-inst.o)
 .ARM.extab.text._ZNSs4_Rep10_M_disposeERKSaIcE
                0x00000000020683a4        0x0 /home/linux/devkitPro/devkitARM/bin/../lib/gcc/arm-none-eabi/4.8.2/../../../../arm-none-eabi/lib/thumb/libstdc++.a(string-inst.o)
 .ARM.extab.text._ZNSsD2Ev
                0x00000000020683a4        0x0 /home/linux/devkitPro/devkitARM/bin/../lib/gcc/arm-none-eabi/4.8.2/../../../../arm-none-eabi/lib/thumb/libstdc++.a(string-inst.o)
 .ARM.extab.text._ZNSs9_M_mutateEjjj
                0x00000000020683a4        0xc /home/linux/devkitPro/devkitARM/bin/../lib/gcc/arm-none-eabi/4.8.2/../../../../arm-none-eabi/lib/thumb/libstdc++.a(string-inst.o)
 .ARM.extab.text._ZNSs12_M_leak_hardEv
                0x00000000020683b0        0x0 /home/linux/devkitPro/devkitARM/bin/../lib/gcc/arm-none-eabi/4.8.2/../../../../arm-none-eabi/lib/thumb/libstdc++.a(string-inst.o)
 .ARM.extab.text._ZNSs7_M_leakEv
                0x00000000020683b0        0xc /home/linux/devkitPro/devkitARM/bin/../lib/gcc/arm-none-eabi/4.8.2/../../../../arm-none-eabi/lib/thumb/libstdc++.a(string-inst.o)
 .ARM.extab.text._ZNSs5beginEv
                0x00000000020683bc        0xc /home/linux/devkitPro/devkitARM/bin/../lib/gcc/arm-none-eabi/4.8.2/../../../../arm-none-eabi/lib/thumb/libstdc++.a(string-inst.o)
 .ARM.extab.text._ZNSs4rendEv
                0x00000000020683c8        0xc /home/linux/devkitPro/devkitARM/bin/../lib/gcc/arm-none-eabi/4.8.2/../../../../arm-none-eabi/lib/thumb/libstdc++.a(string-inst.o)
 .ARM.extab.text._ZNSs3endEv
                0x00000000020683d4        0xc /home/linux/devkitPro/devkitARM/bin/../lib/gcc/arm-none-eabi/4.8.2/../../../../arm-none-eabi/lib/thumb/libstdc++.a(string-inst.o)
 .ARM.extab.text._ZNSsixEj
                0x00000000020683e0        0x0 /home/linux/devkitPro/devkitARM/bin/../lib/gcc/arm-none-eabi/4.8.2/../../../../arm-none-eabi/lib/thumb/libstdc++.a(string-inst.o)
 .ARM.extab.text._ZNSs5frontEv
                0x00000000020683e0        0x0 /home/linux/devkitPro/devkitARM/bin/../lib/gcc/arm-none-eabi/4.8.2/../../../../arm-none-eabi/lib/thumb/libstdc++.a(string-inst.o)
 .ARM.extab.text._ZNSs4backEv
                0x00000000020683e0        0x0 /home/linux/devkitPro/devkitARM/bin/../lib/gcc/arm-none-eabi/4.8.2/../../../../arm-none-eabi/lib/thumb/libstdc++.a(string-inst.o)
 .ARM.extab.text._ZNSs2atEj
                0x00000000020683e0        0x0 /home/linux/devkitPro/devkitARM/bin/../lib/gcc/arm-none-eabi/4.8.2/../../../../arm-none-eabi/lib/thumb/libstdc++.a(string-inst.o)
 .ARM.extab.text._ZNSs6rbeginEv
                0x00000000020683e0        0xc /home/linux/devkitPro/devkitARM/bin/../lib/gcc/arm-none-eabi/4.8.2/../../../../arm-none-eabi/lib/thumb/libstdc++.a(string-inst.o)
 .ARM.extab.text._ZNSs5clearEv
                0x00000000020683ec       0x10 /home/linux/devkitPro/devkitARM/bin/../lib/gcc/arm-none-eabi/4.8.2/../../../../arm-none-eabi/lib/thumb/libstdc++.a(string-inst.o)
 .ARM.extab.text._ZNSs5eraseEjj
                0x00000000020683fc        0x0 /home/linux/devkitPro/devkitARM/bin/../lib/gcc/arm-none-eabi/4.8.2/../../../../arm-none-eabi/lib/thumb/libstdc++.a(string-inst.o)
 .ARM.extab.text._ZNSs5eraseEN9__gnu_cxx17__normal_iteratorIPcSsEE
                0x00000000020683fc        0x0 /home/linux/devkitPro/devkitARM/bin/../lib/gcc/arm-none-eabi/4.8.2/../../../../arm-none-eabi/lib/thumb/libstdc++.a(string-inst.o)
 .ARM.extab.text._ZNSs5eraseEN9__gnu_cxx17__normal_iteratorIPcSsEES2_
                0x00000000020683fc        0x0 /home/linux/devkitPro/devkitARM/bin/../lib/gcc/arm-none-eabi/4.8.2/../../../../arm-none-eabi/lib/thumb/libstdc++.a(string-inst.o)
 .ARM.extab.text._ZNSs14_M_replace_auxEjjjc
                0x00000000020683fc        0x0 /home/linux/devkitPro/devkitARM/bin/../lib/gcc/arm-none-eabi/4.8.2/../../../../arm-none-eabi/lib/thumb/libstdc++.a(string-inst.o)
 .ARM.extab.text._ZNSs6assignEjc
                0x00000000020683fc        0x0 /home/linux/devkitPro/devkitARM/bin/../lib/gcc/arm-none-eabi/4.8.2/../../../../arm-none-eabi/lib/thumb/libstdc++.a(string-inst.o)
 .ARM.extab.text._ZNSsaSEc
                0x00000000020683fc        0x0 /home/linux/devkitPro/devkitARM/bin/../lib/gcc/arm-none-eabi/4.8.2/../../../../arm-none-eabi/lib/thumb/libstdc++.a(string-inst.o)
 .ARM.extab.text._ZNSs6insertEjjc
                0x00000000020683fc        0x0 /home/linux/devkitPro/devkitARM/bin/../lib/gcc/arm-none-eabi/4.8.2/../../../../arm-none-eabi/lib/thumb/libstdc++.a(string-inst.o)
 .ARM.extab.text._ZNSs6insertEN9__gnu_cxx17__normal_iteratorIPcSsEEc
                0x00000000020683fc        0x0 /home/linux/devkitPro/devkitARM/bin/../lib/gcc/arm-none-eabi/4.8.2/../../../../arm-none-eabi/lib/thumb/libstdc++.a(string-inst.o)
 .ARM.extab.text._ZNSs7replaceEjjjc
                0x00000000020683fc        0x0 /home/linux/devkitPro/devkitARM/bin/../lib/gcc/arm-none-eabi/4.8.2/../../../../arm-none-eabi/lib/thumb/libstdc++.a(string-inst.o)
 .ARM.extab.text._ZNSs7replaceEN9__gnu_cxx17__normal_iteratorIPcSsEES2_jc
                0x00000000020683fc        0x0 /home/linux/devkitPro/devkitARM/bin/../lib/gcc/arm-none-eabi/4.8.2/../../../../arm-none-eabi/lib/thumb/libstdc++.a(string-inst.o)
 .ARM.extab.text._ZNSs6insertEN9__gnu_cxx17__normal_iteratorIPcSsEEjc
                0x00000000020683fc        0x0 /home/linux/devkitPro/devkitARM/bin/../lib/gcc/arm-none-eabi/4.8.2/../../../../arm-none-eabi/lib/thumb/libstdc++.a(string-inst.o)
 .ARM.extab.text._ZNSs15_M_replace_safeEjjPKcj
                0x00000000020683fc        0x0 /home/linux/devkitPro/devkitARM/bin/../lib/gcc/arm-none-eabi/4.8.2/../../../../arm-none-eabi/lib/thumb/libstdc++.a(string-inst.o)
 .ARM.extab.text._ZNSs6assignEPKcj
                0x00000000020683fc        0x0 /home/linux/devkitPro/devkitARM/bin/../lib/gcc/arm-none-eabi/4.8.2/../../../../arm-none-eabi/lib/thumb/libstdc++.a(string-inst.o)
 .ARM.extab.text._ZNSsaSESt16initializer_listIcE
                0x00000000020683fc        0x0 /home/linux/devkitPro/devkitARM/bin/../lib/gcc/arm-none-eabi/4.8.2/../../../../arm-none-eabi/lib/thumb/libstdc++.a(string-inst.o)
 .ARM.extab.text._ZNSs6assignERKSsjj
                0x00000000020683fc        0x0 /home/linux/devkitPro/devkitARM/bin/../lib/gcc/arm-none-eabi/4.8.2/../../../../arm-none-eabi/lib/thumb/libstdc++.a(string-inst.o)
 .ARM.extab.text._ZNSs6assignEPKc
                0x00000000020683fc        0x0 /home/linux/devkitPro/devkitARM/bin/../lib/gcc/arm-none-eabi/4.8.2/../../../../arm-none-eabi/lib/thumb/libstdc++.a(string-inst.o)
 .ARM.extab.text._ZNSs6assignESt16initializer_listIcE
                0x00000000020683fc        0x0 /home/linux/devkitPro/devkitARM/bin/../lib/gcc/arm-none-eabi/4.8.2/../../../../arm-none-eabi/lib/thumb/libstdc++.a(string-inst.o)
 .ARM.extab.text._ZNSsaSEPKc
                0x00000000020683fc        0x0 /home/linux/devkitPro/devkitARM/bin/../lib/gcc/arm-none-eabi/4.8.2/../../../../arm-none-eabi/lib/thumb/libstdc++.a(string-inst.o)
 .ARM.extab.text._ZNSs6insertEjPKcj
                0x00000000020683fc        0x0 /home/linux/devkitPro/devkitARM/bin/../lib/gcc/arm-none-eabi/4.8.2/../../../../arm-none-eabi/lib/thumb/libstdc++.a(string-inst.o)
 .ARM.extab.text._ZNSs6insertEN9__gnu_cxx17__normal_iteratorIPcSsEESt16initializer_listIcE
                0x00000000020683fc        0x0 /home/linux/devkitPro/devkitARM/bin/../lib/gcc/arm-none-eabi/4.8.2/../../../../arm-none-eabi/lib/thumb/libstdc++.a(string-inst.o)
 .ARM.extab.text._ZNSs6insertEjRKSsjj
                0x00000000020683fc        0x0 /home/linux/devkitPro/devkitARM/bin/../lib/gcc/arm-none-eabi/4.8.2/../../../../arm-none-eabi/lib/thumb/libstdc++.a(string-inst.o)
 .ARM.extab.text._ZNSs6insertEjPKc
                0x00000000020683fc        0x0 /home/linux/devkitPro/devkitARM/bin/../lib/gcc/arm-none-eabi/4.8.2/../../../../arm-none-eabi/lib/thumb/libstdc++.a(string-inst.o)
 .ARM.extab.text._ZNSs6insertEjRKSs
                0x00000000020683fc        0xc /home/linux/devkitPro/devkitARM/bin/../lib/gcc/arm-none-eabi/4.8.2/../../../../arm-none-eabi/lib/thumb/libstdc++.a(string-inst.o)
 .ARM.extab.text._ZNSs8pop_backEv
                0x0000000002068408        0xc /home/linux/devkitPro/devkitARM/bin/../lib/gcc/arm-none-eabi/4.8.2/../../../../arm-none-eabi/lib/thumb/libstdc++.a(string-inst.o)
 .ARM.extab.text._ZNSs4_Rep10_M_refcopyEv
                0x0000000002068414        0x0 /home/linux/devkitPro/devkitARM/bin/../lib/gcc/arm-none-eabi/4.8.2/../../../../arm-none-eabi/lib/thumb/libstdc++.a(string-inst.o)
 .ARM.extab.text._ZNSs4_Rep8_M_cloneERKSaIcEj
                0x0000000002068414        0x0 /home/linux/devkitPro/devkitARM/bin/../lib/gcc/arm-none-eabi/4.8.2/../../../../arm-none-eabi/lib/thumb/libstdc++.a(string-inst.o)
 .ARM.extab.text._ZNSs7reserveEj
                0x0000000002068414        0x0 /home/linux/devkitPro/devkitARM/bin/../lib/gcc/arm-none-eabi/4.8.2/../../../../arm-none-eabi/lib/thumb/libstdc++.a(string-inst.o)
 .ARM.extab.text._ZNSs13shrink_to_fitEv
                0x0000000002068414       0x20 /home/linux/devkitPro/devkitARM/bin/../lib/gcc/arm-none-eabi/4.8.2/../../../../arm-none-eabi/lib/thumb/libstdc++.a(string-inst.o)
 .ARM.extab.text._ZNSs6appendERKSs
                0x0000000002068434        0x0 /home/linux/devkitPro/devkitARM/bin/../lib/gcc/arm-none-eabi/4.8.2/../../../../arm-none-eabi/lib/thumb/libstdc++.a(string-inst.o)
 .ARM.extab.text._ZNSspLERKSs
                0x0000000002068434        0xc /home/linux/devkitPro/devkitARM/bin/../lib/gcc/arm-none-eabi/4.8.2/../../../../arm-none-eabi/lib/thumb/libstdc++.a(string-inst.o)
 .ARM.extab.text._ZNSs6appendERKSsjj
                0x0000000002068440        0x0 /home/linux/devkitPro/devkitARM/bin/../lib/gcc/arm-none-eabi/4.8.2/../../../../arm-none-eabi/lib/thumb/libstdc++.a(string-inst.o)
 .ARM.extab.text._ZNSs6appendEPKcj
                0x0000000002068440        0x0 /home/linux/devkitPro/devkitARM/bin/../lib/gcc/arm-none-eabi/4.8.2/../../../../arm-none-eabi/lib/thumb/libstdc++.a(string-inst.o)
 .ARM.extab.text._ZNSspLESt16initializer_listIcE
                0x0000000002068440        0x0 /home/linux/devkitPro/devkitARM/bin/../lib/gcc/arm-none-eabi/4.8.2/../../../../arm-none-eabi/lib/thumb/libstdc++.a(string-inst.o)
 .ARM.extab.text._ZNSs6appendEPKc
                0x0000000002068440        0x0 /home/linux/devkitPro/devkitARM/bin/../lib/gcc/arm-none-eabi/4.8.2/../../../../arm-none-eabi/lib/thumb/libstdc++.a(string-inst.o)
 .ARM.extab.text._ZNSs6appendESt16initializer_listIcE
                0x0000000002068440        0x0 /home/linux/devkitPro/devkitARM/bin/../lib/gcc/arm-none-eabi/4.8.2/../../../../arm-none-eabi/lib/thumb/libstdc++.a(string-inst.o)
 .ARM.extab.text._ZNSspLEPKc
                0x0000000002068440        0x0 /home/linux/devkitPro/devkitARM/bin/../lib/gcc/arm-none-eabi/4.8.2/../../../../arm-none-eabi/lib/thumb/libstdc++.a(string-inst.o)
 .ARM.extab.text._ZNSs6appendEjc
                0x0000000002068440        0x0 /home/linux/devkitPro/devkitARM/bin/../lib/gcc/arm-none-eabi/4.8.2/../../../../arm-none-eabi/lib/thumb/libstdc++.a(string-inst.o)
 .ARM.extab.text._ZNSs6resizeEjc
                0x0000000002068440        0x0 /home/linux/devkitPro/devkitARM/bin/../lib/gcc/arm-none-eabi/4.8.2/../../../../arm-none-eabi/lib/thumb/libstdc++.a(string-inst.o)
 .ARM.extab.text._ZNSs6resizeEj
                0x0000000002068440        0xc /home/linux/devkitPro/devkitARM/bin/../lib/gcc/arm-none-eabi/4.8.2/../../../../arm-none-eabi/lib/thumb/libstdc++.a(string-inst.o)
 .ARM.extab.text._ZNSs9push_backEc
                0x000000000206844c        0x0 /home/linux/devkitPro/devkitARM/bin/../lib/gcc/arm-none-eabi/4.8.2/../../../../arm-none-eabi/lib/thumb/libstdc++.a(string-inst.o)
 .ARM.extab.text._ZNSspLEc
                0x000000000206844c        0x0 /home/linux/devkitPro/devkitARM/bin/../lib/gcc/arm-none-eabi/4.8.2/../../../../arm-none-eabi/lib/thumb/libstdc++.a(string-inst.o)
 .ARM.extab.text._ZNSs4_Rep7_M_grabERKSaIcES2_
                0x000000000206844c        0xc /home/linux/devkitPro/devkitARM/bin/../lib/gcc/arm-none-eabi/4.8.2/../../../../arm-none-eabi/lib/thumb/libstdc++.a(string-inst.o)
 .ARM.extab.text._ZNSsC2ERKSs
                0x0000000002068458        0x0 /home/linux/devkitPro/devkitARM/bin/../lib/gcc/arm-none-eabi/4.8.2/../../../../arm-none-eabi/lib/thumb/libstdc++.a(string-inst.o)
 .ARM.extab.text._ZNSs6assignERKSs
                0x0000000002068458        0x0 /home/linux/devkitPro/devkitARM/bin/../lib/gcc/arm-none-eabi/4.8.2/../../../../arm-none-eabi/lib/thumb/libstdc++.a(string-inst.o)
 .ARM.extab.text._ZNSsaSERKSs
                0x0000000002068458        0xc /home/linux/devkitPro/devkitARM/bin/../lib/gcc/arm-none-eabi/4.8.2/../../../../arm-none-eabi/lib/thumb/libstdc++.a(string-inst.o)
 .ARM.extab.text._ZStplIcSt11char_traitsIcESaIcEESbIT_T0_T1_EPKS3_RKS6_
                0x0000000002068464       0x14 /home/linux/devkitPro/devkitARM/bin/../lib/gcc/arm-none-eabi/4.8.2/../../../../arm-none-eabi/lib/thumb/libstdc++.a(string-inst.o)
 .ARM.extab.text._ZStplIcSt11char_traitsIcESaIcEESbIT_T0_T1_ES3_RKS6_
                0x0000000002068478       0x14 /home/linux/devkitPro/devkitARM/bin/../lib/gcc/arm-none-eabi/4.8.2/../../../../arm-none-eabi/lib/thumb/libstdc++.a(string-inst.o)
 .ARM.extab.text._ZStplIcSt11char_traitsIcESaIcEESbIT_T0_T1_ERKS6_S8_
                0x000000000206848c       0x18 /home/linux/devkitPro/devkitARM/bin/../lib/gcc/arm-none-eabi/4.8.2/../../../../arm-none-eabi/lib/thumb/libstdc++.a(string-inst.o)
 .ARM.extab.text._ZNSs12_S_constructIN9__gnu_cxx17__normal_iteratorIPcSsEEEES2_T_S4_RKSaIcESt20forward_iterator_tag
                0x00000000020684a4        0x0 /home/linux/devkitPro/devkitARM/bin/../lib/gcc/arm-none-eabi/4.8.2/../../../../arm-none-eabi/lib/thumb/libstdc++.a(string-inst.o)
 .ARM.extab.text._ZNSsC2IN9__gnu_cxx17__normal_iteratorIPcSsEEEET_S4_RKSaIcE
                0x00000000020684a4        0x0 /home/linux/devkitPro/devkitARM/bin/../lib/gcc/arm-none-eabi/4.8.2/../../../../arm-none-eabi/lib/thumb/libstdc++.a(string-inst.o)
 .ARM.extab.text._ZNSs12_S_constructIPcEES0_T_S1_RKSaIcESt20forward_iterator_tag
                0x00000000020684a4        0x0 /home/linux/devkitPro/devkitARM/bin/../lib/gcc/arm-none-eabi/4.8.2/../../../../arm-none-eabi/lib/thumb/libstdc++.a(string-inst.o)
 .ARM.extab.text._ZNSsC2ERKSsjj
                0x00000000020684a4        0x0 /home/linux/devkitPro/devkitARM/bin/../lib/gcc/arm-none-eabi/4.8.2/../../../../arm-none-eabi/lib/thumb/libstdc++.a(string-inst.o)
 .ARM.extab.text._ZNKSs6substrEjj
                0x00000000020684a4        0x0 /home/linux/devkitPro/devkitARM/bin/../lib/gcc/arm-none-eabi/4.8.2/../../../../arm-none-eabi/lib/thumb/libstdc++.a(string-inst.o)
 .ARM.extab.text._ZNSsC2ERKSsjjRKSaIcE
                0x00000000020684a4        0x0 /home/linux/devkitPro/devkitARM/bin/../lib/gcc/arm-none-eabi/4.8.2/../../../../arm-none-eabi/lib/thumb/libstdc++.a(string-inst.o)
 .ARM.extab.text._ZNSsC2IPcEET_S1_RKSaIcE
                0x00000000020684a4        0x0 /home/linux/devkitPro/devkitARM/bin/../lib/gcc/arm-none-eabi/4.8.2/../../../../arm-none-eabi/lib/thumb/libstdc++.a(string-inst.o)
 .ARM.extab.text._ZNSs12_S_constructIPKcEEPcT_S3_RKSaIcESt20forward_iterator_tag
                0x00000000020684a4        0x0 /home/linux/devkitPro/devkitARM/bin/../lib/gcc/arm-none-eabi/4.8.2/../../../../arm-none-eabi/lib/thumb/libstdc++.a(string-inst.o)
 .ARM.extab.text._ZNSsC2EPKcjRKSaIcE
                0x00000000020684a4        0x0 /home/linux/devkitPro/devkitARM/bin/../lib/gcc/arm-none-eabi/4.8.2/../../../../arm-none-eabi/lib/thumb/libstdc++.a(string-inst.o)
 .ARM.extab.text._ZNSs7replaceEjjPKcj
                0x00000000020684a4       0x20 /home/linux/devkitPro/devkitARM/bin/../lib/gcc/arm-none-eabi/4.8.2/../../../../arm-none-eabi/lib/thumb/libstdc++.a(string-inst.o)
 .ARM.extab.text._ZNSs7replaceEjjRKSs
                0x00000000020684c4        0x0 /home/linux/devkitPro/devkitARM/bin/../lib/gcc/arm-none-eabi/4.8.2/../../../../arm-none-eabi/lib/thumb/libstdc++.a(string-inst.o)
 .ARM.extab.text._ZNSs7replaceEjjRKSsjj
                0x00000000020684c4        0x0 /home/linux/devkitPro/devkitARM/bin/../lib/gcc/arm-none-eabi/4.8.2/../../../../arm-none-eabi/lib/thumb/libstdc++.a(string-inst.o)
 .ARM.extab.text._ZNSs7replaceEjjPKc
                0x00000000020684c4        0x0 /home/linux/devkitPro/devkitARM/bin/../lib/gcc/arm-none-eabi/4.8.2/../../../../arm-none-eabi/lib/thumb/libstdc++.a(string-inst.o)
 .ARM.extab.text._ZNSs7replaceEN9__gnu_cxx17__normal_iteratorIPcSsEES2_PKcj
                0x00000000020684c4        0x0 /home/linux/devkitPro/devkitARM/bin/../lib/gcc/arm-none-eabi/4.8.2/../../../../arm-none-eabi/lib/thumb/libstdc++.a(string-inst.o)
 .ARM.extab.text._ZNSs7replaceEN9__gnu_cxx17__normal_iteratorIPcSsEES2_RKSs
                0x00000000020684c4        0x0 /home/linux/devkitPro/devkitARM/bin/../lib/gcc/arm-none-eabi/4.8.2/../../../../arm-none-eabi/lib/thumb/libstdc++.a(string-inst.o)
 .ARM.extab.text._ZNSs7replaceEN9__gnu_cxx17__normal_iteratorIPcSsEES2_PKc
                0x00000000020684c4        0x0 /home/linux/devkitPro/devkitARM/bin/../lib/gcc/arm-none-eabi/4.8.2/../../../../arm-none-eabi/lib/thumb/libstdc++.a(string-inst.o)
 .ARM.extab.text._ZNSs7replaceEN9__gnu_cxx17__normal_iteratorIPcSsEES2_S1_S1_
                0x00000000020684c4        0x0 /home/linux/devkitPro/devkitARM/bin/../lib/gcc/arm-none-eabi/4.8.2/../../../../arm-none-eabi/lib/thumb/libstdc++.a(string-inst.o)
 .ARM.extab.text._ZNSs7replaceEN9__gnu_cxx17__normal_iteratorIPcSsEES2_PKcS4_
                0x00000000020684c4        0x0 /home/linux/devkitPro/devkitARM/bin/../lib/gcc/arm-none-eabi/4.8.2/../../../../arm-none-eabi/lib/thumb/libstdc++.a(string-inst.o)
 .ARM.extab.text._ZNSs7replaceEN9__gnu_cxx17__normal_iteratorIPcSsEES2_St16initializer_listIcE
                0x00000000020684c4        0x0 /home/linux/devkitPro/devkitARM/bin/../lib/gcc/arm-none-eabi/4.8.2/../../../../arm-none-eabi/lib/thumb/libstdc++.a(string-inst.o)
 .ARM.extab.text._ZNSs7replaceEN9__gnu_cxx17__normal_iteratorIPcSsEES2_S2_S2_
                0x00000000020684c4        0x0 /home/linux/devkitPro/devkitARM/bin/../lib/gcc/arm-none-eabi/4.8.2/../../../../arm-none-eabi/lib/thumb/libstdc++.a(string-inst.o)
 .ARM.extab.text._ZNSs7replaceEN9__gnu_cxx17__normal_iteratorIPcSsEES2_NS0_IPKcSsEES5_
                0x00000000020684c4        0x0 /home/linux/devkitPro/devkitARM/bin/../lib/gcc/arm-none-eabi/4.8.2/../../../../arm-none-eabi/lib/thumb/libstdc++.a(string-inst.o)
 .ARM.extab.text._ZNSsC2EPKcRKSaIcE
                0x00000000020684c4        0x0 /home/linux/devkitPro/devkitARM/bin/../lib/gcc/arm-none-eabi/4.8.2/../../../../arm-none-eabi/lib/thumb/libstdc++.a(string-inst.o)
 .ARM.extab.text._ZNSsC2ESt16initializer_listIcERKSaIcE
                0x00000000020684c4        0x0 /home/linux/devkitPro/devkitARM/bin/../lib/gcc/arm-none-eabi/4.8.2/../../../../arm-none-eabi/lib/thumb/libstdc++.a(string-inst.o)
 .ARM.extab.text._ZNSsC2IPKcEET_S2_RKSaIcE
                0x00000000020684c4        0x0 /home/linux/devkitPro/devkitARM/bin/../lib/gcc/arm-none-eabi/4.8.2/../../../../arm-none-eabi/lib/thumb/libstdc++.a(string-inst.o)
 .ARM.extab.text._ZN9__gnu_cxxeqIPcSsEEbRKNS_17__normal_iteratorIT_T0_EES7_
                0x00000000020684c4        0x0 /home/linux/devkitPro/devkitARM/bin/../lib/gcc/arm-none-eabi/4.8.2/../../../../arm-none-eabi/lib/thumb/libstdc++.a(string-inst.o)
 .ARM.extab.text._ZN9__gnu_cxxeqIPKcSsEEbRKNS_17__normal_iteratorIT_T0_EES8_
                0x00000000020684c4        0x0 /home/linux/devkitPro/devkitARM/bin/../lib/gcc/arm-none-eabi/4.8.2/../../../../arm-none-eabi/lib/thumb/libstdc++.a(string-inst.o)
 .ARM.extab.text._ZSt21__throw_bad_exceptionv
                0x00000000020684c4        0xc /home/linux/devkitPro/devkitARM/bin/../lib/gcc/arm-none-eabi/4.8.2/../../../../arm-none-eabi/lib/thumb/libstdc++.a(functexcept.o)
 .ARM.extab.text._ZSt17__throw_bad_allocv
                0x00000000020684d0        0xc /home/linux/devkitPro/devkitARM/bin/../lib/gcc/arm-none-eabi/4.8.2/../../../../arm-none-eabi/lib/thumb/libstdc++.a(functexcept.o)
 .ARM.extab.text._ZSt16__throw_bad_castv
                0x00000000020684dc        0xc /home/linux/devkitPro/devkitARM/bin/../lib/gcc/arm-none-eabi/4.8.2/../../../../arm-none-eabi/lib/thumb/libstdc++.a(functexcept.o)
 .ARM.extab.text._ZSt18__throw_bad_typeidv
                0x00000000020684e8        0xc /home/linux/devkitPro/devkitARM/bin/../lib/gcc/arm-none-eabi/4.8.2/../../../../arm-none-eabi/lib/thumb/libstdc++.a(functexcept.o)
 .ARM.extab.text._ZSt19__throw_logic_errorPKc
                0x00000000020684f4       0x18 /home/linux/devkitPro/devkitARM/bin/../lib/gcc/arm-none-eabi/4.8.2/../../../../arm-none-eabi/lib/thumb/libstdc++.a(functexcept.o)
 .ARM.extab.text._ZSt20__throw_domain_errorPKc
                0x000000000206850c       0x18 /home/linux/devkitPro/devkitARM/bin/../lib/gcc/arm-none-eabi/4.8.2/../../../../arm-none-eabi/lib/thumb/libstdc++.a(functexcept.o)
 .ARM.extab.text._ZSt24__throw_invalid_argumentPKc
                0x0000000002068524       0x18 /home/linux/devkitPro/devkitARM/bin/../lib/gcc/arm-none-eabi/4.8.2/../../../../arm-none-eabi/lib/thumb/libstdc++.a(functexcept.o)
 .ARM.extab.text._ZSt20__throw_length_errorPKc
                0x000000000206853c       0x18 /home/linux/devkitPro/devkitARM/bin/../lib/gcc/arm-none-eabi/4.8.2/../../../../arm-none-eabi/lib/thumb/libstdc++.a(functexcept.o)
 .ARM.extab.text._ZSt20__throw_out_of_rangePKc
                0x0000000002068554       0x18 /home/linux/devkitPro/devkitARM/bin/../lib/gcc/arm-none-eabi/4.8.2/../../../../arm-none-eabi/lib/thumb/libstdc++.a(functexcept.o)
 .ARM.extab.text._ZSt21__throw_runtime_errorPKc
                0x000000000206856c       0x18 /home/linux/devkitPro/devkitARM/bin/../lib/gcc/arm-none-eabi/4.8.2/../../../../arm-none-eabi/lib/thumb/libstdc++.a(functexcept.o)
 .ARM.extab.text._ZSt19__throw_range_errorPKc
                0x0000000002068584       0x18 /home/linux/devkitPro/devkitARM/bin/../lib/gcc/arm-none-eabi/4.8.2/../../../../arm-none-eabi/lib/thumb/libstdc++.a(functexcept.o)
 .ARM.extab.text._ZSt22__throw_overflow_errorPKc
                0x000000000206859c       0x18 /home/linux/devkitPro/devkitARM/bin/../lib/gcc/arm-none-eabi/4.8.2/../../../../arm-none-eabi/lib/thumb/libstdc++.a(functexcept.o)
 .ARM.extab.text._ZSt23__throw_underflow_errorPKc
                0x00000000020685b4       0x18 /home/linux/devkitPro/devkitARM/bin/../lib/gcc/arm-none-eabi/4.8.2/../../../../arm-none-eabi/lib/thumb/libstdc++.a(functexcept.o)
 .ARM.extab.text._ZSt19__throw_ios_failurePKc
                0x00000000020685cc       0x14 /home/linux/devkitPro/devkitARM/bin/../lib/gcc/arm-none-eabi/4.8.2/../../../../arm-none-eabi/lib/thumb/libstdc++.a(functexcept.o)
 .ARM.extab.text._ZSt20__throw_system_errori
                0x00000000020685e0       0x18 /home/linux/devkitPro/devkitARM/bin/../lib/gcc/arm-none-eabi/4.8.2/../../../../arm-none-eabi/lib/thumb/libstdc++.a(functexcept.o)
 .ARM.extab.text._ZSt20__throw_future_errori
                0x00000000020685f8       0x18 /home/linux/devkitPro/devkitARM/bin/../lib/gcc/arm-none-eabi/4.8.2/../../../../arm-none-eabi/lib/thumb/libstdc++.a(functexcept.o)
 .ARM.extab.text._ZSt25__throw_bad_function_callv
                0x0000000002068610        0xc /home/linux/devkitPro/devkitARM/bin/../lib/gcc/arm-none-eabi/4.8.2/../../../../arm-none-eabi/lib/thumb/libstdc++.a(functexcept.o)
 .ARM.extab.text._ZSt19__throw_regex_errorNSt15regex_constants10error_typeE
                0x000000000206861c       0x14 /home/linux/devkitPro/devkitARM/bin/../lib/gcc/arm-none-eabi/4.8.2/../../../../arm-none-eabi/lib/thumb/libstdc++.a(functexcept.o)
 .ARM.extab.text.__cxa_type_match
                0x0000000002068630        0x0 /home/linux/devkitPro/devkitARM/bin/../lib/gcc/arm-none-eabi/4.8.2/../../../../arm-none-eabi/lib/thumb/libstdc++.a(eh_arm.o)
 .ARM.extab.text.__cxa_begin_cleanup
                0x0000000002068630        0x0 /home/linux/devkitPro/devkitARM/bin/../lib/gcc/arm-none-eabi/4.8.2/../../../../arm-none-eabi/lib/thumb/libstdc++.a(eh_arm.o)
 .ARM.extab.text.__gnu_end_cleanup
                0x0000000002068630        0x0 /home/linux/devkitPro/devkitARM/bin/../lib/gcc/arm-none-eabi/4.8.2/../../../../arm-none-eabi/lib/thumb/libstdc++.a(eh_arm.o)
 .ARM.extab.text._ZL23__gxx_exception_cleanup19_Unwind_Reason_CodeP21_Unwind_Control_Block
                0x0000000002068630        0x0 /home/linux/devkitPro/devkitARM/bin/../lib/gcc/arm-none-eabi/4.8.2/../../../../arm-none-eabi/lib/thumb/libstdc++.a(eh_throw.o)
 .ARM.extab.text.__cxa_throw
                0x0000000002068630        0x0 /home/linux/devkitPro/devkitARM/bin/../lib/gcc/arm-none-eabi/4.8.2/../../../../arm-none-eabi/lib/thumb/libstdc++.a(eh_throw.o)
 .ARM.extab.text.__cxa_rethrow
                0x0000000002068630        0x0 /home/linux/devkitPro/devkitARM/bin/../lib/gcc/arm-none-eabi/4.8.2/../../../../arm-none-eabi/lib/thumb/libstdc++.a(eh_throw.o)
 .ARM.extab.text.__cxa_pure_virtual
                0x0000000002068630        0xc /home/linux/devkitPro/devkitARM/bin/../lib/gcc/arm-none-eabi/4.8.2/../../../../arm-none-eabi/lib/thumb/libstdc++.a(pure.o)
 .ARM.extab.text.__cxa_deleted_virtual
                0x000000000206863c        0xc /home/linux/devkitPro/devkitARM/bin/../lib/gcc/arm-none-eabi/4.8.2/../../../../arm-none-eabi/lib/thumb/libstdc++.a(pure.o)
 .ARM.extab.text._ZNKSt8bad_cast4whatEv
                0x0000000002068648        0x0 /home/linux/devkitPro/devkitARM/bin/../lib/gcc/arm-none-eabi/4.8.2/../../../../arm-none-eabi/lib/thumb/libstdc++.a(bad_cast.o)
 .ARM.extab.text._ZNSt8bad_castD2Ev
                0x0000000002068648        0x0 /home/linux/devkitPro/devkitARM/bin/../lib/gcc/arm-none-eabi/4.8.2/../../../../arm-none-eabi/lib/thumb/libstdc++.a(bad_cast.o)
 .ARM.extab.text._ZNSt8bad_castD0Ev
                0x0000000002068648        0x0 /home/linux/devkitPro/devkitARM/bin/../lib/gcc/arm-none-eabi/4.8.2/../../../../arm-none-eabi/lib/thumb/libstdc++.a(bad_cast.o)
 .ARM.extab.text.__cxa_get_globals_fast
                0x0000000002068648        0x0 /home/linux/devkitPro/devkitARM/bin/../lib/gcc/arm-none-eabi/4.8.2/../../../../arm-none-eabi/lib/thumb/libstdc++.a(eh_globals.o)
 .ARM.extab.text.__cxa_get_globals
                0x0000000002068648        0x0 /home/linux/devkitPro/devkitARM/bin/../lib/gcc/arm-none-eabi/4.8.2/../../../../arm-none-eabi/lib/thumb/libstdc++.a(eh_globals.o)
 .ARM.extab.text.__cxa_get_exception_ptr
                0x0000000002068648        0x0 /home/linux/devkitPro/devkitARM/bin/../lib/gcc/arm-none-eabi/4.8.2/../../../../arm-none-eabi/lib/thumb/libstdc++.a(eh_catch.o)
 .ARM.extab.text.__cxa_begin_catch
                0x0000000002068648       0x1c /home/linux/devkitPro/devkitARM/bin/../lib/gcc/arm-none-eabi/4.8.2/../../../../arm-none-eabi/lib/thumb/libstdc++.a(eh_catch.o)
 .ARM.extab.text.__cxa_end_catch
                0x0000000002068664        0xc /home/linux/devkitPro/devkitARM/bin/../lib/gcc/arm-none-eabi/4.8.2/../../../../arm-none-eabi/lib/thumb/libstdc++.a(eh_catch.o)
 .ARM.extab.text._ZSt18uncaught_exceptionv
                0x0000000002068670        0x0 /home/linux/devkitPro/devkitARM/bin/../lib/gcc/arm-none-eabi/4.8.2/../../../../arm-none-eabi/lib/thumb/libstdc++.a(eh_catch.o)
 .ARM.extab.text._ZN10__cxxabiv120__si_class_type_infoD2Ev
                0x0000000002068670        0x0 /home/linux/devkitPro/devkitARM/bin/../lib/gcc/arm-none-eabi/4.8.2/../../../../arm-none-eabi/lib/thumb/libstdc++.a(si_class_type_info.o)
 .ARM.extab.text._ZN10__cxxabiv120__si_class_type_infoD0Ev
                0x0000000002068670        0x0 /home/linux/devkitPro/devkitARM/bin/../lib/gcc/arm-none-eabi/4.8.2/../../../../arm-none-eabi/lib/thumb/libstdc++.a(si_class_type_info.o)
 .ARM.extab.text._ZNK10__cxxabiv120__si_class_type_info20__do_find_public_srcEiPKvPKNS_17__class_type_infoES2_
                0x0000000002068670        0x0 /home/linux/devkitPro/devkitARM/bin/../lib/gcc/arm-none-eabi/4.8.2/../../../../arm-none-eabi/lib/thumb/libstdc++.a(si_class_type_info.o)
 .ARM.extab.text._ZNK10__cxxabiv120__si_class_type_info12__do_dyncastEiNS_17__class_type_info10__sub_kindEPKS1_PKvS4_S6_RNS1_16__dyncast_resultE
                0x0000000002068670        0xc /home/linux/devkitPro/devkitARM/bin/../lib/gcc/arm-none-eabi/4.8.2/../../../../arm-none-eabi/lib/thumb/libstdc++.a(si_class_type_info.o)
 .ARM.extab.text._ZNK10__cxxabiv120__si_class_type_info11__do_upcastEPKNS_17__class_type_infoEPKvRNS1_15__upcast_resultE
                0x000000000206867c        0x0 /home/linux/devkitPro/devkitARM/bin/../lib/gcc/arm-none-eabi/4.8.2/../../../../arm-none-eabi/lib/thumb/libstdc++.a(si_class_type_info.o)
 .ARM.extab.text._ZNSt9type_infoD2Ev
                0x000000000206867c        0x0 /home/linux/devkitPro/devkitARM/bin/../lib/gcc/arm-none-eabi/4.8.2/../../../../arm-none-eabi/lib/thumb/libstdc++.a(tinfo.o)
 .ARM.extab.text._ZNKSt9type_info14__is_pointer_pEv
                0x000000000206867c        0x0 /home/linux/devkitPro/devkitARM/bin/../lib/gcc/arm-none-eabi/4.8.2/../../../../arm-none-eabi/lib/thumb/libstdc++.a(tinfo.o)
 .ARM.extab.text._ZNKSt9type_info15__is_function_pEv
                0x000000000206867c        0x0 /home/linux/devkitPro/devkitARM/bin/../lib/gcc/arm-none-eabi/4.8.2/../../../../arm-none-eabi/lib/thumb/libstdc++.a(tinfo.o)
 .ARM.extab.text._ZNKSt9type_info11__do_upcastEPKN10__cxxabiv117__class_type_infoEPPv
                0x000000000206867c        0x0 /home/linux/devkitPro/devkitARM/bin/../lib/gcc/arm-none-eabi/4.8.2/../../../../arm-none-eabi/lib/thumb/libstdc++.a(tinfo.o)
 .ARM.extab.text._ZNSt9type_infoD0Ev
                0x000000000206867c        0x0 /home/linux/devkitPro/devkitARM/bin/../lib/gcc/arm-none-eabi/4.8.2/../../../../arm-none-eabi/lib/thumb/libstdc++.a(tinfo.o)
 .ARM.extab.text._ZNKSt9type_infoeqERKS_
                0x000000000206867c        0x0 /home/linux/devkitPro/devkitARM/bin/../lib/gcc/arm-none-eabi/4.8.2/../../../../arm-none-eabi/lib/thumb/libstdc++.a(tinfo.o)
 .ARM.extab.text._ZNKSt9type_info10__do_catchEPKS_PPvj
                0x000000000206867c        0x0 /home/linux/devkitPro/devkitARM/bin/../lib/gcc/arm-none-eabi/4.8.2/../../../../arm-none-eabi/lib/thumb/libstdc++.a(tinfo.o)
 .ARM.extab.text._ZNKSt10bad_typeid4whatEv
                0x000000000206867c        0x0 /home/linux/devkitPro/devkitARM/bin/../lib/gcc/arm-none-eabi/4.8.2/../../../../arm-none-eabi/lib/thumb/libstdc++.a(bad_typeid.o)
 .ARM.extab.text._ZNSt10bad_typeidD2Ev
                0x000000000206867c        0x0 /home/linux/devkitPro/devkitARM/bin/../lib/gcc/arm-none-eabi/4.8.2/../../../../arm-none-eabi/lib/thumb/libstdc++.a(bad_typeid.o)
 .ARM.extab.text._ZNSt10bad_typeidD0Ev
                0x000000000206867c        0x0 /home/linux/devkitPro/devkitARM/bin/../lib/gcc/arm-none-eabi/4.8.2/../../../../arm-none-eabi/lib/thumb/libstdc++.a(bad_typeid.o)
 .ARM.extab.text._ZNKSt8ios_base7failure4whatEv
                0x000000000206867c        0x0 /home/linux/devkitPro/devkitARM/bin/../lib/gcc/arm-none-eabi/4.8.2/../../../../arm-none-eabi/lib/thumb/libstdc++.a(ios_failure.o)
 .ARM.extab.text._ZNSt8ios_base7failureD2Ev
                0x000000000206867c        0x0 /home/linux/devkitPro/devkitARM/bin/../lib/gcc/arm-none-eabi/4.8.2/../../../../arm-none-eabi/lib/thumb/libstdc++.a(ios_failure.o)
 .ARM.extab.text._ZNSt8ios_base7failureD0Ev
                0x000000000206867c        0x0 /home/linux/devkitPro/devkitARM/bin/../lib/gcc/arm-none-eabi/4.8.2/../../../../arm-none-eabi/lib/thumb/libstdc++.a(ios_failure.o)
 .ARM.extab.text._ZNSt8ios_base7failureC2ERKSs
                0x000000000206867c       0x20 /home/linux/devkitPro/devkitARM/bin/../lib/gcc/arm-none-eabi/4.8.2/../../../../arm-none-eabi/lib/thumb/libstdc++.a(ios_failure.o)
 .ARM.extab.text._ZNKSt11logic_error4whatEv
                0x000000000206869c        0x0 /home/linux/devkitPro/devkitARM/bin/../lib/gcc/arm-none-eabi/4.8.2/../../../../arm-none-eabi/lib/thumb/libstdc++.a(stdexcept.o)
 .ARM.extab.text._ZNKSt13runtime_error4whatEv
                0x000000000206869c        0x0 /home/linux/devkitPro/devkitARM/bin/../lib/gcc/arm-none-eabi/4.8.2/../../../../arm-none-eabi/lib/thumb/libstdc++.a(stdexcept.o)
 .ARM.extab.text._ZNSt11logic_errorD2Ev
                0x000000000206869c        0x0 /home/linux/devkitPro/devkitARM/bin/../lib/gcc/arm-none-eabi/4.8.2/../../../../arm-none-eabi/lib/thumb/libstdc++.a(stdexcept.o)
 .ARM.extab.text._ZNSt11logic_errorD0Ev
                0x000000000206869c        0x0 /home/linux/devkitPro/devkitARM/bin/../lib/gcc/arm-none-eabi/4.8.2/../../../../arm-none-eabi/lib/thumb/libstdc++.a(stdexcept.o)
 .ARM.extab.text._ZNSt12domain_errorD2Ev
                0x000000000206869c        0x0 /home/linux/devkitPro/devkitARM/bin/../lib/gcc/arm-none-eabi/4.8.2/../../../../arm-none-eabi/lib/thumb/libstdc++.a(stdexcept.o)
 .ARM.extab.text._ZNSt12domain_errorD0Ev
                0x000000000206869c        0x0 /home/linux/devkitPro/devkitARM/bin/../lib/gcc/arm-none-eabi/4.8.2/../../../../arm-none-eabi/lib/thumb/libstdc++.a(stdexcept.o)
 .ARM.extab.text._ZNSt16invalid_argumentD2Ev
                0x000000000206869c        0x0 /home/linux/devkitPro/devkitARM/bin/../lib/gcc/arm-none-eabi/4.8.2/../../../../arm-none-eabi/lib/thumb/libstdc++.a(stdexcept.o)
 .ARM.extab.text._ZNSt16invalid_argumentD0Ev
                0x000000000206869c        0x0 /home/linux/devkitPro/devkitARM/bin/../lib/gcc/arm-none-eabi/4.8.2/../../../../arm-none-eabi/lib/thumb/libstdc++.a(stdexcept.o)
 .ARM.extab.text._ZNSt12length_errorD2Ev
                0x000000000206869c        0x0 /home/linux/devkitPro/devkitARM/bin/../lib/gcc/arm-none-eabi/4.8.2/../../../../arm-none-eabi/lib/thumb/libstdc++.a(stdexcept.o)
 .ARM.extab.text._ZNSt12length_errorD0Ev
                0x000000000206869c        0x0 /home/linux/devkitPro/devkitARM/bin/../lib/gcc/arm-none-eabi/4.8.2/../../../../arm-none-eabi/lib/thumb/libstdc++.a(stdexcept.o)
 .ARM.extab.text._ZNSt12out_of_rangeD2Ev
                0x000000000206869c        0x0 /home/linux/devkitPro/devkitARM/bin/../lib/gcc/arm-none-eabi/4.8.2/../../../../arm-none-eabi/lib/thumb/libstdc++.a(stdexcept.o)
 .ARM.extab.text._ZNSt12out_of_rangeD0Ev
                0x000000000206869c        0x0 /home/linux/devkitPro/devkitARM/bin/../lib/gcc/arm-none-eabi/4.8.2/../../../../arm-none-eabi/lib/thumb/libstdc++.a(stdexcept.o)
 .ARM.extab.text._ZNSt13runtime_errorD2Ev
                0x000000000206869c        0x0 /home/linux/devkitPro/devkitARM/bin/../lib/gcc/arm-none-eabi/4.8.2/../../../../arm-none-eabi/lib/thumb/libstdc++.a(stdexcept.o)
 .ARM.extab.text._ZNSt13runtime_errorD0Ev
                0x000000000206869c        0x0 /home/linux/devkitPro/devkitARM/bin/../lib/gcc/arm-none-eabi/4.8.2/../../../../arm-none-eabi/lib/thumb/libstdc++.a(stdexcept.o)
 .ARM.extab.text._ZNSt11range_errorD2Ev
                0x000000000206869c        0x0 /home/linux/devkitPro/devkitARM/bin/../lib/gcc/arm-none-eabi/4.8.2/../../../../arm-none-eabi/lib/thumb/libstdc++.a(stdexcept.o)
 .ARM.extab.text._ZNSt11range_errorD0Ev
                0x000000000206869c        0x0 /home/linux/devkitPro/devkitARM/bin/../lib/gcc/arm-none-eabi/4.8.2/../../../../arm-none-eabi/lib/thumb/libstdc++.a(stdexcept.o)
 .ARM.extab.text._ZNSt14overflow_errorD2Ev
                0x000000000206869c        0x0 /home/linux/devkitPro/devkitARM/bin/../lib/gcc/arm-none-eabi/4.8.2/../../../../arm-none-eabi/lib/thumb/libstdc++.a(stdexcept.o)
 .ARM.extab.text._ZNSt14overflow_errorD0Ev
                0x000000000206869c        0x0 /home/linux/devkitPro/devkitARM/bin/../lib/gcc/arm-none-eabi/4.8.2/../../../../arm-none-eabi/lib/thumb/libstdc++.a(stdexcept.o)
 .ARM.extab.text._ZNSt15underflow_errorD2Ev
                0x000000000206869c        0x0 /home/linux/devkitPro/devkitARM/bin/../lib/gcc/arm-none-eabi/4.8.2/../../../../arm-none-eabi/lib/thumb/libstdc++.a(stdexcept.o)
 .ARM.extab.text._ZNSt15underflow_errorD0Ev
                0x000000000206869c        0x0 /home/linux/devkitPro/devkitARM/bin/../lib/gcc/arm-none-eabi/4.8.2/../../../../arm-none-eabi/lib/thumb/libstdc++.a(stdexcept.o)
 .ARM.extab.text._ZNSt11logic_errorC2ERKSs
                0x000000000206869c       0x14 /home/linux/devkitPro/devkitARM/bin/../lib/gcc/arm-none-eabi/4.8.2/../../../../arm-none-eabi/lib/thumb/libstdc++.a(stdexcept.o)
 .ARM.extab.text._ZNSt12domain_errorC2ERKSs
                0x00000000020686b0        0x0 /home/linux/devkitPro/devkitARM/bin/../lib/gcc/arm-none-eabi/4.8.2/../../../../arm-none-eabi/lib/thumb/libstdc++.a(stdexcept.o)
 .ARM.extab.text._ZNSt16invalid_argumentC2ERKSs
                0x00000000020686b0        0x0 /home/linux/devkitPro/devkitARM/bin/../lib/gcc/arm-none-eabi/4.8.2/../../../../arm-none-eabi/lib/thumb/libstdc++.a(stdexcept.o)
 .ARM.extab.text._ZNSt12length_errorC2ERKSs
                0x00000000020686b0        0x0 /home/linux/devkitPro/devkitARM/bin/../lib/gcc/arm-none-eabi/4.8.2/../../../../arm-none-eabi/lib/thumb/libstdc++.a(stdexcept.o)
 .ARM.extab.text._ZNSt12out_of_rangeC2ERKSs
                0x00000000020686b0        0x0 /home/linux/devkitPro/devkitARM/bin/../lib/gcc/arm-none-eabi/4.8.2/../../../../arm-none-eabi/lib/thumb/libstdc++.a(stdexcept.o)
 .ARM.extab.text._ZNSt13runtime_errorC2ERKSs
                0x00000000020686b0       0x14 /home/linux/devkitPro/devkitARM/bin/../lib/gcc/arm-none-eabi/4.8.2/../../../../arm-none-eabi/lib/thumb/libstdc++.a(stdexcept.o)
 .ARM.extab.text._ZNSt11range_errorC2ERKSs
                0x00000000020686c4        0x0 /home/linux/devkitPro/devkitARM/bin/../lib/gcc/arm-none-eabi/4.8.2/../../../../arm-none-eabi/lib/thumb/libstdc++.a(stdexcept.o)
 .ARM.extab.text._ZNSt14overflow_errorC2ERKSs
                0x00000000020686c4        0x0 /home/linux/devkitPro/devkitARM/bin/../lib/gcc/arm-none-eabi/4.8.2/../../../../arm-none-eabi/lib/thumb/libstdc++.a(stdexcept.o)
 .ARM.extab.text._ZNSt15underflow_errorC2ERKSs
                0x00000000020686c4        0x0 /home/linux/devkitPro/devkitARM/bin/../lib/gcc/arm-none-eabi/4.8.2/../../../../arm-none-eabi/lib/thumb/libstdc++.a(stdexcept.o)
 .ARM.extab.text._ZNKSt17bad_function_call4whatEv
                0x00000000020686c4        0x0 /home/linux/devkitPro/devkitARM/bin/../lib/gcc/arm-none-eabi/4.8.2/../../../../arm-none-eabi/lib/thumb/libstdc++.a(functional.o)
 .ARM.extab.text._ZNSt17bad_function_callD2Ev
                0x00000000020686c4        0x0 /home/linux/devkitPro/devkitARM/bin/../lib/gcc/arm-none-eabi/4.8.2/../../../../arm-none-eabi/lib/thumb/libstdc++.a(functional.o)
 .ARM.extab.text._ZNSt17bad_function_callD0Ev
                0x00000000020686c4        0x0 /home/linux/devkitPro/devkitARM/bin/../lib/gcc/arm-none-eabi/4.8.2/../../../../arm-none-eabi/lib/thumb/libstdc++.a(functional.o)
 .ARM.extab.text._ZNK12_GLOBAL__N_121future_error_category4nameEv
                0x00000000020686c4        0x0 /home/linux/devkitPro/devkitARM/bin/../lib/gcc/arm-none-eabi/4.8.2/../../../../arm-none-eabi/lib/thumb/libstdc++.a(future.o)
 .ARM.extab.text._ZN12_GLOBAL__N_121future_error_categoryD2Ev
                0x00000000020686c4        0x0 /home/linux/devkitPro/devkitARM/bin/../lib/gcc/arm-none-eabi/4.8.2/../../../../arm-none-eabi/lib/thumb/libstdc++.a(future.o)
 .ARM.extab.text._ZN12_GLOBAL__N_121future_error_categoryD0Ev
                0x00000000020686c4        0x0 /home/linux/devkitPro/devkitARM/bin/../lib/gcc/arm-none-eabi/4.8.2/../../../../arm-none-eabi/lib/thumb/libstdc++.a(future.o)
 .ARM.extab.text._ZNSt12future_errorD2Ev
                0x00000000020686c4        0x0 /home/linux/devkitPro/devkitARM/bin/../lib/gcc/arm-none-eabi/4.8.2/../../../../arm-none-eabi/lib/thumb/libstdc++.a(future.o)
 .ARM.extab.text._ZNSt12future_errorD0Ev
                0x00000000020686c4        0x0 /home/linux/devkitPro/devkitARM/bin/../lib/gcc/arm-none-eabi/4.8.2/../../../../arm-none-eabi/lib/thumb/libstdc++.a(future.o)
 .ARM.extab.text._ZNKSt12future_error4whatEv
                0x00000000020686c4        0xc /home/linux/devkitPro/devkitARM/bin/../lib/gcc/arm-none-eabi/4.8.2/../../../../arm-none-eabi/lib/thumb/libstdc++.a(future.o)
 .ARM.extab.text._ZNK12_GLOBAL__N_121future_error_category7messageEi
                0x00000000020686d0       0x14 /home/linux/devkitPro/devkitARM/bin/../lib/gcc/arm-none-eabi/4.8.2/../../../../arm-none-eabi/lib/thumb/libstdc++.a(future.o)
 .ARM.extab.text._ZSt15future_categoryv
                0x00000000020686e4        0x0 /home/linux/devkitPro/devkitARM/bin/../lib/gcc/arm-none-eabi/4.8.2/../../../../arm-none-eabi/lib/thumb/libstdc++.a(future.o)
 .ARM.extab.text._ZNSt11regex_errorD2Ev
                0x00000000020686e4        0x0 /home/linux/devkitPro/devkitARM/bin/../lib/gcc/arm-none-eabi/4.8.2/../../../../arm-none-eabi/lib/thumb/libstdc++.a(regex.o)
 .ARM.extab.text._ZNSt11regex_errorD0Ev
                0x00000000020686e4        0x0 /home/linux/devkitPro/devkitARM/bin/../lib/gcc/arm-none-eabi/4.8.2/../../../../arm-none-eabi/lib/thumb/libstdc++.a(regex.o)
 .ARM.extab.text._ZNSt11regex_errorC2ENSt15regex_constants10error_typeE
                0x00000000020686e4       0x18 /home/linux/devkitPro/devkitARM/bin/../lib/gcc/arm-none-eabi/4.8.2/../../../../arm-none-eabi/lib/thumb/libstdc++.a(regex.o)
 .ARM.extab.text._ZNK12_GLOBAL__N_122generic_error_category4nameEv
                0x00000000020686fc        0x0 /home/linux/devkitPro/devkitARM/bin/../lib/gcc/arm-none-eabi/4.8.2/../../../../arm-none-eabi/lib/thumb/libstdc++.a(system_error.o)
 .ARM.extab.text._ZNK12_GLOBAL__N_121system_error_category4nameEv
                0x00000000020686fc        0x0 /home/linux/devkitPro/devkitARM/bin/../lib/gcc/arm-none-eabi/4.8.2/../../../../arm-none-eabi/lib/thumb/libstdc++.a(system_error.o)
 .ARM.extab.text._ZNSt14error_categoryD2Ev
                0x00000000020686fc        0x0 /home/linux/devkitPro/devkitARM/bin/../lib/gcc/arm-none-eabi/4.8.2/../../../../arm-none-eabi/lib/thumb/libstdc++.a(system_error.o)
 .ARM.extab.text._ZNKSt14error_category23default_error_conditionEi
                0x00000000020686fc        0x0 /home/linux/devkitPro/devkitARM/bin/../lib/gcc/arm-none-eabi/4.8.2/../../../../arm-none-eabi/lib/thumb/libstdc++.a(system_error.o)
 .ARM.extab.text._ZNKSt14error_category10equivalentEiRKSt15error_condition
                0x00000000020686fc        0x0 /home/linux/devkitPro/devkitARM/bin/../lib/gcc/arm-none-eabi/4.8.2/../../../../arm-none-eabi/lib/thumb/libstdc++.a(system_error.o)
 .ARM.extab.text._ZNKSt14error_category10equivalentERKSt10error_codei
                0x00000000020686fc        0x0 /home/linux/devkitPro/devkitARM/bin/../lib/gcc/arm-none-eabi/4.8.2/../../../../arm-none-eabi/lib/thumb/libstdc++.a(system_error.o)
 .ARM.extab.text._ZN12_GLOBAL__N_121system_error_categoryD2Ev
                0x00000000020686fc        0x0 /home/linux/devkitPro/devkitARM/bin/../lib/gcc/arm-none-eabi/4.8.2/../../../../arm-none-eabi/lib/thumb/libstdc++.a(system_error.o)
 .ARM.extab.text._ZN12_GLOBAL__N_122generic_error_categoryD2Ev
                0x00000000020686fc        0x0 /home/linux/devkitPro/devkitARM/bin/../lib/gcc/arm-none-eabi/4.8.2/../../../../arm-none-eabi/lib/thumb/libstdc++.a(system_error.o)
 .ARM.extab.text._ZNSt14error_categoryD0Ev
                0x00000000020686fc        0x0 /home/linux/devkitPro/devkitARM/bin/../lib/gcc/arm-none-eabi/4.8.2/../../../../arm-none-eabi/lib/thumb/libstdc++.a(system_error.o)
 .ARM.extab.text._ZN12_GLOBAL__N_121system_error_categoryD0Ev
                0x00000000020686fc        0x0 /home/linux/devkitPro/devkitARM/bin/../lib/gcc/arm-none-eabi/4.8.2/../../../../arm-none-eabi/lib/thumb/libstdc++.a(system_error.o)
 .ARM.extab.text._ZN12_GLOBAL__N_122generic_error_categoryD0Ev
                0x00000000020686fc        0x0 /home/linux/devkitPro/devkitARM/bin/../lib/gcc/arm-none-eabi/4.8.2/../../../../arm-none-eabi/lib/thumb/libstdc++.a(system_error.o)
 .ARM.extab.text._ZNSt12system_errorD2Ev
                0x00000000020686fc        0x0 /home/linux/devkitPro/devkitARM/bin/../lib/gcc/arm-none-eabi/4.8.2/../../../../arm-none-eabi/lib/thumb/libstdc++.a(system_error.o)
 .ARM.extab.text._ZNSt12system_errorD0Ev
                0x00000000020686fc        0x0 /home/linux/devkitPro/devkitARM/bin/../lib/gcc/arm-none-eabi/4.8.2/../../../../arm-none-eabi/lib/thumb/libstdc++.a(system_error.o)
 .ARM.extab.text._ZNK12_GLOBAL__N_121system_error_category7messageEi
                0x00000000020686fc        0x0 /home/linux/devkitPro/devkitARM/bin/../lib/gcc/arm-none-eabi/4.8.2/../../../../arm-none-eabi/lib/thumb/libstdc++.a(system_error.o)
 .ARM.extab.text._ZNK12_GLOBAL__N_122generic_error_category7messageEi
                0x00000000020686fc        0x0 /home/linux/devkitPro/devkitARM/bin/../lib/gcc/arm-none-eabi/4.8.2/../../../../arm-none-eabi/lib/thumb/libstdc++.a(system_error.o)
 .ARM.extab.text._ZNSt14error_categoryC2Ev
                0x00000000020686fc        0x0 /home/linux/devkitPro/devkitARM/bin/../lib/gcc/arm-none-eabi/4.8.2/../../../../arm-none-eabi/lib/thumb/libstdc++.a(system_error.o)
 .ARM.extab.text._ZSt15system_categoryv
                0x00000000020686fc        0x0 /home/linux/devkitPro/devkitARM/bin/../lib/gcc/arm-none-eabi/4.8.2/../../../../arm-none-eabi/lib/thumb/libstdc++.a(system_error.o)
 .ARM.extab.text._ZSt16generic_categoryv
                0x00000000020686fc        0x0 /home/linux/devkitPro/devkitARM/bin/../lib/gcc/arm-none-eabi/4.8.2/../../../../arm-none-eabi/lib/thumb/libstdc++.a(system_error.o)
 .ARM.extab.text._ZNKSt10error_code23default_error_conditionEv
                0x00000000020686fc        0x0 /home/linux/devkitPro/devkitARM/bin/../lib/gcc/arm-none-eabi/4.8.2/../../../../arm-none-eabi/lib/thumb/libstdc++.a(system_error.o)
 .ARM.extab.text.startup._GLOBAL__sub_I__ZNSt14error_categoryC2Ev
                0x00000000020686fc        0x0 /home/linux/devkitPro/devkitARM/bin/../lib/gcc/arm-none-eabi/4.8.2/../../../../arm-none-eabi/lib/thumb/libstdc++.a(system_error.o)
 .ARM.extab.text.__cxa_guard_acquire
                0x00000000020686fc        0xc /home/linux/devkitPro/devkitARM/bin/../lib/gcc/arm-none-eabi/4.8.2/../../../../arm-none-eabi/lib/thumb/libstdc++.a(guard.o)
 .ARM.extab.text.__cxa_guard_abort
                0x0000000002068708        0x0 /home/linux/devkitPro/devkitARM/bin/../lib/gcc/arm-none-eabi/4.8.2/../../../../arm-none-eabi/lib/thumb/libstdc++.a(guard.o)
 .ARM.extab.text.__cxa_guard_release
                0x0000000002068708        0x0 /home/linux/devkitPro/devkitARM/bin/../lib/gcc/arm-none-eabi/4.8.2/../../../../arm-none-eabi/lib/thumb/libstdc++.a(guard.o)
 .ARM.extab.text._ZN9__gnu_cxx27__verbose_terminate_handlerEv
                0x0000000002068708       0x34 /home/linux/devkitPro/devkitARM/bin/../lib/gcc/arm-none-eabi/4.8.2/../../../../arm-none-eabi/lib/thumb/libstdc++.a(vterminate.o)
 .ARM.extab.text._ZN9__gnu_cxx20recursive_init_errorD2Ev
                0x000000000206873c        0x0 /home/linux/devkitPro/devkitARM/bin/../lib/gcc/arm-none-eabi/4.8.2/../../../../arm-none-eabi/lib/thumb/libstdc++.a(guard_error.o)
 .ARM.extab.text._ZN9__gnu_cxx20recursive_init_errorD0Ev
                0x000000000206873c        0x0 /home/linux/devkitPro/devkitARM/bin/../lib/gcc/arm-none-eabi/4.8.2/../../../../arm-none-eabi/lib/thumb/libstdc++.a(guard_error.o)
 .ARM.extab.text.__cxa_current_exception_type
                0x000000000206873c        0x0 /home/linux/devkitPro/devkitARM/bin/../lib/gcc/arm-none-eabi/4.8.2/../../../../arm-none-eabi/lib/thumb/libstdc++.a(eh_type.o)
                0x000000000206873c                __exidx_start = .

ARM.exidx       0x000000000206873c      0x5f0
 *(.ARM.exidx* .gnu.linkonce.armexidx.*)
 .ARM.exidx.text._Znwj
                0x000000000206873c        0x8 /home/linux/devkitPro/devkitARM/bin/../lib/gcc/arm-none-eabi/4.8.2/../../../../arm-none-eabi/lib/thumb/libstdc++.a(new_op.o)
 .ARM.exidx.text._ZN10__cxxabiv1L24__is_gxx_exception_classEPc
                0x0000000002068744        0x8 /home/linux/devkitPro/devkitARM/bin/../lib/gcc/arm-none-eabi/4.8.2/../../../../arm-none-eabi/lib/thumb/libstdc++.a(eh_call.o)
 .ARM.exidx.text.__cxa_call_terminate
                0x000000000206874c        0x0 /home/linux/devkitPro/devkitARM/bin/../lib/gcc/arm-none-eabi/4.8.2/../../../../arm-none-eabi/lib/thumb/libstdc++.a(eh_call.o)
                                          0x8 (size before relaxing)
 .ARM.exidx.text.__cxa_call_unexpected
                0x000000000206874c        0x8 /home/linux/devkitPro/devkitARM/bin/../lib/gcc/arm-none-eabi/4.8.2/../../../../arm-none-eabi/lib/thumb/libstdc++.a(eh_call.o)
 .ARM.exidx.text._Znaj
                0x0000000002068754        0x8 /home/linux/devkitPro/devkitARM/bin/../lib/gcc/arm-none-eabi/4.8.2/../../../../arm-none-eabi/lib/thumb/libstdc++.a(new_opv.o)
 .ARM.exidx.text._ZL12read_sleb128PKhPl
                0x000000000206875c        0x8 /home/linux/devkitPro/devkitARM/bin/../lib/gcc/arm-none-eabi/4.8.2/../../../../arm-none-eabi/lib/thumb/libstdc++.a(eh_personality.o)
 .ARM.exidx.text._ZL28read_encoded_value_with_basehjPKhPj
                0x0000000002068764        0x8 /home/linux/devkitPro/devkitARM/bin/../lib/gcc/arm-none-eabi/4.8.2/../../../../arm-none-eabi/lib/thumb/libstdc++.a(eh_personality.o)
 .ARM.exidx.text._ZL21base_of_encoded_valuehP15_Unwind_Context
                0x000000000206876c        0x8 /home/linux/devkitPro/devkitARM/bin/../lib/gcc/arm-none-eabi/4.8.2/../../../../arm-none-eabi/lib/thumb/libstdc++.a(eh_personality.o)
 .ARM.exidx.text._ZL17parse_lsda_headerP15_Unwind_ContextPKhP16lsda_header_info
                0x0000000002068774        0x8 /home/linux/devkitPro/devkitARM/bin/../lib/gcc/arm-none-eabi/4.8.2/../../../../arm-none-eabi/lib/thumb/libstdc++.a(eh_personality.o)
 .ARM.exidx.text.__gxx_personality_v0
                0x000000000206877c        0x8 /home/linux/devkitPro/devkitARM/bin/../lib/gcc/arm-none-eabi/4.8.2/../../../../arm-none-eabi/lib/thumb/libstdc++.a(eh_personality.o)
 .ARM.exidx.text._ZdlPv
                0x0000000002068784        0x8 /home/linux/devkitPro/devkitARM/bin/../lib/gcc/arm-none-eabi/4.8.2/../../../../arm-none-eabi/lib/thumb/libstdc++.a(del_op.o)
 .ARM.exidx.text.__aeabi_atexit
                0x000000000206878c        0x0 /home/linux/devkitPro/devkitARM/bin/../lib/gcc/arm-none-eabi/4.8.2/../../../../arm-none-eabi/lib/thumb/libstdc++.a(atexit_arm.o)
                                          0x8 (size before relaxing)
 .ARM.exidx.text._ZN10__cxxabiv111__terminateEPFvvE
                0x000000000206878c        0x8 /home/linux/devkitPro/devkitARM/bin/../lib/gcc/arm-none-eabi/4.8.2/../../../../arm-none-eabi/lib/thumb/libstdc++.a(eh_terminate.o)
 .ARM.exidx.text._ZSt9terminatev
                0x0000000002068794        0x8 /home/linux/devkitPro/devkitARM/bin/../lib/gcc/arm-none-eabi/4.8.2/../../../../arm-none-eabi/lib/thumb/libstdc++.a(eh_terminate.o)
 .ARM.exidx.text._ZN10__cxxabiv112__unexpectedEPFvvE
                0x000000000206879c        0x8 /home/linux/devkitPro/devkitARM/bin/../lib/gcc/arm-none-eabi/4.8.2/../../../../arm-none-eabi/lib/thumb/libstdc++.a(eh_terminate.o)
 .ARM.exidx.text._ZSt10unexpectedv
                0x00000000020687a4        0x8 /home/linux/devkitPro/devkitARM/bin/../lib/gcc/arm-none-eabi/4.8.2/../../../../arm-none-eabi/lib/thumb/libstdc++.a(eh_terminate.o)
 .ARM.exidx.text._ZSt13set_terminatePFvvE
                0x00000000020687ac        0x8 /home/linux/devkitPro/devkitARM/bin/../lib/gcc/arm-none-eabi/4.8.2/../../../../arm-none-eabi/lib/thumb/libstdc++.a(eh_terminate.o)
 .ARM.exidx.text._ZSt14set_unexpectedPFvvE
                0x00000000020687b4        0x0 /home/linux/devkitPro/devkitARM/bin/../lib/gcc/arm-none-eabi/4.8.2/../../../../arm-none-eabi/lib/thumb/libstdc++.a(eh_terminate.o)
                                          0x8 (size before relaxing)
 .ARM.exidx.text._ZNSt9exceptionD2Ev
                0x00000000020687b4        0x0 /home/linux/devkitPro/devkitARM/bin/../lib/gcc/arm-none-eabi/4.8.2/../../../../arm-none-eabi/lib/thumb/libstdc++.a(eh_exception.o)
                                          0x8 (size before relaxing)
 .ARM.exidx.text._ZNSt13bad_exceptionD2Ev
                0x00000000020687b4        0x0 /home/linux/devkitPro/devkitARM/bin/../lib/gcc/arm-none-eabi/4.8.2/../../../../arm-none-eabi/lib/thumb/libstdc++.a(eh_exception.o)
                                          0x8 (size before relaxing)
 .ARM.exidx.text._ZN10__cxxabiv115__forced_unwindD2Ev
                0x00000000020687b4        0x0 /home/linux/devkitPro/devkitARM/bin/../lib/gcc/arm-none-eabi/4.8.2/../../../../arm-none-eabi/lib/thumb/libstdc++.a(eh_exception.o)
                                          0x8 (size before relaxing)
 .ARM.exidx.text._ZN10__cxxabiv119__foreign_exceptionD2Ev
                0x00000000020687b4        0x0 /home/linux/devkitPro/devkitARM/bin/../lib/gcc/arm-none-eabi/4.8.2/../../../../arm-none-eabi/lib/thumb/libstdc++.a(eh_exception.o)
                                          0x8 (size before relaxing)
 .ARM.exidx.text._ZNKSt9exception4whatEv
                0x00000000020687b4        0x0 /home/linux/devkitPro/devkitARM/bin/../lib/gcc/arm-none-eabi/4.8.2/../../../../arm-none-eabi/lib/thumb/libstdc++.a(eh_exception.o)
                                          0x8 (size before relaxing)
 .ARM.exidx.text._ZNKSt13bad_exception4whatEv
                0x00000000020687b4        0x0 /home/linux/devkitPro/devkitARM/bin/../lib/gcc/arm-none-eabi/4.8.2/../../../../arm-none-eabi/lib/thumb/libstdc++.a(eh_exception.o)
                                          0x8 (size before relaxing)
 .ARM.exidx.text._ZNSt9exceptionD0Ev
                0x00000000020687b4        0x0 /home/linux/devkitPro/devkitARM/bin/../lib/gcc/arm-none-eabi/4.8.2/../../../../arm-none-eabi/lib/thumb/libstdc++.a(eh_exception.o)
                                          0x8 (size before relaxing)
 .ARM.exidx.text._ZNSt13bad_exceptionD0Ev
                0x00000000020687b4        0x0 /home/linux/devkitPro/devkitARM/bin/../lib/gcc/arm-none-eabi/4.8.2/../../../../arm-none-eabi/lib/thumb/libstdc++.a(eh_exception.o)
                                          0x8 (size before relaxing)
 .ARM.exidx.text._ZN10__cxxabiv115__forced_unwindD0Ev
                0x00000000020687b4        0x0 /home/linux/devkitPro/devkitARM/bin/../lib/gcc/arm-none-eabi/4.8.2/../../../../arm-none-eabi/lib/thumb/libstdc++.a(eh_exception.o)
                                          0x8 (size before relaxing)
 .ARM.exidx.text._ZN10__cxxabiv119__foreign_exceptionD0Ev
                0x00000000020687b4        0x0 /home/linux/devkitPro/devkitARM/bin/../lib/gcc/arm-none-eabi/4.8.2/../../../../arm-none-eabi/lib/thumb/libstdc++.a(eh_exception.o)
                                          0x8 (size before relaxing)
 .ARM.exidx.text.__cxa_allocate_exception
                0x00000000020687b4        0x0 /home/linux/devkitPro/devkitARM/bin/../lib/gcc/arm-none-eabi/4.8.2/../../../../arm-none-eabi/lib/thumb/libstdc++.a(eh_alloc.o)
                                          0x8 (size before relaxing)
 .ARM.exidx.text.__cxa_free_exception
                0x00000000020687b4        0x0 /home/linux/devkitPro/devkitARM/bin/../lib/gcc/arm-none-eabi/4.8.2/../../../../arm-none-eabi/lib/thumb/libstdc++.a(eh_alloc.o)
                                          0x8 (size before relaxing)
 .ARM.exidx.text.__cxa_allocate_dependent_exception
                0x00000000020687b4        0x0 /home/linux/devkitPro/devkitARM/bin/../lib/gcc/arm-none-eabi/4.8.2/../../../../arm-none-eabi/lib/thumb/libstdc++.a(eh_alloc.o)
                                          0x8 (size before relaxing)
 .ARM.exidx.text.__cxa_free_dependent_exception
                0x00000000020687b4        0x0 /home/linux/devkitPro/devkitARM/bin/../lib/gcc/arm-none-eabi/4.8.2/../../../../arm-none-eabi/lib/thumb/libstdc++.a(eh_alloc.o)
                                          0x8 (size before relaxing)
 .ARM.exidx.text._ZNKSt9bad_alloc4whatEv
                0x00000000020687b4        0x0 /home/linux/devkitPro/devkitARM/bin/../lib/gcc/arm-none-eabi/4.8.2/../../../../arm-none-eabi/lib/thumb/libstdc++.a(bad_alloc.o)
                                          0x8 (size before relaxing)
 .ARM.exidx.text._ZNSt9bad_allocD2Ev
                0x00000000020687b4        0x0 /home/linux/devkitPro/devkitARM/bin/../lib/gcc/arm-none-eabi/4.8.2/../../../../arm-none-eabi/lib/thumb/libstdc++.a(bad_alloc.o)
                                          0x8 (size before relaxing)
 .ARM.exidx.text._ZNSt9bad_allocD0Ev
                0x00000000020687b4        0x0 /home/linux/devkitPro/devkitARM/bin/../lib/gcc/arm-none-eabi/4.8.2/../../../../arm-none-eabi/lib/thumb/libstdc++.a(bad_alloc.o)
                                          0x8 (size before relaxing)
 .ARM.exidx.text._ZdaPv
                0x00000000020687b4        0x0 /home/linux/devkitPro/devkitARM/bin/../lib/gcc/arm-none-eabi/4.8.2/../../../../arm-none-eabi/lib/thumb/libstdc++.a(del_opv.o)
                                          0x8 (size before relaxing)
 .ARM.exidx.text._ZNK10__cxxabiv117__class_type_info11__do_upcastEPKS0_PPv
                0x00000000020687b4        0x8 /home/linux/devkitPro/devkitARM/bin/../lib/gcc/arm-none-eabi/4.8.2/../../../../arm-none-eabi/lib/thumb/libstdc++.a(class_type_info.o)
 .ARM.exidx.text._ZNK10__cxxabiv117__class_type_info20__do_find_public_srcEiPKvPKS0_S2_
                0x00000000020687bc        0x8 /home/linux/devkitPro/devkitARM/bin/../lib/gcc/arm-none-eabi/4.8.2/../../../../arm-none-eabi/lib/thumb/libstdc++.a(class_type_info.o)
 .ARM.exidx.text._ZN10__cxxabiv117__class_type_infoD2Ev
                0x00000000020687c4        0x8 /home/linux/devkitPro/devkitARM/bin/../lib/gcc/arm-none-eabi/4.8.2/../../../../arm-none-eabi/lib/thumb/libstdc++.a(class_type_info.o)
 .ARM.exidx.text._ZN10__cxxabiv117__class_type_infoD0Ev
                0x00000000020687cc        0x0 /home/linux/devkitPro/devkitARM/bin/../lib/gcc/arm-none-eabi/4.8.2/../../../../arm-none-eabi/lib/thumb/libstdc++.a(class_type_info.o)
                                          0x8 (size before relaxing)
 .ARM.exidx.text._ZNK10__cxxabiv117__class_type_info11__do_upcastEPKS0_PKvRNS0_15__upcast_resultE
                0x00000000020687cc        0x8 /home/linux/devkitPro/devkitARM/bin/../lib/gcc/arm-none-eabi/4.8.2/../../../../arm-none-eabi/lib/thumb/libstdc++.a(class_type_info.o)
 .ARM.exidx.text._ZNK10__cxxabiv117__class_type_info10__do_catchEPKSt9type_infoPPvj
                0x00000000020687d4        0x8 /home/linux/devkitPro/devkitARM/bin/../lib/gcc/arm-none-eabi/4.8.2/../../../../arm-none-eabi/lib/thumb/libstdc++.a(class_type_info.o)
 .ARM.exidx.text._ZNK10__cxxabiv117__class_type_info12__do_dyncastEiNS0_10__sub_kindEPKS0_PKvS3_S5_RNS0_16__dyncast_resultE
                0x00000000020687dc        0x8 /home/linux/devkitPro/devkitARM/bin/../lib/gcc/arm-none-eabi/4.8.2/../../../../arm-none-eabi/lib/thumb/libstdc++.a(class_type_info.o)
 .ARM.exidx.text._ZSt15set_new_handlerPFvvE
                0x00000000020687e4        0x8 /home/linux/devkitPro/devkitARM/bin/../lib/gcc/arm-none-eabi/4.8.2/../../../../arm-none-eabi/lib/thumb/libstdc++.a(new_handler.o)
 .ARM.exidx.text._ZNKSs4dataEv
                0x00000000020687ec        0x0 /home/linux/devkitPro/devkitARM/bin/../lib/gcc/arm-none-eabi/4.8.2/../../../../arm-none-eabi/lib/thumb/libstdc++.a(string-inst.o)
                                          0x8 (size before relaxing)
 .ARM.exidx.text._ZNKSs6lengthEv
                0x00000000020687ec        0x0 /home/linux/devkitPro/devkitARM/bin/../lib/gcc/arm-none-eabi/4.8.2/../../../../arm-none-eabi/lib/thumb/libstdc++.a(string-inst.o)
                                          0x8 (size before relaxing)
 .ARM.exidx.text._ZNKSs7_M_dataEv
                0x00000000020687ec        0x0 /home/linux/devkitPro/devkitARM/bin/../lib/gcc/arm-none-eabi/4.8.2/../../../../arm-none-eabi/lib/thumb/libstdc++.a(string-inst.o)
                                          0x8 (size before relaxing)
 .ARM.exidx.text._ZNSs7_M_dataEPc
                0x00000000020687ec        0x0 /home/linux/devkitPro/devkitARM/bin/../lib/gcc/arm-none-eabi/4.8.2/../../../../arm-none-eabi/lib/thumb/libstdc++.a(string-inst.o)
                                          0x8 (size before relaxing)
 .ARM.exidx.text._ZNKSs6_M_repEv
                0x00000000020687ec        0x0 /home/linux/devkitPro/devkitARM/bin/../lib/gcc/arm-none-eabi/4.8.2/../../../../arm-none-eabi/lib/thumb/libstdc++.a(string-inst.o)
                                          0x8 (size before relaxing)
 .ARM.exidx.text._ZNKSs9_M_ibeginEv
                0x00000000020687ec        0x0 /home/linux/devkitPro/devkitARM/bin/../lib/gcc/arm-none-eabi/4.8.2/../../../../arm-none-eabi/lib/thumb/libstdc++.a(string-inst.o)
                                          0x8 (size before relaxing)
 .ARM.exidx.text._ZNKSs7_M_iendEv
                0x00000000020687ec        0x0 /home/linux/devkitPro/devkitARM/bin/../lib/gcc/arm-none-eabi/4.8.2/../../../../arm-none-eabi/lib/thumb/libstdc++.a(string-inst.o)
                                          0x8 (size before relaxing)
 .ARM.exidx.text._ZNKSs8_M_checkEjPKc
                0x00000000020687ec        0x8 /home/linux/devkitPro/devkitARM/bin/../lib/gcc/arm-none-eabi/4.8.2/../../../../arm-none-eabi/lib/thumb/libstdc++.a(string-inst.o)
 .ARM.exidx.text._ZNKSs15_M_check_lengthEjjPKc
                0x00000000020687f4        0x8 /home/linux/devkitPro/devkitARM/bin/../lib/gcc/arm-none-eabi/4.8.2/../../../../arm-none-eabi/lib/thumb/libstdc++.a(string-inst.o)
 .ARM.exidx.text._ZNKSs8_M_limitEjj
                0x00000000020687fc        0x8 /home/linux/devkitPro/devkitARM/bin/../lib/gcc/arm-none-eabi/4.8.2/../../../../arm-none-eabi/lib/thumb/libstdc++.a(string-inst.o)
 .ARM.exidx.text._ZNKSs11_M_disjunctEPKc
                0x0000000002068804        0x0 /home/linux/devkitPro/devkitARM/bin/../lib/gcc/arm-none-eabi/4.8.2/../../../../arm-none-eabi/lib/thumb/libstdc++.a(string-inst.o)
                                          0x8 (size before relaxing)
 .ARM.exidx.text._ZNSs7_M_copyEPcPKcj
                0x0000000002068804        0x0 /home/linux/devkitPro/devkitARM/bin/../lib/gcc/arm-none-eabi/4.8.2/../../../../arm-none-eabi/lib/thumb/libstdc++.a(string-inst.o)
                                          0x8 (size before relaxing)
 .ARM.exidx.text._ZNSs7_M_moveEPcPKcj
                0x0000000002068804        0x0 /home/linux/devkitPro/devkitARM/bin/../lib/gcc/arm-none-eabi/4.8.2/../../../../arm-none-eabi/lib/thumb/libstdc++.a(string-inst.o)
                                          0x8 (size before relaxing)
 .ARM.exidx.text._ZNSs9_M_assignEPcjc
                0x0000000002068804        0x0 /home/linux/devkitPro/devkitARM/bin/../lib/gcc/arm-none-eabi/4.8.2/../../../../arm-none-eabi/lib/thumb/libstdc++.a(string-inst.o)
                                          0x8 (size before relaxing)
 .ARM.exidx.text._ZNSs13_S_copy_charsEPcN9__gnu_cxx17__normal_iteratorIS_SsEES2_
                0x0000000002068804        0x0 /home/linux/devkitPro/devkitARM/bin/../lib/gcc/arm-none-eabi/4.8.2/../../../../arm-none-eabi/lib/thumb/libstdc++.a(string-inst.o)
                                          0x8 (size before relaxing)
 .ARM.exidx.text._ZNSs13_S_copy_charsEPcN9__gnu_cxx17__normal_iteratorIPKcSsEES4_
                0x0000000002068804        0x0 /home/linux/devkitPro/devkitARM/bin/../lib/gcc/arm-none-eabi/4.8.2/../../../../arm-none-eabi/lib/thumb/libstdc++.a(string-inst.o)
                                          0x8 (size before relaxing)
 .ARM.exidx.text._ZNSs13_S_copy_charsEPcS_S_
                0x0000000002068804        0x0 /home/linux/devkitPro/devkitARM/bin/../lib/gcc/arm-none-eabi/4.8.2/../../../../arm-none-eabi/lib/thumb/libstdc++.a(string-inst.o)
                                          0x8 (size before relaxing)
 .ARM.exidx.text._ZNSs13_S_copy_charsEPcPKcS1_
                0x0000000002068804        0x0 /home/linux/devkitPro/devkitARM/bin/../lib/gcc/arm-none-eabi/4.8.2/../../../../arm-none-eabi/lib/thumb/libstdc++.a(string-inst.o)
                                          0x8 (size before relaxing)
 .ARM.exidx.text._ZNSs10_S_compareEjj
                0x0000000002068804        0x0 /home/linux/devkitPro/devkitARM/bin/../lib/gcc/arm-none-eabi/4.8.2/../../../../arm-none-eabi/lib/thumb/libstdc++.a(string-inst.o)
                                          0x8 (size before relaxing)
 .ARM.exidx.text._ZNSs12_S_empty_repEv
                0x0000000002068804        0x0 /home/linux/devkitPro/devkitARM/bin/../lib/gcc/arm-none-eabi/4.8.2/../../../../arm-none-eabi/lib/thumb/libstdc++.a(string-inst.o)
                                          0x8 (size before relaxing)
 .ARM.exidx.text._ZNSsC2Ev
                0x0000000002068804        0x0 /home/linux/devkitPro/devkitARM/bin/../lib/gcc/arm-none-eabi/4.8.2/../../../../arm-none-eabi/lib/thumb/libstdc++.a(string-inst.o)
                                          0x8 (size before relaxing)
 .ARM.exidx.text._ZNSsC2EOSs
                0x0000000002068804        0x0 /home/linux/devkitPro/devkitARM/bin/../lib/gcc/arm-none-eabi/4.8.2/../../../../arm-none-eabi/lib/thumb/libstdc++.a(string-inst.o)
                                          0x8 (size before relaxing)
 .ARM.exidx.text._ZNKSs5beginEv
                0x0000000002068804        0x0 /home/linux/devkitPro/devkitARM/bin/../lib/gcc/arm-none-eabi/4.8.2/../../../../arm-none-eabi/lib/thumb/libstdc++.a(string-inst.o)
                                          0x8 (size before relaxing)
 .ARM.exidx.text._ZNKSs3endEv
                0x0000000002068804        0x0 /home/linux/devkitPro/devkitARM/bin/../lib/gcc/arm-none-eabi/4.8.2/../../../../arm-none-eabi/lib/thumb/libstdc++.a(string-inst.o)
                                          0x8 (size before relaxing)
 .ARM.exidx.text._ZNKSs6rbeginEv
                0x0000000002068804        0x0 /home/linux/devkitPro/devkitARM/bin/../lib/gcc/arm-none-eabi/4.8.2/../../../../arm-none-eabi/lib/thumb/libstdc++.a(string-inst.o)
                                          0x8 (size before relaxing)
 .ARM.exidx.text._ZNKSs4rendEv
                0x0000000002068804        0x0 /home/linux/devkitPro/devkitARM/bin/../lib/gcc/arm-none-eabi/4.8.2/../../../../arm-none-eabi/lib/thumb/libstdc++.a(string-inst.o)
                                          0x8 (size before relaxing)
 .ARM.exidx.text._ZNKSs6cbeginEv
                0x0000000002068804        0x0 /home/linux/devkitPro/devkitARM/bin/../lib/gcc/arm-none-eabi/4.8.2/../../../../arm-none-eabi/lib/thumb/libstdc++.a(string-inst.o)
                                          0x8 (size before relaxing)
 .ARM.exidx.text._ZNKSs4cendEv
                0x0000000002068804        0x0 /home/linux/devkitPro/devkitARM/bin/../lib/gcc/arm-none-eabi/4.8.2/../../../../arm-none-eabi/lib/thumb/libstdc++.a(string-inst.o)
                                          0x8 (size before relaxing)
 .ARM.exidx.text._ZNKSs7crbeginEv
                0x0000000002068804        0x0 /home/linux/devkitPro/devkitARM/bin/../lib/gcc/arm-none-eabi/4.8.2/../../../../arm-none-eabi/lib/thumb/libstdc++.a(string-inst.o)
                                          0x8 (size before relaxing)
 .ARM.exidx.text._ZNKSs5crendEv
                0x0000000002068804        0x0 /home/linux/devkitPro/devkitARM/bin/../lib/gcc/arm-none-eabi/4.8.2/../../../../arm-none-eabi/lib/thumb/libstdc++.a(string-inst.o)
                                          0x8 (size before relaxing)
 .ARM.exidx.text._ZNKSs4sizeEv
                0x0000000002068804        0x0 /home/linux/devkitPro/devkitARM/bin/../lib/gcc/arm-none-eabi/4.8.2/../../../../arm-none-eabi/lib/thumb/libstdc++.a(string-inst.o)
                                          0x8 (size before relaxing)
 .ARM.exidx.text._ZNKSs8max_sizeEv
                0x0000000002068804        0x0 /home/linux/devkitPro/devkitARM/bin/../lib/gcc/arm-none-eabi/4.8.2/../../../../arm-none-eabi/lib/thumb/libstdc++.a(string-inst.o)
                                          0x8 (size before relaxing)
 .ARM.exidx.text._ZNKSs8capacityEv
                0x0000000002068804        0x0 /home/linux/devkitPro/devkitARM/bin/../lib/gcc/arm-none-eabi/4.8.2/../../../../arm-none-eabi/lib/thumb/libstdc++.a(string-inst.o)
                                          0x8 (size before relaxing)
 .ARM.exidx.text._ZNKSs5emptyEv
                0x0000000002068804        0x0 /home/linux/devkitPro/devkitARM/bin/../lib/gcc/arm-none-eabi/4.8.2/../../../../arm-none-eabi/lib/thumb/libstdc++.a(string-inst.o)
                                          0x8 (size before relaxing)
 .ARM.exidx.text._ZNKSsixEj
                0x0000000002068804        0x0 /home/linux/devkitPro/devkitARM/bin/../lib/gcc/arm-none-eabi/4.8.2/../../../../arm-none-eabi/lib/thumb/libstdc++.a(string-inst.o)
                                          0x8 (size before relaxing)
 .ARM.exidx.text._ZNKSs2atEj
                0x0000000002068804        0x8 /home/linux/devkitPro/devkitARM/bin/../lib/gcc/arm-none-eabi/4.8.2/../../../../arm-none-eabi/lib/thumb/libstdc++.a(string-inst.o)
 .ARM.exidx.text._ZNKSs5frontEv
                0x000000000206880c        0x8 /home/linux/devkitPro/devkitARM/bin/../lib/gcc/arm-none-eabi/4.8.2/../../../../arm-none-eabi/lib/thumb/libstdc++.a(string-inst.o)
 .ARM.exidx.text._ZNKSs4backEv
                0x0000000002068814        0x0 /home/linux/devkitPro/devkitARM/bin/../lib/gcc/arm-none-eabi/4.8.2/../../../../arm-none-eabi/lib/thumb/libstdc++.a(string-inst.o)
                                          0x8 (size before relaxing)
 .ARM.exidx.text._ZNKSs4copyEPcjj
                0x0000000002068814        0x8 /home/linux/devkitPro/devkitARM/bin/../lib/gcc/arm-none-eabi/4.8.2/../../../../arm-none-eabi/lib/thumb/libstdc++.a(string-inst.o)
 .ARM.exidx.text._ZNSs4swapERSs
                0x000000000206881c        0x8 /home/linux/devkitPro/devkitARM/bin/../lib/gcc/arm-none-eabi/4.8.2/../../../../arm-none-eabi/lib/thumb/libstdc++.a(string-inst.o)
 .ARM.exidx.text._ZNSsaSEOSs
                0x0000000002068824        0x8 /home/linux/devkitPro/devkitARM/bin/../lib/gcc/arm-none-eabi/4.8.2/../../../../arm-none-eabi/lib/thumb/libstdc++.a(string-inst.o)
 .ARM.exidx.text._ZNSs6assignEOSs
                0x000000000206882c        0x0 /home/linux/devkitPro/devkitARM/bin/../lib/gcc/arm-none-eabi/4.8.2/../../../../arm-none-eabi/lib/thumb/libstdc++.a(string-inst.o)
                                          0x8 (size before relaxing)
 .ARM.exidx.text._ZNKSs5c_strEv
                0x000000000206882c        0x8 /home/linux/devkitPro/devkitARM/bin/../lib/gcc/arm-none-eabi/4.8.2/../../../../arm-none-eabi/lib/thumb/libstdc++.a(string-inst.o)
 .ARM.exidx.text._ZNKSs13get_allocatorEv
                0x0000000002068834        0x0 /home/linux/devkitPro/devkitARM/bin/../lib/gcc/arm-none-eabi/4.8.2/../../../../arm-none-eabi/lib/thumb/libstdc++.a(string-inst.o)
                                          0x8 (size before relaxing)
 .ARM.exidx.text._ZNKSs4findEPKcjj
                0x0000000002068834        0x0 /home/linux/devkitPro/devkitARM/bin/../lib/gcc/arm-none-eabi/4.8.2/../../../../arm-none-eabi/lib/thumb/libstdc++.a(string-inst.o)
                                          0x8 (size before relaxing)
 .ARM.exidx.text._ZNKSs4findERKSsj
                0x0000000002068834        0x8 /home/linux/devkitPro/devkitARM/bin/../lib/gcc/arm-none-eabi/4.8.2/../../../../arm-none-eabi/lib/thumb/libstdc++.a(string-inst.o)
 .ARM.exidx.text._ZNKSs4findEPKcj
                0x000000000206883c        0x8 /home/linux/devkitPro/devkitARM/bin/../lib/gcc/arm-none-eabi/4.8.2/../../../../arm-none-eabi/lib/thumb/libstdc++.a(string-inst.o)
 .ARM.exidx.text._ZNKSs4findEcj
                0x0000000002068844        0x8 /home/linux/devkitPro/devkitARM/bin/../lib/gcc/arm-none-eabi/4.8.2/../../../../arm-none-eabi/lib/thumb/libstdc++.a(string-inst.o)
 .ARM.exidx.text._ZNKSs5rfindEPKcjj
                0x000000000206884c        0x0 /home/linux/devkitPro/devkitARM/bin/../lib/gcc/arm-none-eabi/4.8.2/../../../../arm-none-eabi/lib/thumb/libstdc++.a(string-inst.o)
                                          0x8 (size before relaxing)
 .ARM.exidx.text._ZNKSs5rfindERKSsj
                0x000000000206884c        0x8 /home/linux/devkitPro/devkitARM/bin/../lib/gcc/arm-none-eabi/4.8.2/../../../../arm-none-eabi/lib/thumb/libstdc++.a(string-inst.o)
 .ARM.exidx.text._ZNKSs5rfindEPKcj
                0x0000000002068854        0x8 /home/linux/devkitPro/devkitARM/bin/../lib/gcc/arm-none-eabi/4.8.2/../../../../arm-none-eabi/lib/thumb/libstdc++.a(string-inst.o)
 .ARM.exidx.text._ZNKSs5rfindEcj
                0x000000000206885c        0x8 /home/linux/devkitPro/devkitARM/bin/../lib/gcc/arm-none-eabi/4.8.2/../../../../arm-none-eabi/lib/thumb/libstdc++.a(string-inst.o)
 .ARM.exidx.text._ZNKSs13find_first_ofEPKcjj
                0x0000000002068864        0x0 /home/linux/devkitPro/devkitARM/bin/../lib/gcc/arm-none-eabi/4.8.2/../../../../arm-none-eabi/lib/thumb/libstdc++.a(string-inst.o)
                                          0x8 (size before relaxing)
 .ARM.exidx.text._ZNKSs13find_first_ofERKSsj
                0x0000000002068864        0x8 /home/linux/devkitPro/devkitARM/bin/../lib/gcc/arm-none-eabi/4.8.2/../../../../arm-none-eabi/lib/thumb/libstdc++.a(string-inst.o)
 .ARM.exidx.text._ZNKSs13find_first_ofEPKcj
                0x000000000206886c        0x8 /home/linux/devkitPro/devkitARM/bin/../lib/gcc/arm-none-eabi/4.8.2/../../../../arm-none-eabi/lib/thumb/libstdc++.a(string-inst.o)
 .ARM.exidx.text._ZNKSs13find_first_ofEcj
                0x0000000002068874        0x8 /home/linux/devkitPro/devkitARM/bin/../lib/gcc/arm-none-eabi/4.8.2/../../../../arm-none-eabi/lib/thumb/libstdc++.a(string-inst.o)
 .ARM.exidx.text._ZNKSs12find_last_ofEPKcjj
                0x000000000206887c        0x0 /home/linux/devkitPro/devkitARM/bin/../lib/gcc/arm-none-eabi/4.8.2/../../../../arm-none-eabi/lib/thumb/libstdc++.a(string-inst.o)
                                          0x8 (size before relaxing)
 .ARM.exidx.text._ZNKSs12find_last_ofERKSsj
                0x000000000206887c        0x8 /home/linux/devkitPro/devkitARM/bin/../lib/gcc/arm-none-eabi/4.8.2/../../../../arm-none-eabi/lib/thumb/libstdc++.a(string-inst.o)
 .ARM.exidx.text._ZNKSs12find_last_ofEPKcj
                0x0000000002068884        0x8 /home/linux/devkitPro/devkitARM/bin/../lib/gcc/arm-none-eabi/4.8.2/../../../../arm-none-eabi/lib/thumb/libstdc++.a(string-inst.o)
 .ARM.exidx.text._ZNKSs12find_last_ofEcj
                0x000000000206888c        0x8 /home/linux/devkitPro/devkitARM/bin/../lib/gcc/arm-none-eabi/4.8.2/../../../../arm-none-eabi/lib/thumb/libstdc++.a(string-inst.o)
 .ARM.exidx.text._ZNKSs17find_first_not_ofEPKcjj
                0x0000000002068894        0x0 /home/linux/devkitPro/devkitARM/bin/../lib/gcc/arm-none-eabi/4.8.2/../../../../arm-none-eabi/lib/thumb/libstdc++.a(string-inst.o)
                                          0x8 (size before relaxing)
 .ARM.exidx.text._ZNKSs17find_first_not_ofERKSsj
                0x0000000002068894        0x8 /home/linux/devkitPro/devkitARM/bin/../lib/gcc/arm-none-eabi/4.8.2/../../../../arm-none-eabi/lib/thumb/libstdc++.a(string-inst.o)
 .ARM.exidx.text._ZNKSs17find_first_not_ofEPKcj
                0x000000000206889c        0x8 /home/linux/devkitPro/devkitARM/bin/../lib/gcc/arm-none-eabi/4.8.2/../../../../arm-none-eabi/lib/thumb/libstdc++.a(string-inst.o)
 .ARM.exidx.text._ZNKSs17find_first_not_ofEcj
                0x00000000020688a4        0x8 /home/linux/devkitPro/devkitARM/bin/../lib/gcc/arm-none-eabi/4.8.2/../../../../arm-none-eabi/lib/thumb/libstdc++.a(string-inst.o)
 .ARM.exidx.text._ZNKSs16find_last_not_ofEPKcjj
                0x00000000020688ac        0x0 /home/linux/devkitPro/devkitARM/bin/../lib/gcc/arm-none-eabi/4.8.2/../../../../arm-none-eabi/lib/thumb/libstdc++.a(string-inst.o)
                                          0x8 (size before relaxing)
 .ARM.exidx.text._ZNKSs16find_last_not_ofERKSsj
                0x00000000020688ac        0x8 /home/linux/devkitPro/devkitARM/bin/../lib/gcc/arm-none-eabi/4.8.2/../../../../arm-none-eabi/lib/thumb/libstdc++.a(string-inst.o)
 .ARM.exidx.text._ZNKSs16find_last_not_ofEPKcj
                0x00000000020688b4        0x8 /home/linux/devkitPro/devkitARM/bin/../lib/gcc/arm-none-eabi/4.8.2/../../../../arm-none-eabi/lib/thumb/libstdc++.a(string-inst.o)
 .ARM.exidx.text._ZNKSs16find_last_not_ofEcj
                0x00000000020688bc        0x8 /home/linux/devkitPro/devkitARM/bin/../lib/gcc/arm-none-eabi/4.8.2/../../../../arm-none-eabi/lib/thumb/libstdc++.a(string-inst.o)
 .ARM.exidx.text._ZNKSs7compareERKSs
                0x00000000020688c4        0x0 /home/linux/devkitPro/devkitARM/bin/../lib/gcc/arm-none-eabi/4.8.2/../../../../arm-none-eabi/lib/thumb/libstdc++.a(string-inst.o)
                                          0x8 (size before relaxing)
 .ARM.exidx.text._ZNKSs7compareEjjRKSs
                0x00000000020688c4        0x8 /home/linux/devkitPro/devkitARM/bin/../lib/gcc/arm-none-eabi/4.8.2/../../../../arm-none-eabi/lib/thumb/libstdc++.a(string-inst.o)
 .ARM.exidx.text._ZNKSs7compareEjjRKSsjj
                0x00000000020688cc        0x8 /home/linux/devkitPro/devkitARM/bin/../lib/gcc/arm-none-eabi/4.8.2/../../../../arm-none-eabi/lib/thumb/libstdc++.a(string-inst.o)
 .ARM.exidx.text._ZNKSs7compareEPKc
                0x00000000020688d4        0x8 /home/linux/devkitPro/devkitARM/bin/../lib/gcc/arm-none-eabi/4.8.2/../../../../arm-none-eabi/lib/thumb/libstdc++.a(string-inst.o)
 .ARM.exidx.text._ZNKSs7compareEjjPKc
                0x00000000020688dc        0x8 /home/linux/devkitPro/devkitARM/bin/../lib/gcc/arm-none-eabi/4.8.2/../../../../arm-none-eabi/lib/thumb/libstdc++.a(string-inst.o)
 .ARM.exidx.text._ZNKSs7compareEjjPKcj
                0x00000000020688e4        0x8 /home/linux/devkitPro/devkitARM/bin/../lib/gcc/arm-none-eabi/4.8.2/../../../../arm-none-eabi/lib/thumb/libstdc++.a(string-inst.o)
 .ARM.exidx.text._ZNSs12_Alloc_hiderC2EPcRKSaIcE
                0x00000000020688ec        0x8 /home/linux/devkitPro/devkitARM/bin/../lib/gcc/arm-none-eabi/4.8.2/../../../../arm-none-eabi/lib/thumb/libstdc++.a(string-inst.o)
 .ARM.exidx.text._ZNSs4_Rep12_S_empty_repEv
                0x00000000020688f4        0x0 /home/linux/devkitPro/devkitARM/bin/../lib/gcc/arm-none-eabi/4.8.2/../../../../arm-none-eabi/lib/thumb/libstdc++.a(string-inst.o)
                                          0x8 (size before relaxing)
 .ARM.exidx.text._ZNKSs4_Rep12_M_is_leakedEv
                0x00000000020688f4        0x0 /home/linux/devkitPro/devkitARM/bin/../lib/gcc/arm-none-eabi/4.8.2/../../../../arm-none-eabi/lib/thumb/libstdc++.a(string-inst.o)
                                          0x8 (size before relaxing)
 .ARM.exidx.text._ZNKSs4_Rep12_M_is_sharedEv
                0x00000000020688f4        0x0 /home/linux/devkitPro/devkitARM/bin/../lib/gcc/arm-none-eabi/4.8.2/../../../../arm-none-eabi/lib/thumb/libstdc++.a(string-inst.o)
                                          0x8 (size before relaxing)
 .ARM.exidx.text._ZNSs4_Rep13_M_set_leakedEv
                0x00000000020688f4        0x0 /home/linux/devkitPro/devkitARM/bin/../lib/gcc/arm-none-eabi/4.8.2/../../../../arm-none-eabi/lib/thumb/libstdc++.a(string-inst.o)
                                          0x8 (size before relaxing)
 .ARM.exidx.text._ZNSs4_Rep15_M_set_sharableEv
                0x00000000020688f4        0x0 /home/linux/devkitPro/devkitARM/bin/../lib/gcc/arm-none-eabi/4.8.2/../../../../arm-none-eabi/lib/thumb/libstdc++.a(string-inst.o)
                                          0x8 (size before relaxing)
 .ARM.exidx.text._ZNSs4_Rep26_M_set_length_and_sharableEj
                0x00000000020688f4        0x0 /home/linux/devkitPro/devkitARM/bin/../lib/gcc/arm-none-eabi/4.8.2/../../../../arm-none-eabi/lib/thumb/libstdc++.a(string-inst.o)
                                          0x8 (size before relaxing)
 .ARM.exidx.text._ZNSs4_Rep10_M_refdataEv
                0x00000000020688f4        0x0 /home/linux/devkitPro/devkitARM/bin/../lib/gcc/arm-none-eabi/4.8.2/../../../../arm-none-eabi/lib/thumb/libstdc++.a(string-inst.o)
                                          0x8 (size before relaxing)
 .ARM.exidx.text._ZNSs4_Rep9_S_createEjjRKSaIcE
                0x00000000020688f4        0x8 /home/linux/devkitPro/devkitARM/bin/../lib/gcc/arm-none-eabi/4.8.2/../../../../arm-none-eabi/lib/thumb/libstdc++.a(string-inst.o)
 .ARM.exidx.text._ZNSs12_S_constructEjcRKSaIcE
                0x00000000020688fc        0x8 /home/linux/devkitPro/devkitARM/bin/../lib/gcc/arm-none-eabi/4.8.2/../../../../arm-none-eabi/lib/thumb/libstdc++.a(string-inst.o)
 .ARM.exidx.text._ZNSsC2ERKSaIcE
                0x0000000002068904        0x8 /home/linux/devkitPro/devkitARM/bin/../lib/gcc/arm-none-eabi/4.8.2/../../../../arm-none-eabi/lib/thumb/libstdc++.a(string-inst.o)
 .ARM.exidx.text._ZNSsC2EjcRKSaIcE
                0x000000000206890c        0x0 /home/linux/devkitPro/devkitARM/bin/../lib/gcc/arm-none-eabi/4.8.2/../../../../arm-none-eabi/lib/thumb/libstdc++.a(string-inst.o)
                                          0x8 (size before relaxing)
 .ARM.exidx.text._ZNSs18_S_construct_aux_2EjcRKSaIcE
                0x000000000206890c        0x8 /home/linux/devkitPro/devkitARM/bin/../lib/gcc/arm-none-eabi/4.8.2/../../../../arm-none-eabi/lib/thumb/libstdc++.a(string-inst.o)
 .ARM.exidx.text._ZNSs4_Rep10_M_destroyERKSaIcE
                0x0000000002068914        0x8 /home/linux/devkitPro/devkitARM/bin/../lib/gcc/arm-none-eabi/4.8.2/../../../../arm-none-eabi/lib/thumb/libstdc++.a(string-inst.o)
 .ARM.exidx.text.unlikely._ZNSs4_Rep10_M_disposeERKSaIcE.part.11
                0x000000000206891c        0x0 /home/linux/devkitPro/devkitARM/bin/../lib/gcc/arm-none-eabi/4.8.2/../../../../arm-none-eabi/lib/thumb/libstdc++.a(string-inst.o)
                                          0x8 (size before relaxing)
 .ARM.exidx.text._ZNSs4_Rep10_M_disposeERKSaIcE
                0x000000000206891c        0x0 /home/linux/devkitPro/devkitARM/bin/../lib/gcc/arm-none-eabi/4.8.2/../../../../arm-none-eabi/lib/thumb/libstdc++.a(string-inst.o)
                                          0x8 (size before relaxing)
 .ARM.exidx.text._ZNSsD2Ev
                0x000000000206891c        0x0 /home/linux/devkitPro/devkitARM/bin/../lib/gcc/arm-none-eabi/4.8.2/../../../../arm-none-eabi/lib/thumb/libstdc++.a(string-inst.o)
                                          0x8 (size before relaxing)
 .ARM.exidx.text._ZNSs9_M_mutateEjjj
                0x000000000206891c        0x8 /home/linux/devkitPro/devkitARM/bin/../lib/gcc/arm-none-eabi/4.8.2/../../../../arm-none-eabi/lib/thumb/libstdc++.a(string-inst.o)
 .ARM.exidx.text._ZNSs12_M_leak_hardEv
                0x0000000002068924        0x8 /home/linux/devkitPro/devkitARM/bin/../lib/gcc/arm-none-eabi/4.8.2/../../../../arm-none-eabi/lib/thumb/libstdc++.a(string-inst.o)
 .ARM.exidx.text._ZNSs7_M_leakEv
                0x000000000206892c        0x8 /home/linux/devkitPro/devkitARM/bin/../lib/gcc/arm-none-eabi/4.8.2/../../../../arm-none-eabi/lib/thumb/libstdc++.a(string-inst.o)
 .ARM.exidx.text._ZNSs5beginEv
                0x0000000002068934        0x8 /home/linux/devkitPro/devkitARM/bin/../lib/gcc/arm-none-eabi/4.8.2/../../../../arm-none-eabi/lib/thumb/libstdc++.a(string-inst.o)
 .ARM.exidx.text._ZNSs4rendEv
                0x000000000206893c        0x8 /home/linux/devkitPro/devkitARM/bin/../lib/gcc/arm-none-eabi/4.8.2/../../../../arm-none-eabi/lib/thumb/libstdc++.a(string-inst.o)
 .ARM.exidx.text._ZNSs3endEv
                0x0000000002068944        0x8 /home/linux/devkitPro/devkitARM/bin/../lib/gcc/arm-none-eabi/4.8.2/../../../../arm-none-eabi/lib/thumb/libstdc++.a(string-inst.o)
 .ARM.exidx.text._ZNSsixEj
                0x000000000206894c        0x8 /home/linux/devkitPro/devkitARM/bin/../lib/gcc/arm-none-eabi/4.8.2/../../../../arm-none-eabi/lib/thumb/libstdc++.a(string-inst.o)
 .ARM.exidx.text._ZNSs5frontEv
                0x0000000002068954        0x8 /home/linux/devkitPro/devkitARM/bin/../lib/gcc/arm-none-eabi/4.8.2/../../../../arm-none-eabi/lib/thumb/libstdc++.a(string-inst.o)
 .ARM.exidx.text._ZNSs4backEv
                0x000000000206895c        0x8 /home/linux/devkitPro/devkitARM/bin/../lib/gcc/arm-none-eabi/4.8.2/../../../../arm-none-eabi/lib/thumb/libstdc++.a(string-inst.o)
 .ARM.exidx.text._ZNSs2atEj
                0x0000000002068964        0x0 /home/linux/devkitPro/devkitARM/bin/../lib/gcc/arm-none-eabi/4.8.2/../../../../arm-none-eabi/lib/thumb/libstdc++.a(string-inst.o)
                                          0x8 (size before relaxing)
 .ARM.exidx.text._ZNSs6rbeginEv
                0x0000000002068964        0x8 /home/linux/devkitPro/devkitARM/bin/../lib/gcc/arm-none-eabi/4.8.2/../../../../arm-none-eabi/lib/thumb/libstdc++.a(string-inst.o)
 .ARM.exidx.text._ZNSs5clearEv
                0x000000000206896c        0x8 /home/linux/devkitPro/devkitARM/bin/../lib/gcc/arm-none-eabi/4.8.2/../../../../arm-none-eabi/lib/thumb/libstdc++.a(string-inst.o)
 .ARM.exidx.text._ZNSs5eraseEjj
                0x0000000002068974        0x8 /home/linux/devkitPro/devkitARM/bin/../lib/gcc/arm-none-eabi/4.8.2/../../../../arm-none-eabi/lib/thumb/libstdc++.a(string-inst.o)
 .ARM.exidx.text._ZNSs5eraseEN9__gnu_cxx17__normal_iteratorIPcSsEE
                0x000000000206897c        0x8 /home/linux/devkitPro/devkitARM/bin/../lib/gcc/arm-none-eabi/4.8.2/../../../../arm-none-eabi/lib/thumb/libstdc++.a(string-inst.o)
 .ARM.exidx.text._ZNSs5eraseEN9__gnu_cxx17__normal_iteratorIPcSsEES2_
                0x0000000002068984        0x0 /home/linux/devkitPro/devkitARM/bin/../lib/gcc/arm-none-eabi/4.8.2/../../../../arm-none-eabi/lib/thumb/libstdc++.a(string-inst.o)
                                          0x8 (size before relaxing)
 .ARM.exidx.text._ZNSs14_M_replace_auxEjjjc
                0x0000000002068984        0x8 /home/linux/devkitPro/devkitARM/bin/../lib/gcc/arm-none-eabi/4.8.2/../../../../arm-none-eabi/lib/thumb/libstdc++.a(string-inst.o)
 .ARM.exidx.text._ZNSs6assignEjc
                0x000000000206898c        0x8 /home/linux/devkitPro/devkitARM/bin/../lib/gcc/arm-none-eabi/4.8.2/../../../../arm-none-eabi/lib/thumb/libstdc++.a(string-inst.o)
 .ARM.exidx.text._ZNSsaSEc
                0x0000000002068994        0x8 /home/linux/devkitPro/devkitARM/bin/../lib/gcc/arm-none-eabi/4.8.2/../../../../arm-none-eabi/lib/thumb/libstdc++.a(string-inst.o)
 .ARM.exidx.text._ZNSs6insertEjjc
                0x000000000206899c        0x8 /home/linux/devkitPro/devkitARM/bin/../lib/gcc/arm-none-eabi/4.8.2/../../../../arm-none-eabi/lib/thumb/libstdc++.a(string-inst.o)
 .ARM.exidx.text._ZNSs6insertEN9__gnu_cxx17__normal_iteratorIPcSsEEc
                0x00000000020689a4        0x0 /home/linux/devkitPro/devkitARM/bin/../lib/gcc/arm-none-eabi/4.8.2/../../../../arm-none-eabi/lib/thumb/libstdc++.a(string-inst.o)
                                          0x8 (size before relaxing)
 .ARM.exidx.text._ZNSs7replaceEjjjc
                0x00000000020689a4        0x8 /home/linux/devkitPro/devkitARM/bin/../lib/gcc/arm-none-eabi/4.8.2/../../../../arm-none-eabi/lib/thumb/libstdc++.a(string-inst.o)
 .ARM.exidx.text._ZNSs7replaceEN9__gnu_cxx17__normal_iteratorIPcSsEES2_jc
                0x00000000020689ac        0x0 /home/linux/devkitPro/devkitARM/bin/../lib/gcc/arm-none-eabi/4.8.2/../../../../arm-none-eabi/lib/thumb/libstdc++.a(string-inst.o)
                                          0x8 (size before relaxing)
 .ARM.exidx.text._ZNSs6insertEN9__gnu_cxx17__normal_iteratorIPcSsEEjc
                0x00000000020689ac        0x8 /home/linux/devkitPro/devkitARM/bin/../lib/gcc/arm-none-eabi/4.8.2/../../../../arm-none-eabi/lib/thumb/libstdc++.a(string-inst.o)
 .ARM.exidx.text._ZNSs15_M_replace_safeEjjPKcj
                0x00000000020689b4        0x8 /home/linux/devkitPro/devkitARM/bin/../lib/gcc/arm-none-eabi/4.8.2/../../../../arm-none-eabi/lib/thumb/libstdc++.a(string-inst.o)
 .ARM.exidx.text._ZNSs6assignEPKcj
                0x00000000020689bc        0x8 /home/linux/devkitPro/devkitARM/bin/../lib/gcc/arm-none-eabi/4.8.2/../../../../arm-none-eabi/lib/thumb/libstdc++.a(string-inst.o)
 .ARM.exidx.text._ZNSsaSESt16initializer_listIcE
                0x00000000020689c4        0x8 /home/linux/devkitPro/devkitARM/bin/../lib/gcc/arm-none-eabi/4.8.2/../../../../arm-none-eabi/lib/thumb/libstdc++.a(string-inst.o)
 .ARM.exidx.text._ZNSs6assignERKSsjj
                0x00000000020689cc        0x8 /home/linux/devkitPro/devkitARM/bin/../lib/gcc/arm-none-eabi/4.8.2/../../../../arm-none-eabi/lib/thumb/libstdc++.a(string-inst.o)
 .ARM.exidx.text._ZNSs6assignEPKc
                0x00000000020689d4        0x8 /home/linux/devkitPro/devkitARM/bin/../lib/gcc/arm-none-eabi/4.8.2/../../../../arm-none-eabi/lib/thumb/libstdc++.a(string-inst.o)
 .ARM.exidx.text._ZNSs6assignESt16initializer_listIcE
                0x00000000020689dc        0x8 /home/linux/devkitPro/devkitARM/bin/../lib/gcc/arm-none-eabi/4.8.2/../../../../arm-none-eabi/lib/thumb/libstdc++.a(string-inst.o)
 .ARM.exidx.text._ZNSsaSEPKc
                0x00000000020689e4        0x8 /home/linux/devkitPro/devkitARM/bin/../lib/gcc/arm-none-eabi/4.8.2/../../../../arm-none-eabi/lib/thumb/libstdc++.a(string-inst.o)
 .ARM.exidx.text._ZNSs6insertEjPKcj
                0x00000000020689ec        0x8 /home/linux/devkitPro/devkitARM/bin/../lib/gcc/arm-none-eabi/4.8.2/../../../../arm-none-eabi/lib/thumb/libstdc++.a(string-inst.o)
 .ARM.exidx.text._ZNSs6insertEN9__gnu_cxx17__normal_iteratorIPcSsEESt16initializer_listIcE
                0x00000000020689f4        0x8 /home/linux/devkitPro/devkitARM/bin/../lib/gcc/arm-none-eabi/4.8.2/../../../../arm-none-eabi/lib/thumb/libstdc++.a(string-inst.o)
 .ARM.exidx.text._ZNSs6insertEjRKSsjj
                0x00000000020689fc        0x8 /home/linux/devkitPro/devkitARM/bin/../lib/gcc/arm-none-eabi/4.8.2/../../../../arm-none-eabi/lib/thumb/libstdc++.a(string-inst.o)
 .ARM.exidx.text._ZNSs6insertEjPKc
                0x0000000002068a04        0x8 /home/linux/devkitPro/devkitARM/bin/../lib/gcc/arm-none-eabi/4.8.2/../../../../arm-none-eabi/lib/thumb/libstdc++.a(string-inst.o)
 .ARM.exidx.text._ZNSs6insertEjRKSs
                0x0000000002068a0c        0x8 /home/linux/devkitPro/devkitARM/bin/../lib/gcc/arm-none-eabi/4.8.2/../../../../arm-none-eabi/lib/thumb/libstdc++.a(string-inst.o)
 .ARM.exidx.text._ZNSs8pop_backEv
                0x0000000002068a14        0x8 /home/linux/devkitPro/devkitARM/bin/../lib/gcc/arm-none-eabi/4.8.2/../../../../arm-none-eabi/lib/thumb/libstdc++.a(string-inst.o)
 .ARM.exidx.text._ZNSs4_Rep10_M_refcopyEv
                0x0000000002068a1c        0x8 /home/linux/devkitPro/devkitARM/bin/../lib/gcc/arm-none-eabi/4.8.2/../../../../arm-none-eabi/lib/thumb/libstdc++.a(string-inst.o)
 .ARM.exidx.text._ZNSs4_Rep8_M_cloneERKSaIcEj
                0x0000000002068a24        0x8 /home/linux/devkitPro/devkitARM/bin/../lib/gcc/arm-none-eabi/4.8.2/../../../../arm-none-eabi/lib/thumb/libstdc++.a(string-inst.o)
 .ARM.exidx.text._ZNSs7reserveEj
                0x0000000002068a2c        0x8 /home/linux/devkitPro/devkitARM/bin/../lib/gcc/arm-none-eabi/4.8.2/../../../../arm-none-eabi/lib/thumb/libstdc++.a(string-inst.o)
 .ARM.exidx.text._ZNSs13shrink_to_fitEv
                0x0000000002068a34        0x8 /home/linux/devkitPro/devkitARM/bin/../lib/gcc/arm-none-eabi/4.8.2/../../../../arm-none-eabi/lib/thumb/libstdc++.a(string-inst.o)
 .ARM.exidx.text._ZNSs6appendERKSs
                0x0000000002068a3c        0x8 /home/linux/devkitPro/devkitARM/bin/../lib/gcc/arm-none-eabi/4.8.2/../../../../arm-none-eabi/lib/thumb/libstdc++.a(string-inst.o)
 .ARM.exidx.text._ZNSspLERKSs
                0x0000000002068a44        0x8 /home/linux/devkitPro/devkitARM/bin/../lib/gcc/arm-none-eabi/4.8.2/../../../../arm-none-eabi/lib/thumb/libstdc++.a(string-inst.o)
 .ARM.exidx.text._ZNSs6appendERKSsjj
                0x0000000002068a4c        0x8 /home/linux/devkitPro/devkitARM/bin/../lib/gcc/arm-none-eabi/4.8.2/../../../../arm-none-eabi/lib/thumb/libstdc++.a(string-inst.o)
 .ARM.exidx.text._ZNSs6appendEPKcj
                0x0000000002068a54        0x8 /home/linux/devkitPro/devkitARM/bin/../lib/gcc/arm-none-eabi/4.8.2/../../../../arm-none-eabi/lib/thumb/libstdc++.a(string-inst.o)
 .ARM.exidx.text._ZNSspLESt16initializer_listIcE
                0x0000000002068a5c        0x8 /home/linux/devkitPro/devkitARM/bin/../lib/gcc/arm-none-eabi/4.8.2/../../../../arm-none-eabi/lib/thumb/libstdc++.a(string-inst.o)
 .ARM.exidx.text._ZNSs6appendEPKc
                0x0000000002068a64        0x8 /home/linux/devkitPro/devkitARM/bin/../lib/gcc/arm-none-eabi/4.8.2/../../../../arm-none-eabi/lib/thumb/libstdc++.a(string-inst.o)
 .ARM.exidx.text._ZNSs6appendESt16initializer_listIcE
                0x0000000002068a6c        0x8 /home/linux/devkitPro/devkitARM/bin/../lib/gcc/arm-none-eabi/4.8.2/../../../../arm-none-eabi/lib/thumb/libstdc++.a(string-inst.o)
 .ARM.exidx.text._ZNSspLEPKc
                0x0000000002068a74        0x8 /home/linux/devkitPro/devkitARM/bin/../lib/gcc/arm-none-eabi/4.8.2/../../../../arm-none-eabi/lib/thumb/libstdc++.a(string-inst.o)
 .ARM.exidx.text._ZNSs6appendEjc
                0x0000000002068a7c        0x8 /home/linux/devkitPro/devkitARM/bin/../lib/gcc/arm-none-eabi/4.8.2/../../../../arm-none-eabi/lib/thumb/libstdc++.a(string-inst.o)
 .ARM.exidx.text._ZNSs6resizeEjc
                0x0000000002068a84        0x8 /home/linux/devkitPro/devkitARM/bin/../lib/gcc/arm-none-eabi/4.8.2/../../../../arm-none-eabi/lib/thumb/libstdc++.a(string-inst.o)
 .ARM.exidx.text._ZNSs6resizeEj
                0x0000000002068a8c        0x8 /home/linux/devkitPro/devkitARM/bin/../lib/gcc/arm-none-eabi/4.8.2/../../../../arm-none-eabi/lib/thumb/libstdc++.a(string-inst.o)
 .ARM.exidx.text._ZNSs9push_backEc
                0x0000000002068a94        0x8 /home/linux/devkitPro/devkitARM/bin/../lib/gcc/arm-none-eabi/4.8.2/../../../../arm-none-eabi/lib/thumb/libstdc++.a(string-inst.o)
 .ARM.exidx.text._ZNSspLEc
                0x0000000002068a9c        0x0 /home/linux/devkitPro/devkitARM/bin/../lib/gcc/arm-none-eabi/4.8.2/../../../../arm-none-eabi/lib/thumb/libstdc++.a(string-inst.o)
                                          0x8 (size before relaxing)
 .ARM.exidx.text._ZNSs4_Rep7_M_grabERKSaIcES2_
                0x0000000002068a9c        0x8 /home/linux/devkitPro/devkitARM/bin/../lib/gcc/arm-none-eabi/4.8.2/../../../../arm-none-eabi/lib/thumb/libstdc++.a(string-inst.o)
 .ARM.exidx.text._ZNSsC2ERKSs
                0x0000000002068aa4        0x8 /home/linux/devkitPro/devkitARM/bin/../lib/gcc/arm-none-eabi/4.8.2/../../../../arm-none-eabi/lib/thumb/libstdc++.a(string-inst.o)
 .ARM.exidx.text._ZNSs6assignERKSs
                0x0000000002068aac        0x8 /home/linux/devkitPro/devkitARM/bin/../lib/gcc/arm-none-eabi/4.8.2/../../../../arm-none-eabi/lib/thumb/libstdc++.a(string-inst.o)
 .ARM.exidx.text._ZNSsaSERKSs
                0x0000000002068ab4        0x8 /home/linux/devkitPro/devkitARM/bin/../lib/gcc/arm-none-eabi/4.8.2/../../../../arm-none-eabi/lib/thumb/libstdc++.a(string-inst.o)
 .ARM.exidx.text._ZStplIcSt11char_traitsIcESaIcEESbIT_T0_T1_EPKS3_RKS6_
                0x0000000002068abc        0x8 /home/linux/devkitPro/devkitARM/bin/../lib/gcc/arm-none-eabi/4.8.2/../../../../arm-none-eabi/lib/thumb/libstdc++.a(string-inst.o)
 .ARM.exidx.text._ZStplIcSt11char_traitsIcESaIcEESbIT_T0_T1_ES3_RKS6_
                0x0000000002068ac4        0x8 /home/linux/devkitPro/devkitARM/bin/../lib/gcc/arm-none-eabi/4.8.2/../../../../arm-none-eabi/lib/thumb/libstdc++.a(string-inst.o)
 .ARM.exidx.text._ZStplIcSt11char_traitsIcESaIcEESbIT_T0_T1_ERKS6_S8_
                0x0000000002068acc        0x8 /home/linux/devkitPro/devkitARM/bin/../lib/gcc/arm-none-eabi/4.8.2/../../../../arm-none-eabi/lib/thumb/libstdc++.a(string-inst.o)
 .ARM.exidx.text._ZNSs12_S_constructIN9__gnu_cxx17__normal_iteratorIPcSsEEEES2_T_S4_RKSaIcESt20forward_iterator_tag
                0x0000000002068ad4        0x8 /home/linux/devkitPro/devkitARM/bin/../lib/gcc/arm-none-eabi/4.8.2/../../../../arm-none-eabi/lib/thumb/libstdc++.a(string-inst.o)
 .ARM.exidx.text._ZNSsC2IN9__gnu_cxx17__normal_iteratorIPcSsEEEET_S4_RKSaIcE
                0x0000000002068adc        0x8 /home/linux/devkitPro/devkitARM/bin/../lib/gcc/arm-none-eabi/4.8.2/../../../../arm-none-eabi/lib/thumb/libstdc++.a(string-inst.o)
 .ARM.exidx.text._ZNSs12_S_constructIPcEES0_T_S1_RKSaIcESt20forward_iterator_tag
                0x0000000002068ae4        0x8 /home/linux/devkitPro/devkitARM/bin/../lib/gcc/arm-none-eabi/4.8.2/../../../../arm-none-eabi/lib/thumb/libstdc++.a(string-inst.o)
 .ARM.exidx.text._ZNSsC2ERKSsjj
                0x0000000002068aec        0x8 /home/linux/devkitPro/devkitARM/bin/../lib/gcc/arm-none-eabi/4.8.2/../../../../arm-none-eabi/lib/thumb/libstdc++.a(string-inst.o)
 .ARM.exidx.text._ZNKSs6substrEjj
                0x0000000002068af4        0x8 /home/linux/devkitPro/devkitARM/bin/../lib/gcc/arm-none-eabi/4.8.2/../../../../arm-none-eabi/lib/thumb/libstdc++.a(string-inst.o)
 .ARM.exidx.text._ZNSsC2ERKSsjjRKSaIcE
                0x0000000002068afc        0x8 /home/linux/devkitPro/devkitARM/bin/../lib/gcc/arm-none-eabi/4.8.2/../../../../arm-none-eabi/lib/thumb/libstdc++.a(string-inst.o)
 .ARM.exidx.text._ZNSsC2IPcEET_S1_RKSaIcE
                0x0000000002068b04        0x8 /home/linux/devkitPro/devkitARM/bin/../lib/gcc/arm-none-eabi/4.8.2/../../../../arm-none-eabi/lib/thumb/libstdc++.a(string-inst.o)
 .ARM.exidx.text._ZNSs12_S_constructIPKcEEPcT_S3_RKSaIcESt20forward_iterator_tag
                0x0000000002068b0c        0x8 /home/linux/devkitPro/devkitARM/bin/../lib/gcc/arm-none-eabi/4.8.2/../../../../arm-none-eabi/lib/thumb/libstdc++.a(string-inst.o)
 .ARM.exidx.text._ZNSsC2EPKcjRKSaIcE
                0x0000000002068b14        0x8 /home/linux/devkitPro/devkitARM/bin/../lib/gcc/arm-none-eabi/4.8.2/../../../../arm-none-eabi/lib/thumb/libstdc++.a(string-inst.o)
 .ARM.exidx.text._ZNSs7replaceEjjPKcj
                0x0000000002068b1c        0x8 /home/linux/devkitPro/devkitARM/bin/../lib/gcc/arm-none-eabi/4.8.2/../../../../arm-none-eabi/lib/thumb/libstdc++.a(string-inst.o)
 .ARM.exidx.text._ZNSs7replaceEjjRKSs
                0x0000000002068b24        0x8 /home/linux/devkitPro/devkitARM/bin/../lib/gcc/arm-none-eabi/4.8.2/../../../../arm-none-eabi/lib/thumb/libstdc++.a(string-inst.o)
 .ARM.exidx.text._ZNSs7replaceEjjRKSsjj
                0x0000000002068b2c        0x8 /home/linux/devkitPro/devkitARM/bin/../lib/gcc/arm-none-eabi/4.8.2/../../../../arm-none-eabi/lib/thumb/libstdc++.a(string-inst.o)
 .ARM.exidx.text._ZNSs7replaceEjjPKc
                0x0000000002068b34        0x8 /home/linux/devkitPro/devkitARM/bin/../lib/gcc/arm-none-eabi/4.8.2/../../../../arm-none-eabi/lib/thumb/libstdc++.a(string-inst.o)
 .ARM.exidx.text._ZNSs7replaceEN9__gnu_cxx17__normal_iteratorIPcSsEES2_PKcj
                0x0000000002068b3c        0x8 /home/linux/devkitPro/devkitARM/bin/../lib/gcc/arm-none-eabi/4.8.2/../../../../arm-none-eabi/lib/thumb/libstdc++.a(string-inst.o)
 .ARM.exidx.text._ZNSs7replaceEN9__gnu_cxx17__normal_iteratorIPcSsEES2_RKSs
                0x0000000002068b44        0x0 /home/linux/devkitPro/devkitARM/bin/../lib/gcc/arm-none-eabi/4.8.2/../../../../arm-none-eabi/lib/thumb/libstdc++.a(string-inst.o)
                                          0x8 (size before relaxing)
 .ARM.exidx.text._ZNSs7replaceEN9__gnu_cxx17__normal_iteratorIPcSsEES2_PKc
                0x0000000002068b44        0x8 /home/linux/devkitPro/devkitARM/bin/../lib/gcc/arm-none-eabi/4.8.2/../../../../arm-none-eabi/lib/thumb/libstdc++.a(string-inst.o)
 .ARM.exidx.text._ZNSs7replaceEN9__gnu_cxx17__normal_iteratorIPcSsEES2_S1_S1_
                0x0000000002068b4c        0x8 /home/linux/devkitPro/devkitARM/bin/../lib/gcc/arm-none-eabi/4.8.2/../../../../arm-none-eabi/lib/thumb/libstdc++.a(string-inst.o)
 .ARM.exidx.text._ZNSs7replaceEN9__gnu_cxx17__normal_iteratorIPcSsEES2_PKcS4_
                0x0000000002068b54        0x0 /home/linux/devkitPro/devkitARM/bin/../lib/gcc/arm-none-eabi/4.8.2/../../../../arm-none-eabi/lib/thumb/libstdc++.a(string-inst.o)
                                          0x8 (size before relaxing)
 .ARM.exidx.text._ZNSs7replaceEN9__gnu_cxx17__normal_iteratorIPcSsEES2_St16initializer_listIcE
                0x0000000002068b54        0x8 /home/linux/devkitPro/devkitARM/bin/../lib/gcc/arm-none-eabi/4.8.2/../../../../arm-none-eabi/lib/thumb/libstdc++.a(string-inst.o)
 .ARM.exidx.text._ZNSs7replaceEN9__gnu_cxx17__normal_iteratorIPcSsEES2_S2_S2_
                0x0000000002068b5c        0x8 /home/linux/devkitPro/devkitARM/bin/../lib/gcc/arm-none-eabi/4.8.2/../../../../arm-none-eabi/lib/thumb/libstdc++.a(string-inst.o)
 .ARM.exidx.text._ZNSs7replaceEN9__gnu_cxx17__normal_iteratorIPcSsEES2_NS0_IPKcSsEES5_
                0x0000000002068b64        0x0 /home/linux/devkitPro/devkitARM/bin/../lib/gcc/arm-none-eabi/4.8.2/../../../../arm-none-eabi/lib/thumb/libstdc++.a(string-inst.o)
                                          0x8 (size before relaxing)
 .ARM.exidx.text._ZNSsC2EPKcRKSaIcE
                0x0000000002068b64        0x8 /home/linux/devkitPro/devkitARM/bin/../lib/gcc/arm-none-eabi/4.8.2/../../../../arm-none-eabi/lib/thumb/libstdc++.a(string-inst.o)
 .ARM.exidx.text._ZNSsC2ESt16initializer_listIcERKSaIcE
                0x0000000002068b6c        0x8 /home/linux/devkitPro/devkitARM/bin/../lib/gcc/arm-none-eabi/4.8.2/../../../../arm-none-eabi/lib/thumb/libstdc++.a(string-inst.o)
 .ARM.exidx.text._ZNSsC2IPKcEET_S2_RKSaIcE
                0x0000000002068b74        0x8 /home/linux/devkitPro/devkitARM/bin/../lib/gcc/arm-none-eabi/4.8.2/../../../../arm-none-eabi/lib/thumb/libstdc++.a(string-inst.o)
 .ARM.exidx.text._ZN9__gnu_cxxeqIPcSsEEbRKNS_17__normal_iteratorIT_T0_EES7_
                0x0000000002068b7c        0x8 /home/linux/devkitPro/devkitARM/bin/../lib/gcc/arm-none-eabi/4.8.2/../../../../arm-none-eabi/lib/thumb/libstdc++.a(string-inst.o)
 .ARM.exidx.text._ZN9__gnu_cxxeqIPKcSsEEbRKNS_17__normal_iteratorIT_T0_EES8_
                0x0000000002068b84        0x0 /home/linux/devkitPro/devkitARM/bin/../lib/gcc/arm-none-eabi/4.8.2/../../../../arm-none-eabi/lib/thumb/libstdc++.a(string-inst.o)
                                          0x8 (size before relaxing)
 .ARM.exidx.text._ZSt21__throw_bad_exceptionv
                0x0000000002068b84        0x8 /home/linux/devkitPro/devkitARM/bin/../lib/gcc/arm-none-eabi/4.8.2/../../../../arm-none-eabi/lib/thumb/libstdc++.a(functexcept.o)
 .ARM.exidx.text._ZSt17__throw_bad_allocv
                0x0000000002068b8c        0x8 /home/linux/devkitPro/devkitARM/bin/../lib/gcc/arm-none-eabi/4.8.2/../../../../arm-none-eabi/lib/thumb/libstdc++.a(functexcept.o)
 .ARM.exidx.text._ZSt16__throw_bad_castv
                0x0000000002068b94        0x8 /home/linux/devkitPro/devkitARM/bin/../lib/gcc/arm-none-eabi/4.8.2/../../../../arm-none-eabi/lib/thumb/libstdc++.a(functexcept.o)
 .ARM.exidx.text._ZSt18__throw_bad_typeidv
                0x0000000002068b9c        0x8 /home/linux/devkitPro/devkitARM/bin/../lib/gcc/arm-none-eabi/4.8.2/../../../../arm-none-eabi/lib/thumb/libstdc++.a(functexcept.o)
 .ARM.exidx.text._ZSt19__throw_logic_errorPKc
                0x0000000002068ba4        0x8 /home/linux/devkitPro/devkitARM/bin/../lib/gcc/arm-none-eabi/4.8.2/../../../../arm-none-eabi/lib/thumb/libstdc++.a(functexcept.o)
 .ARM.exidx.text._ZSt20__throw_domain_errorPKc
                0x0000000002068bac        0x8 /home/linux/devkitPro/devkitARM/bin/../lib/gcc/arm-none-eabi/4.8.2/../../../../arm-none-eabi/lib/thumb/libstdc++.a(functexcept.o)
 .ARM.exidx.text._ZSt24__throw_invalid_argumentPKc
                0x0000000002068bb4        0x8 /home/linux/devkitPro/devkitARM/bin/../lib/gcc/arm-none-eabi/4.8.2/../../../../arm-none-eabi/lib/thumb/libstdc++.a(functexcept.o)
 .ARM.exidx.text._ZSt20__throw_length_errorPKc
                0x0000000002068bbc        0x8 /home/linux/devkitPro/devkitARM/bin/../lib/gcc/arm-none-eabi/4.8.2/../../../../arm-none-eabi/lib/thumb/libstdc++.a(functexcept.o)
 .ARM.exidx.text._ZSt20__throw_out_of_rangePKc
                0x0000000002068bc4        0x8 /home/linux/devkitPro/devkitARM/bin/../lib/gcc/arm-none-eabi/4.8.2/../../../../arm-none-eabi/lib/thumb/libstdc++.a(functexcept.o)
 .ARM.exidx.text._ZSt21__throw_runtime_errorPKc
                0x0000000002068bcc        0x8 /home/linux/devkitPro/devkitARM/bin/../lib/gcc/arm-none-eabi/4.8.2/../../../../arm-none-eabi/lib/thumb/libstdc++.a(functexcept.o)
 .ARM.exidx.text._ZSt19__throw_range_errorPKc
                0x0000000002068bd4        0x8 /home/linux/devkitPro/devkitARM/bin/../lib/gcc/arm-none-eabi/4.8.2/../../../../arm-none-eabi/lib/thumb/libstdc++.a(functexcept.o)
 .ARM.exidx.text._ZSt22__throw_overflow_errorPKc
                0x0000000002068bdc        0x8 /home/linux/devkitPro/devkitARM/bin/../lib/gcc/arm-none-eabi/4.8.2/../../../../arm-none-eabi/lib/thumb/libstdc++.a(functexcept.o)
 .ARM.exidx.text._ZSt23__throw_underflow_errorPKc
                0x0000000002068be4        0x8 /home/linux/devkitPro/devkitARM/bin/../lib/gcc/arm-none-eabi/4.8.2/../../../../arm-none-eabi/lib/thumb/libstdc++.a(functexcept.o)
 .ARM.exidx.text._ZSt19__throw_ios_failurePKc
                0x0000000002068bec        0x8 /home/linux/devkitPro/devkitARM/bin/../lib/gcc/arm-none-eabi/4.8.2/../../../../arm-none-eabi/lib/thumb/libstdc++.a(functexcept.o)
 .ARM.exidx.text._ZSt20__throw_system_errori
                0x0000000002068bf4        0x8 /home/linux/devkitPro/devkitARM/bin/../lib/gcc/arm-none-eabi/4.8.2/../../../../arm-none-eabi/lib/thumb/libstdc++.a(functexcept.o)
 .ARM.exidx.text._ZSt20__throw_future_errori
                0x0000000002068bfc        0x8 /home/linux/devkitPro/devkitARM/bin/../lib/gcc/arm-none-eabi/4.8.2/../../../../arm-none-eabi/lib/thumb/libstdc++.a(functexcept.o)
 .ARM.exidx.text._ZSt25__throw_bad_function_callv
                0x0000000002068c04        0x8 /home/linux/devkitPro/devkitARM/bin/../lib/gcc/arm-none-eabi/4.8.2/../../../../arm-none-eabi/lib/thumb/libstdc++.a(functexcept.o)
 .ARM.exidx.text._ZSt19__throw_regex_errorNSt15regex_constants10error_typeE
                0x0000000002068c0c       0x10 /home/linux/devkitPro/devkitARM/bin/../lib/gcc/arm-none-eabi/4.8.2/../../../../arm-none-eabi/lib/thumb/libstdc++.a(functexcept.o)
                                          0x8 (size before relaxing)
 .ARM.exidx.text.__cxa_type_match
                0x0000000002068c1c        0x8 /home/linux/devkitPro/devkitARM/bin/../lib/gcc/arm-none-eabi/4.8.2/../../../../arm-none-eabi/lib/thumb/libstdc++.a(eh_arm.o)
 .ARM.exidx.text.__cxa_begin_cleanup
                0x0000000002068c24        0x8 /home/linux/devkitPro/devkitARM/bin/../lib/gcc/arm-none-eabi/4.8.2/../../../../arm-none-eabi/lib/thumb/libstdc++.a(eh_arm.o)
 .ARM.exidx.text.__gnu_end_cleanup
                0x0000000002068c2c        0x0 /home/linux/devkitPro/devkitARM/bin/../lib/gcc/arm-none-eabi/4.8.2/../../../../arm-none-eabi/lib/thumb/libstdc++.a(eh_arm.o)
                                          0x8 (size before relaxing)
 .ARM.exidx.text._ZL23__gxx_exception_cleanup19_Unwind_Reason_CodeP21_Unwind_Control_Block
                0x0000000002068c2c        0x8 /home/linux/devkitPro/devkitARM/bin/../lib/gcc/arm-none-eabi/4.8.2/../../../../arm-none-eabi/lib/thumb/libstdc++.a(eh_throw.o)
 .ARM.exidx.text.__cxa_throw
                0x0000000002068c34        0x8 /home/linux/devkitPro/devkitARM/bin/../lib/gcc/arm-none-eabi/4.8.2/../../../../arm-none-eabi/lib/thumb/libstdc++.a(eh_throw.o)
 .ARM.exidx.text.__cxa_rethrow
                0x0000000002068c3c        0x8 /home/linux/devkitPro/devkitARM/bin/../lib/gcc/arm-none-eabi/4.8.2/../../../../arm-none-eabi/lib/thumb/libstdc++.a(eh_throw.o)
 .ARM.exidx.text.__cxa_pure_virtual
                0x0000000002068c44        0x8 /home/linux/devkitPro/devkitARM/bin/../lib/gcc/arm-none-eabi/4.8.2/../../../../arm-none-eabi/lib/thumb/libstdc++.a(pure.o)
 .ARM.exidx.text.__cxa_deleted_virtual
                0x0000000002068c4c        0x8 /home/linux/devkitPro/devkitARM/bin/../lib/gcc/arm-none-eabi/4.8.2/../../../../arm-none-eabi/lib/thumb/libstdc++.a(pure.o)
 .ARM.exidx.text._ZNKSt8bad_cast4whatEv
                0x0000000002068c54        0x8 /home/linux/devkitPro/devkitARM/bin/../lib/gcc/arm-none-eabi/4.8.2/../../../../arm-none-eabi/lib/thumb/libstdc++.a(bad_cast.o)
 .ARM.exidx.text._ZNSt8bad_castD2Ev
                0x0000000002068c5c        0x0 /home/linux/devkitPro/devkitARM/bin/../lib/gcc/arm-none-eabi/4.8.2/../../../../arm-none-eabi/lib/thumb/libstdc++.a(bad_cast.o)
                                          0x8 (size before relaxing)
 .ARM.exidx.text._ZNSt8bad_castD0Ev
                0x0000000002068c5c        0x0 /home/linux/devkitPro/devkitARM/bin/../lib/gcc/arm-none-eabi/4.8.2/../../../../arm-none-eabi/lib/thumb/libstdc++.a(bad_cast.o)
                                          0x8 (size before relaxing)
 .ARM.exidx.text.__cxa_get_globals_fast
                0x0000000002068c5c        0x0 /home/linux/devkitPro/devkitARM/bin/../lib/gcc/arm-none-eabi/4.8.2/../../../../arm-none-eabi/lib/thumb/libstdc++.a(eh_globals.o)
                                          0x8 (size before relaxing)
 .ARM.exidx.text.__cxa_get_globals
                0x0000000002068c5c        0x0 /home/linux/devkitPro/devkitARM/bin/../lib/gcc/arm-none-eabi/4.8.2/../../../../arm-none-eabi/lib/thumb/libstdc++.a(eh_globals.o)
                                          0x8 (size before relaxing)
 .ARM.exidx.text.__cxa_get_exception_ptr
                0x0000000002068c5c        0x0 /home/linux/devkitPro/devkitARM/bin/../lib/gcc/arm-none-eabi/4.8.2/../../../../arm-none-eabi/lib/thumb/libstdc++.a(eh_catch.o)
                                          0x8 (size before relaxing)
 .ARM.exidx.text.__cxa_begin_catch
                0x0000000002068c5c        0x8 /home/linux/devkitPro/devkitARM/bin/../lib/gcc/arm-none-eabi/4.8.2/../../../../arm-none-eabi/lib/thumb/libstdc++.a(eh_catch.o)
 .ARM.exidx.text.__cxa_end_catch
                0x0000000002068c64        0x8 /home/linux/devkitPro/devkitARM/bin/../lib/gcc/arm-none-eabi/4.8.2/../../../../arm-none-eabi/lib/thumb/libstdc++.a(eh_catch.o)
 .ARM.exidx.text._ZSt18uncaught_exceptionv
                0x0000000002068c6c        0x8 /home/linux/devkitPro/devkitARM/bin/../lib/gcc/arm-none-eabi/4.8.2/../../../../arm-none-eabi/lib/thumb/libstdc++.a(eh_catch.o)
 .ARM.exidx.text._ZN10__cxxabiv120__si_class_type_infoD2Ev
                0x0000000002068c74        0x8 /home/linux/devkitPro/devkitARM/bin/../lib/gcc/arm-none-eabi/4.8.2/../../../../arm-none-eabi/lib/thumb/libstdc++.a(si_class_type_info.o)
 .ARM.exidx.text._ZN10__cxxabiv120__si_class_type_infoD0Ev
                0x0000000002068c7c        0x0 /home/linux/devkitPro/devkitARM/bin/../lib/gcc/arm-none-eabi/4.8.2/../../../../arm-none-eabi/lib/thumb/libstdc++.a(si_class_type_info.o)
                                          0x8 (size before relaxing)
 .ARM.exidx.text._ZNK10__cxxabiv120__si_class_type_info20__do_find_public_srcEiPKvPKNS_17__class_type_infoES2_
                0x0000000002068c7c        0x8 /home/linux/devkitPro/devkitARM/bin/../lib/gcc/arm-none-eabi/4.8.2/../../../../arm-none-eabi/lib/thumb/libstdc++.a(si_class_type_info.o)
 .ARM.exidx.text._ZNK10__cxxabiv120__si_class_type_info12__do_dyncastEiNS_17__class_type_info10__sub_kindEPKS1_PKvS4_S6_RNS1_16__dyncast_resultE
                0x0000000002068c84        0x8 /home/linux/devkitPro/devkitARM/bin/../lib/gcc/arm-none-eabi/4.8.2/../../../../arm-none-eabi/lib/thumb/libstdc++.a(si_class_type_info.o)
 .ARM.exidx.text._ZNK10__cxxabiv120__si_class_type_info11__do_upcastEPKNS_17__class_type_infoEPKvRNS1_15__upcast_resultE
                0x0000000002068c8c        0x8 /home/linux/devkitPro/devkitARM/bin/../lib/gcc/arm-none-eabi/4.8.2/../../../../arm-none-eabi/lib/thumb/libstdc++.a(si_class_type_info.o)
 .ARM.exidx.text._ZNSt9type_infoD2Ev
                0x0000000002068c94        0x8 /home/linux/devkitPro/devkitARM/bin/../lib/gcc/arm-none-eabi/4.8.2/../../../../arm-none-eabi/lib/thumb/libstdc++.a(tinfo.o)
 .ARM.exidx.text._ZNKSt9type_info14__is_pointer_pEv
                0x0000000002068c9c        0x0 /home/linux/devkitPro/devkitARM/bin/../lib/gcc/arm-none-eabi/4.8.2/../../../../arm-none-eabi/lib/thumb/libstdc++.a(tinfo.o)
                                          0x8 (size before relaxing)
 .ARM.exidx.text._ZNKSt9type_info15__is_function_pEv
                0x0000000002068c9c        0x0 /home/linux/devkitPro/devkitARM/bin/../lib/gcc/arm-none-eabi/4.8.2/../../../../arm-none-eabi/lib/thumb/libstdc++.a(tinfo.o)
                                          0x8 (size before relaxing)
 .ARM.exidx.text._ZNKSt9type_info11__do_upcastEPKN10__cxxabiv117__class_type_infoEPPv
                0x0000000002068c9c        0x0 /home/linux/devkitPro/devkitARM/bin/../lib/gcc/arm-none-eabi/4.8.2/../../../../arm-none-eabi/lib/thumb/libstdc++.a(tinfo.o)
                                          0x8 (size before relaxing)
 .ARM.exidx.text._ZNSt9type_infoD0Ev
                0x0000000002068c9c        0x0 /home/linux/devkitPro/devkitARM/bin/../lib/gcc/arm-none-eabi/4.8.2/../../../../arm-none-eabi/lib/thumb/libstdc++.a(tinfo.o)
                                          0x8 (size before relaxing)
 .ARM.exidx.text._ZNKSt9type_infoeqERKS_
                0x0000000002068c9c        0x0 /home/linux/devkitPro/devkitARM/bin/../lib/gcc/arm-none-eabi/4.8.2/../../../../arm-none-eabi/lib/thumb/libstdc++.a(tinfo.o)
                                          0x8 (size before relaxing)
 .ARM.exidx.text._ZNKSt9type_info10__do_catchEPKS_PPvj
                0x0000000002068c9c        0x0 /home/linux/devkitPro/devkitARM/bin/../lib/gcc/arm-none-eabi/4.8.2/../../../../arm-none-eabi/lib/thumb/libstdc++.a(tinfo.o)
                                          0x8 (size before relaxing)
 .ARM.exidx.text._ZNKSt10bad_typeid4whatEv
                0x0000000002068c9c        0x0 /home/linux/devkitPro/devkitARM/bin/../lib/gcc/arm-none-eabi/4.8.2/../../../../arm-none-eabi/lib/thumb/libstdc++.a(bad_typeid.o)
                                          0x8 (size before relaxing)
 .ARM.exidx.text._ZNSt10bad_typeidD2Ev
                0x0000000002068c9c        0x0 /home/linux/devkitPro/devkitARM/bin/../lib/gcc/arm-none-eabi/4.8.2/../../../../arm-none-eabi/lib/thumb/libstdc++.a(bad_typeid.o)
                                          0x8 (size before relaxing)
 .ARM.exidx.text._ZNSt10bad_typeidD0Ev
                0x0000000002068c9c        0x0 /home/linux/devkitPro/devkitARM/bin/../lib/gcc/arm-none-eabi/4.8.2/../../../../arm-none-eabi/lib/thumb/libstdc++.a(bad_typeid.o)
                                          0x8 (size before relaxing)
 .ARM.exidx.text._ZNKSt8ios_base7failure4whatEv
                0x0000000002068c9c        0x0 /home/linux/devkitPro/devkitARM/bin/../lib/gcc/arm-none-eabi/4.8.2/../../../../arm-none-eabi/lib/thumb/libstdc++.a(ios_failure.o)
                                          0x8 (size before relaxing)
 .ARM.exidx.text._ZNSt8ios_base7failureD2Ev
                0x0000000002068c9c        0x0 /home/linux/devkitPro/devkitARM/bin/../lib/gcc/arm-none-eabi/4.8.2/../../../../arm-none-eabi/lib/thumb/libstdc++.a(ios_failure.o)
                                          0x8 (size before relaxing)
 .ARM.exidx.text._ZNSt8ios_base7failureD0Ev
                0x0000000002068c9c        0x0 /home/linux/devkitPro/devkitARM/bin/../lib/gcc/arm-none-eabi/4.8.2/../../../../arm-none-eabi/lib/thumb/libstdc++.a(ios_failure.o)
                                          0x8 (size before relaxing)
 .ARM.exidx.text._ZNSt8ios_base7failureC2ERKSs
                0x0000000002068c9c        0x8 /home/linux/devkitPro/devkitARM/bin/../lib/gcc/arm-none-eabi/4.8.2/../../../../arm-none-eabi/lib/thumb/libstdc++.a(ios_failure.o)
 .ARM.exidx.text._ZNKSt11logic_error4whatEv
                0x0000000002068ca4        0x8 /home/linux/devkitPro/devkitARM/bin/../lib/gcc/arm-none-eabi/4.8.2/../../../../arm-none-eabi/lib/thumb/libstdc++.a(stdexcept.o)
 .ARM.exidx.text._ZNKSt13runtime_error4whatEv
                0x0000000002068cac        0x0 /home/linux/devkitPro/devkitARM/bin/../lib/gcc/arm-none-eabi/4.8.2/../../../../arm-none-eabi/lib/thumb/libstdc++.a(stdexcept.o)
                                          0x8 (size before relaxing)
 .ARM.exidx.text._ZNSt11logic_errorD2Ev
                0x0000000002068cac        0x0 /home/linux/devkitPro/devkitARM/bin/../lib/gcc/arm-none-eabi/4.8.2/../../../../arm-none-eabi/lib/thumb/libstdc++.a(stdexcept.o)
                                          0x8 (size before relaxing)
 .ARM.exidx.text._ZNSt11logic_errorD0Ev
                0x0000000002068cac        0x0 /home/linux/devkitPro/devkitARM/bin/../lib/gcc/arm-none-eabi/4.8.2/../../../../arm-none-eabi/lib/thumb/libstdc++.a(stdexcept.o)
                                          0x8 (size before relaxing)
 .ARM.exidx.text._ZNSt12domain_errorD2Ev
                0x0000000002068cac        0x0 /home/linux/devkitPro/devkitARM/bin/../lib/gcc/arm-none-eabi/4.8.2/../../../../arm-none-eabi/lib/thumb/libstdc++.a(stdexcept.o)
                                          0x8 (size before relaxing)
 .ARM.exidx.text._ZNSt12domain_errorD0Ev
                0x0000000002068cac        0x0 /home/linux/devkitPro/devkitARM/bin/../lib/gcc/arm-none-eabi/4.8.2/../../../../arm-none-eabi/lib/thumb/libstdc++.a(stdexcept.o)
                                          0x8 (size before relaxing)
 .ARM.exidx.text._ZNSt16invalid_argumentD2Ev
                0x0000000002068cac        0x0 /home/linux/devkitPro/devkitARM/bin/../lib/gcc/arm-none-eabi/4.8.2/../../../../arm-none-eabi/lib/thumb/libstdc++.a(stdexcept.o)
                                          0x8 (size before relaxing)
 .ARM.exidx.text._ZNSt16invalid_argumentD0Ev
                0x0000000002068cac        0x0 /home/linux/devkitPro/devkitARM/bin/../lib/gcc/arm-none-eabi/4.8.2/../../../../arm-none-eabi/lib/thumb/libstdc++.a(stdexcept.o)
                                          0x8 (size before relaxing)
 .ARM.exidx.text._ZNSt12length_errorD2Ev
                0x0000000002068cac        0x0 /home/linux/devkitPro/devkitARM/bin/../lib/gcc/arm-none-eabi/4.8.2/../../../../arm-none-eabi/lib/thumb/libstdc++.a(stdexcept.o)
                                          0x8 (size before relaxing)
 .ARM.exidx.text._ZNSt12length_errorD0Ev
                0x0000000002068cac        0x0 /home/linux/devkitPro/devkitARM/bin/../lib/gcc/arm-none-eabi/4.8.2/../../../../arm-none-eabi/lib/thumb/libstdc++.a(stdexcept.o)
                                          0x8 (size before relaxing)
 .ARM.exidx.text._ZNSt12out_of_rangeD2Ev
                0x0000000002068cac        0x0 /home/linux/devkitPro/devkitARM/bin/../lib/gcc/arm-none-eabi/4.8.2/../../../../arm-none-eabi/lib/thumb/libstdc++.a(stdexcept.o)
                                          0x8 (size before relaxing)
 .ARM.exidx.text._ZNSt12out_of_rangeD0Ev
                0x0000000002068cac        0x0 /home/linux/devkitPro/devkitARM/bin/../lib/gcc/arm-none-eabi/4.8.2/../../../../arm-none-eabi/lib/thumb/libstdc++.a(stdexcept.o)
                                          0x8 (size before relaxing)
 .ARM.exidx.text._ZNSt13runtime_errorD2Ev
                0x0000000002068cac        0x0 /home/linux/devkitPro/devkitARM/bin/../lib/gcc/arm-none-eabi/4.8.2/../../../../arm-none-eabi/lib/thumb/libstdc++.a(stdexcept.o)
                                          0x8 (size before relaxing)
 .ARM.exidx.text._ZNSt13runtime_errorD0Ev
                0x0000000002068cac        0x0 /home/linux/devkitPro/devkitARM/bin/../lib/gcc/arm-none-eabi/4.8.2/../../../../arm-none-eabi/lib/thumb/libstdc++.a(stdexcept.o)
                                          0x8 (size before relaxing)
 .ARM.exidx.text._ZNSt11range_errorD2Ev
                0x0000000002068cac        0x0 /home/linux/devkitPro/devkitARM/bin/../lib/gcc/arm-none-eabi/4.8.2/../../../../arm-none-eabi/lib/thumb/libstdc++.a(stdexcept.o)
                                          0x8 (size before relaxing)
 .ARM.exidx.text._ZNSt11range_errorD0Ev
                0x0000000002068cac        0x0 /home/linux/devkitPro/devkitARM/bin/../lib/gcc/arm-none-eabi/4.8.2/../../../../arm-none-eabi/lib/thumb/libstdc++.a(stdexcept.o)
                                          0x8 (size before relaxing)
 .ARM.exidx.text._ZNSt14overflow_errorD2Ev
                0x0000000002068cac        0x0 /home/linux/devkitPro/devkitARM/bin/../lib/gcc/arm-none-eabi/4.8.2/../../../../arm-none-eabi/lib/thumb/libstdc++.a(stdexcept.o)
                                          0x8 (size before relaxing)
 .ARM.exidx.text._ZNSt14overflow_errorD0Ev
                0x0000000002068cac        0x0 /home/linux/devkitPro/devkitARM/bin/../lib/gcc/arm-none-eabi/4.8.2/../../../../arm-none-eabi/lib/thumb/libstdc++.a(stdexcept.o)
                                          0x8 (size before relaxing)
 .ARM.exidx.text._ZNSt15underflow_errorD2Ev
                0x0000000002068cac        0x0 /home/linux/devkitPro/devkitARM/bin/../lib/gcc/arm-none-eabi/4.8.2/../../../../arm-none-eabi/lib/thumb/libstdc++.a(stdexcept.o)
                                          0x8 (size before relaxing)
 .ARM.exidx.text._ZNSt15underflow_errorD0Ev
                0x0000000002068cac        0x0 /home/linux/devkitPro/devkitARM/bin/../lib/gcc/arm-none-eabi/4.8.2/../../../../arm-none-eabi/lib/thumb/libstdc++.a(stdexcept.o)
                                          0x8 (size before relaxing)
 .ARM.exidx.text._ZNSt11logic_errorC2ERKSs
                0x0000000002068cac        0x8 /home/linux/devkitPro/devkitARM/bin/../lib/gcc/arm-none-eabi/4.8.2/../../../../arm-none-eabi/lib/thumb/libstdc++.a(stdexcept.o)
 .ARM.exidx.text._ZNSt12domain_errorC2ERKSs
                0x0000000002068cb4        0x8 /home/linux/devkitPro/devkitARM/bin/../lib/gcc/arm-none-eabi/4.8.2/../../../../arm-none-eabi/lib/thumb/libstdc++.a(stdexcept.o)
 .ARM.exidx.text._ZNSt16invalid_argumentC2ERKSs
                0x0000000002068cbc        0x0 /home/linux/devkitPro/devkitARM/bin/../lib/gcc/arm-none-eabi/4.8.2/../../../../arm-none-eabi/lib/thumb/libstdc++.a(stdexcept.o)
                                          0x8 (size before relaxing)
 .ARM.exidx.text._ZNSt12length_errorC2ERKSs
                0x0000000002068cbc        0x0 /home/linux/devkitPro/devkitARM/bin/../lib/gcc/arm-none-eabi/4.8.2/../../../../arm-none-eabi/lib/thumb/libstdc++.a(stdexcept.o)
                                          0x8 (size before relaxing)
 .ARM.exidx.text._ZNSt12out_of_rangeC2ERKSs
                0x0000000002068cbc        0x0 /home/linux/devkitPro/devkitARM/bin/../lib/gcc/arm-none-eabi/4.8.2/../../../../arm-none-eabi/lib/thumb/libstdc++.a(stdexcept.o)
                                          0x8 (size before relaxing)
 .ARM.exidx.text._ZNSt13runtime_errorC2ERKSs
                0x0000000002068cbc        0x8 /home/linux/devkitPro/devkitARM/bin/../lib/gcc/arm-none-eabi/4.8.2/../../../../arm-none-eabi/lib/thumb/libstdc++.a(stdexcept.o)
 .ARM.exidx.text._ZNSt11range_errorC2ERKSs
                0x0000000002068cc4        0x8 /home/linux/devkitPro/devkitARM/bin/../lib/gcc/arm-none-eabi/4.8.2/../../../../arm-none-eabi/lib/thumb/libstdc++.a(stdexcept.o)
 .ARM.exidx.text._ZNSt14overflow_errorC2ERKSs
                0x0000000002068ccc        0x0 /home/linux/devkitPro/devkitARM/bin/../lib/gcc/arm-none-eabi/4.8.2/../../../../arm-none-eabi/lib/thumb/libstdc++.a(stdexcept.o)
                                          0x8 (size before relaxing)
 .ARM.exidx.text._ZNSt15underflow_errorC2ERKSs
                0x0000000002068ccc        0x0 /home/linux/devkitPro/devkitARM/bin/../lib/gcc/arm-none-eabi/4.8.2/../../../../arm-none-eabi/lib/thumb/libstdc++.a(stdexcept.o)
                                          0x8 (size before relaxing)
 .ARM.exidx.text._ZNKSt17bad_function_call4whatEv
                0x0000000002068ccc        0x8 /home/linux/devkitPro/devkitARM/bin/../lib/gcc/arm-none-eabi/4.8.2/../../../../arm-none-eabi/lib/thumb/libstdc++.a(functional.o)
 .ARM.exidx.text._ZNSt17bad_function_callD2Ev
                0x0000000002068cd4        0x0 /home/linux/devkitPro/devkitARM/bin/../lib/gcc/arm-none-eabi/4.8.2/../../../../arm-none-eabi/lib/thumb/libstdc++.a(functional.o)
                                          0x8 (size before relaxing)
 .ARM.exidx.text._ZNSt17bad_function_callD0Ev
                0x0000000002068cd4        0x0 /home/linux/devkitPro/devkitARM/bin/../lib/gcc/arm-none-eabi/4.8.2/../../../../arm-none-eabi/lib/thumb/libstdc++.a(functional.o)
                                          0x8 (size before relaxing)
 .ARM.exidx.text._ZNK12_GLOBAL__N_121future_error_category4nameEv
                0x0000000002068cd4        0x0 /home/linux/devkitPro/devkitARM/bin/../lib/gcc/arm-none-eabi/4.8.2/../../../../arm-none-eabi/lib/thumb/libstdc++.a(future.o)
                                          0x8 (size before relaxing)
 .ARM.exidx.text._ZN12_GLOBAL__N_121future_error_categoryD2Ev
                0x0000000002068cd4        0x0 /home/linux/devkitPro/devkitARM/bin/../lib/gcc/arm-none-eabi/4.8.2/../../../../arm-none-eabi/lib/thumb/libstdc++.a(future.o)
                                          0x8 (size before relaxing)
 .ARM.exidx.text._ZN12_GLOBAL__N_121future_error_categoryD0Ev
                0x0000000002068cd4        0x0 /home/linux/devkitPro/devkitARM/bin/../lib/gcc/arm-none-eabi/4.8.2/../../../../arm-none-eabi/lib/thumb/libstdc++.a(future.o)
                                          0x8 (size before relaxing)
 .ARM.exidx.text._ZNSt12future_errorD2Ev
                0x0000000002068cd4        0x0 /home/linux/devkitPro/devkitARM/bin/../lib/gcc/arm-none-eabi/4.8.2/../../../../arm-none-eabi/lib/thumb/libstdc++.a(future.o)
                                          0x8 (size before relaxing)
 .ARM.exidx.text._ZNSt12future_errorD0Ev
                0x0000000002068cd4        0x0 /home/linux/devkitPro/devkitARM/bin/../lib/gcc/arm-none-eabi/4.8.2/../../../../arm-none-eabi/lib/thumb/libstdc++.a(future.o)
                                          0x8 (size before relaxing)
 .ARM.exidx.text._ZNKSt12future_error4whatEv
                0x0000000002068cd4        0x8 /home/linux/devkitPro/devkitARM/bin/../lib/gcc/arm-none-eabi/4.8.2/../../../../arm-none-eabi/lib/thumb/libstdc++.a(future.o)
 .ARM.exidx.text._ZNK12_GLOBAL__N_121future_error_category7messageEi
                0x0000000002068cdc        0x8 /home/linux/devkitPro/devkitARM/bin/../lib/gcc/arm-none-eabi/4.8.2/../../../../arm-none-eabi/lib/thumb/libstdc++.a(future.o)
 .ARM.exidx.text._ZSt15future_categoryv
                0x0000000002068ce4        0x8 /home/linux/devkitPro/devkitARM/bin/../lib/gcc/arm-none-eabi/4.8.2/../../../../arm-none-eabi/lib/thumb/libstdc++.a(future.o)
 .ARM.exidx.text._ZNSt11regex_errorD2Ev
                0x0000000002068cec        0x0 /home/linux/devkitPro/devkitARM/bin/../lib/gcc/arm-none-eabi/4.8.2/../../../../arm-none-eabi/lib/thumb/libstdc++.a(regex.o)
                                          0x8 (size before relaxing)
 .ARM.exidx.text._ZNSt11regex_errorD0Ev
                0x0000000002068cec        0x0 /home/linux/devkitPro/devkitARM/bin/../lib/gcc/arm-none-eabi/4.8.2/../../../../arm-none-eabi/lib/thumb/libstdc++.a(regex.o)
                                          0x8 (size before relaxing)
 .ARM.exidx.text._ZNSt11regex_errorC2ENSt15regex_constants10error_typeE
                0x0000000002068cec        0x8 /home/linux/devkitPro/devkitARM/bin/../lib/gcc/arm-none-eabi/4.8.2/../../../../arm-none-eabi/lib/thumb/libstdc++.a(regex.o)
 .ARM.exidx.text._ZNK12_GLOBAL__N_122generic_error_category4nameEv
                0x0000000002068cf4        0x8 /home/linux/devkitPro/devkitARM/bin/../lib/gcc/arm-none-eabi/4.8.2/../../../../arm-none-eabi/lib/thumb/libstdc++.a(system_error.o)
 .ARM.exidx.text._ZNK12_GLOBAL__N_121system_error_category4nameEv
                0x0000000002068cfc        0x0 /home/linux/devkitPro/devkitARM/bin/../lib/gcc/arm-none-eabi/4.8.2/../../../../arm-none-eabi/lib/thumb/libstdc++.a(system_error.o)
                                          0x8 (size before relaxing)
 .ARM.exidx.text._ZNSt14error_categoryD2Ev
                0x0000000002068cfc        0x0 /home/linux/devkitPro/devkitARM/bin/../lib/gcc/arm-none-eabi/4.8.2/../../../../arm-none-eabi/lib/thumb/libstdc++.a(system_error.o)
                                          0x8 (size before relaxing)
 .ARM.exidx.text._ZNKSt14error_category23default_error_conditionEi
                0x0000000002068cfc        0x0 /home/linux/devkitPro/devkitARM/bin/../lib/gcc/arm-none-eabi/4.8.2/../../../../arm-none-eabi/lib/thumb/libstdc++.a(system_error.o)
                                          0x8 (size before relaxing)
 .ARM.exidx.text._ZNKSt14error_category10equivalentEiRKSt15error_condition
                0x0000000002068cfc        0x0 /home/linux/devkitPro/devkitARM/bin/../lib/gcc/arm-none-eabi/4.8.2/../../../../arm-none-eabi/lib/thumb/libstdc++.a(system_error.o)
                                          0x8 (size before relaxing)
 .ARM.exidx.text._ZNKSt14error_category10equivalentERKSt10error_codei
                0x0000000002068cfc        0x0 /home/linux/devkitPro/devkitARM/bin/../lib/gcc/arm-none-eabi/4.8.2/../../../../arm-none-eabi/lib/thumb/libstdc++.a(system_error.o)
                                          0x8 (size before relaxing)
 .ARM.exidx.text._ZN12_GLOBAL__N_121system_error_categoryD2Ev
                0x0000000002068cfc        0x0 /home/linux/devkitPro/devkitARM/bin/../lib/gcc/arm-none-eabi/4.8.2/../../../../arm-none-eabi/lib/thumb/libstdc++.a(system_error.o)
                                          0x8 (size before relaxing)
 .ARM.exidx.text._ZN12_GLOBAL__N_122generic_error_categoryD2Ev
                0x0000000002068cfc        0x0 /home/linux/devkitPro/devkitARM/bin/../lib/gcc/arm-none-eabi/4.8.2/../../../../arm-none-eabi/lib/thumb/libstdc++.a(system_error.o)
                                          0x8 (size before relaxing)
 .ARM.exidx.text._ZNSt14error_categoryD0Ev
                0x0000000002068cfc        0x0 /home/linux/devkitPro/devkitARM/bin/../lib/gcc/arm-none-eabi/4.8.2/../../../../arm-none-eabi/lib/thumb/libstdc++.a(system_error.o)
                                          0x8 (size before relaxing)
 .ARM.exidx.text._ZN12_GLOBAL__N_121system_error_categoryD0Ev
                0x0000000002068cfc        0x0 /home/linux/devkitPro/devkitARM/bin/../lib/gcc/arm-none-eabi/4.8.2/../../../../arm-none-eabi/lib/thumb/libstdc++.a(system_error.o)
                                          0x8 (size before relaxing)
 .ARM.exidx.text._ZN12_GLOBAL__N_122generic_error_categoryD0Ev
                0x0000000002068cfc        0x0 /home/linux/devkitPro/devkitARM/bin/../lib/gcc/arm-none-eabi/4.8.2/../../../../arm-none-eabi/lib/thumb/libstdc++.a(system_error.o)
                                          0x8 (size before relaxing)
 .ARM.exidx.text._ZNSt12system_errorD2Ev
                0x0000000002068cfc        0x0 /home/linux/devkitPro/devkitARM/bin/../lib/gcc/arm-none-eabi/4.8.2/../../../../arm-none-eabi/lib/thumb/libstdc++.a(system_error.o)
                                          0x8 (size before relaxing)
 .ARM.exidx.text._ZNSt12system_errorD0Ev
                0x0000000002068cfc        0x0 /home/linux/devkitPro/devkitARM/bin/../lib/gcc/arm-none-eabi/4.8.2/../../../../arm-none-eabi/lib/thumb/libstdc++.a(system_error.o)
                                          0x8 (size before relaxing)
 .ARM.exidx.text._ZNK12_GLOBAL__N_121system_error_category7messageEi
                0x0000000002068cfc        0x8 /home/linux/devkitPro/devkitARM/bin/../lib/gcc/arm-none-eabi/4.8.2/../../../../arm-none-eabi/lib/thumb/libstdc++.a(system_error.o)
 .ARM.exidx.text._ZNK12_GLOBAL__N_122generic_error_category7messageEi
                0x0000000002068d04        0x0 /home/linux/devkitPro/devkitARM/bin/../lib/gcc/arm-none-eabi/4.8.2/../../../../arm-none-eabi/lib/thumb/libstdc++.a(system_error.o)
                                          0x8 (size before relaxing)
 .ARM.exidx.text._ZNSt14error_categoryC2Ev
                0x0000000002068d04        0x8 /home/linux/devkitPro/devkitARM/bin/../lib/gcc/arm-none-eabi/4.8.2/../../../../arm-none-eabi/lib/thumb/libstdc++.a(system_error.o)
 .ARM.exidx.text._ZSt15system_categoryv
                0x0000000002068d0c        0x0 /home/linux/devkitPro/devkitARM/bin/../lib/gcc/arm-none-eabi/4.8.2/../../../../arm-none-eabi/lib/thumb/libstdc++.a(system_error.o)
                                          0x8 (size before relaxing)
 .ARM.exidx.text._ZSt16generic_categoryv
                0x0000000002068d0c        0x0 /home/linux/devkitPro/devkitARM/bin/../lib/gcc/arm-none-eabi/4.8.2/../../../../arm-none-eabi/lib/thumb/libstdc++.a(system_error.o)
                                          0x8 (size before relaxing)
 .ARM.exidx.text._ZNKSt10error_code23default_error_conditionEv
                0x0000000002068d0c        0x0 /home/linux/devkitPro/devkitARM/bin/../lib/gcc/arm-none-eabi/4.8.2/../../../../arm-none-eabi/lib/thumb/libstdc++.a(system_error.o)
                                          0x8 (size before relaxing)
 .ARM.exidx.text.startup._GLOBAL__sub_I__ZNSt14error_categoryC2Ev
                0x0000000002068d0c        0x0 /home/linux/devkitPro/devkitARM/bin/../lib/gcc/arm-none-eabi/4.8.2/../../../../arm-none-eabi/lib/thumb/libstdc++.a(system_error.o)
                                          0x8 (size before relaxing)
 .ARM.exidx.text.__cxa_guard_acquire
                0x0000000002068d0c        0x8 /home/linux/devkitPro/devkitARM/bin/../lib/gcc/arm-none-eabi/4.8.2/../../../../arm-none-eabi/lib/thumb/libstdc++.a(guard.o)
 .ARM.exidx.text.__cxa_guard_abort
                0x0000000002068d14        0x8 /home/linux/devkitPro/devkitARM/bin/../lib/gcc/arm-none-eabi/4.8.2/../../../../arm-none-eabi/lib/thumb/libstdc++.a(guard.o)
 .ARM.exidx.text.__cxa_guard_release
                0x0000000002068d1c        0x0 /home/linux/devkitPro/devkitARM/bin/../lib/gcc/arm-none-eabi/4.8.2/../../../../arm-none-eabi/lib/thumb/libstdc++.a(guard.o)
                                          0x8 (size before relaxing)
 .ARM.exidx.text._ZN9__gnu_cxx27__verbose_terminate_handlerEv
                0x0000000002068d1c        0x8 /home/linux/devkitPro/devkitARM/bin/../lib/gcc/arm-none-eabi/4.8.2/../../../../arm-none-eabi/lib/thumb/libstdc++.a(vterminate.o)
 .ARM.exidx.text._ZN9__gnu_cxx20recursive_init_errorD2Ev
                0x0000000002068d24        0x8 /home/linux/devkitPro/devkitARM/bin/../lib/gcc/arm-none-eabi/4.8.2/../../../../arm-none-eabi/lib/thumb/libstdc++.a(guard_error.o)
 .ARM.exidx.text._ZN9__gnu_cxx20recursive_init_errorD0Ev
                0x0000000002068d2c        0x0 /home/linux/devkitPro/devkitARM/bin/../lib/gcc/arm-none-eabi/4.8.2/../../../../arm-none-eabi/lib/thumb/libstdc++.a(guard_error.o)
                                          0x8 (size before relaxing)
 .ARM.exidx.text.__cxa_current_exception_type
                0x0000000002068d2c        0x0 /home/linux/devkitPro/devkitARM/bin/../lib/gcc/arm-none-eabi/4.8.2/../../../../arm-none-eabi/lib/thumb/libstdc++.a(eh_type.o)
                                          0x8 (size before relaxing)
                0x0000000002068d2c                __exidx_end = .

.rel.dyn        0x0000000002068d2c        0x0
 .rel.iplt      0x0000000000000000        0x0 /home/linux/devkitPro/devkitARM/bin/../lib/gcc/arm-none-eabi/4.8.2/../../../../arm-none-eabi/lib/thumb/ds_arm9_crt0.o
                0x0000000002068d2c                . = ALIGN (0x4)
                0x0000000002068d2c                PROVIDE (__preinit_array_start, .)

.preinit_array
 *(.preinit_array)
                0x0000000002068d2c                PROVIDE (__preinit_array_end, .)
                0x0000000002068d2c                PROVIDE (__init_array_start, .)

.init_array     0x0000000002068d2c        0xc
 *(SORT(.init_array.*))
 *(.init_array)
 .init_array    0x0000000002068d2c        0x4 /home/linux/devkitPro/devkitARM/bin/../lib/gcc/arm-none-eabi/4.8.2/thumb/crtbegin.o
 .init_array    0x0000000002068d30        0x4 MapManager.o
 .init_array    0x0000000002068d34        0x4 /home/linux/devkitPro/devkitARM/bin/../lib/gcc/arm-none-eabi/4.8.2/../../../../arm-none-eabi/lib/thumb/libstdc++.a(system_error.o)
                0x0000000002068d38                PROVIDE (__init_array_end, .)
                0x0000000002068d38                PROVIDE (__fini_array_start, .)

.fini_array     0x0000000002068d38        0x4
 *(.fini_array)
 .fini_array    0x0000000002068d38        0x4 /home/linux/devkitPro/devkitARM/bin/../lib/gcc/arm-none-eabi/4.8.2/thumb/crtbegin.o
 *(SORT(.fini_array.*))
                0x0000000002068d3c                PROVIDE (__fini_array_end, .)

.ctors          0x0000000002068d3c        0x0
 *crtbegin.o(.ctors)
 *(EXCLUDE_FILE(*crtend.o) .ctors)
 *(SORT(.ctors.*))
 *(.ctors)
                0x0000000002068d3c                . = ALIGN (0x4)

.dtors          0x0000000002068d3c        0x0
 *crtbegin.o(.dtors)
 *(EXCLUDE_FILE(*crtend.o) .dtors)
 *(SORT(.dtors.*))
 *(.dtors)
                0x0000000002068d3c                . = ALIGN (0x4)

.eh_frame       0x0000000002068d3c        0x4
 *(.eh_frame)
 .eh_frame      0x0000000002068d3c        0x0 /home/linux/devkitPro/devkitARM/bin/../lib/gcc/arm-none-eabi/4.8.2/thumb/crtbegin.o
 .eh_frame      0x0000000002068d3c        0x4 /home/linux/devkitPro/devkitARM/bin/../lib/gcc/arm-none-eabi/4.8.2/thumb/crtend.o
                0x0000000002068d40                . = ALIGN (0x4)

.gcc_except_table
                0x0000000002068d40        0x0
 *(.gcc_except_table)
                0x0000000002068d40                . = ALIGN (0x4)

.jcr            0x0000000002068d40        0x4
 *(.jcr)
 .jcr           0x0000000002068d40        0x0 /home/linux/devkitPro/devkitARM/bin/../lib/gcc/arm-none-eabi/4.8.2/thumb/crtbegin.o
 .jcr           0x0000000002068d40        0x4 /home/linux/devkitPro/devkitARM/bin/../lib/gcc/arm-none-eabi/4.8.2/thumb/crtend.o

.got
 *(.got.plt)
 *(.got)
 *(.rel.got)

.ewram          0x0000000002068d44        0x0
                0x0000000002068d44                __ewram_start = ABSOLUTE (.)
 *(.ewram)
 *ewram.*(.text)
                0x0000000002068d44                . = ALIGN (0x4)

.data           0x0000000002068d44     0x1bb8
                0x0000000002068d44                __data_start = ABSOLUTE (.)
 *(.data)
 .data          0x0000000002068d44        0x0 /home/linux/devkitPro/devkitARM/bin/../lib/gcc/arm-none-eabi/4.8.2/../../../../arm-none-eabi/lib/thumb/ds_arm9_crt0.o
 .data          0x0000000002068d44        0x0 /home/linux/devkitPro/devkitARM/bin/../lib/gcc/arm-none-eabi/4.8.2/thumb/crti.o
 .data          0x0000000002068d44        0x4 /home/linux/devkitPro/devkitARM/bin/../lib/gcc/arm-none-eabi/4.8.2/thumb/crtbegin.o
                0x0000000002068d44                __dso_handle
 .data          0x0000000002068d48        0x0 plain.o
 .data          0x0000000002068d48        0x0 underground.o
 .data          0x0000000002068d48        0x0 indoor.o
 .data          0x0000000002068d48        0x0 main.o
 .data          0x0000000002068d48        0x0 Timer.o
 .data          0x0000000002068d48        0x0 Game.o
 .data          0x0000000002068d48        0x0 Map.o
 .data          0x0000000002068d48        0x0 Sprite.o
 .data          0x0000000002068d48        0x0 Player.o
 .data          0x0000000002068d48        0x0 Character.o
 .data          0x0000000002068d48        0x0 CharacterManager.o
 .data          0x0000000002068d48        0x0 MapManager.o
 .data          0x0000000002068d48        0x0 libs5.o
 .data          0x0000000002068d48        0x0 libs5_asm.o
 .data          0x0000000002068d48        0x0 link.o
 .data          0x0000000002068d48        0x0 grass_effect.o
 .data          0x0000000002068d48        0x0 water_effect.o
 .data          0x0000000002068d48       0x70 /home/linux/devkitPro/libnds/lib/libfilesystem.a(nitrofs.o)
                0x0000000002068d4c                syspaths
                0x0000000002068d54                nitroFSdevoptab
 .data          0x0000000002068db8        0x0 /home/linux/devkitPro/libnds/lib/libfat.a(libfat.o)
 .data          0x0000000002068db8        0x0 /home/linux/devkitPro/libnds/lib/libfat.a(partition.o)
 .data          0x0000000002068db8        0x0 /home/linux/devkitPro/libnds/lib/libfat.a(cache.o)
 .data          0x0000000002068db8        0x0 /home/linux/devkitPro/libnds/lib/libfat.a(directory.o)
 .data          0x0000000002068db8        0x0 /home/linux/devkitPro/libnds/lib/libfat.a(disc.o)
 .data          0x0000000002068db8        0x0 /home/linux/devkitPro/libnds/lib/libfat.a(fatdir.o)
 .data          0x0000000002068db8        0x0 /home/linux/devkitPro/libnds/lib/libfat.a(fatfile.o)
 .data          0x0000000002068db8        0x0 /home/linux/devkitPro/libnds/lib/libfat.a(file_allocation_table.o)
 .data          0x0000000002068db8        0x0 /home/linux/devkitPro/libnds/lib/libfat.a(filetime.o)
 .data          0x0000000002068db8        0x0 /home/linux/devkitPro/libnds/lib/libfat.a(lock.o)
 .data          0x0000000002068db8       0x60 /home/linux/devkitPro/libnds/lib/libnds9.a(background.o)
                0x0000000002068db8                bgScrollTable
                0x0000000002068dd8                bgTransform
                0x0000000002068df8                bgControl
 .data          0x0000000002068e18       0x64 /home/linux/devkitPro/libnds/lib/libnds9.a(console.o)
                0x0000000002068e18                currentConsole
                0x0000000002068e1c                defaultConsole
 .data          0x0000000002068e7c        0x0 /home/linux/devkitPro/libnds/lib/libnds9.a(gurumeditation.o)
 .data          0x0000000002068e7c        0x3 /home/linux/devkitPro/libnds/lib/libnds9.a(keys.o)
 .data          0x0000000002068e7f        0x0 /home/linux/devkitPro/libnds/lib/libnds9.a(sassert.o)
 .data          0x0000000002068e7f        0x0 /home/linux/devkitPro/libnds/lib/libnds9.a(trig.o)
 *fill*         0x0000000002068e7f        0x1 ff
 .data          0x0000000002068e80        0x4 /home/linux/devkitPro/libnds/lib/libnds9.a(dldi.o)
                0x0000000002068e80                io_dldi_data
 .data          0x0000000002068e84        0x0 /home/linux/devkitPro/libnds/lib/libnds9.a(dsi_sd.o)
 .data          0x0000000002068e84        0x0 /home/linux/devkitPro/libnds/lib/libnds9.a(initSystem.o)
 .data          0x0000000002068e84        0x0 /home/linux/devkitPro/libnds/lib/libnds9.a(card.o)
 .data          0x0000000002068e84       0x10 /home/linux/devkitPro/libnds/lib/libnds9.a(fifosystem.o)
                0x0000000002068e84                fifo_buffer_free
                0x0000000002068e88                fifo_freewords
                0x0000000002068e8c                fifo_send_queue
                0x0000000002068e90                fifo_receive_queue
 .data          0x0000000002068e94        0x0 /home/linux/devkitPro/libnds/lib/libnds9.a(interrupts.o)
 .data          0x0000000002068e94        0x0 /home/linux/devkitPro/libnds/lib/libnds9.a(libnds_exit.arm.o)
 .data          0x0000000002068e94        0x0 /home/linux/devkitPro/libnds/lib/libnds9.a(dcache.o)
 .data          0x0000000002068e94        0x0 /home/linux/devkitPro/libnds/lib/libnds9.a(exceptionHandler.o)
 .data          0x0000000002068e94        0x0 /home/linux/devkitPro/libnds/lib/libnds9.a(dldi_stub.o)
 .data          0x0000000002068e94        0x0 /home/linux/devkitPro/libnds/lib/libnds9.a(mpu_setup.o)
 .data          0x0000000002068e94        0x0 /home/linux/devkitPro/libnds/lib/libnds9.a(biosCalls.o)
 .data          0x0000000002068e94        0x0 /home/linux/devkitPro/libnds/lib/libnds9.a(debugprint.o)
 .data          0x0000000002068e94        0x0 /home/linux/devkitPro/libnds/lib/libnds9.a(interruptDispatcher.o)
 .data          0x0000000002068e94        0x0 /home/linux/devkitPro/libnds/lib/libnds9.a(swiSoftReset.o)
 .data          0x0000000002068e94        0x0 /home/linux/devkitPro/libnds/lib/libnds9.a(default_font.bin.o)
 .data          0x0000000002068e94        0x0 /home/linux/devkitPro/libnds/lib/libnds9.a(exceptions.o)
 .data          0x0000000002068e94        0x0 /home/linux/devkitPro/libnds/lib/libnds9.a(system.o)
 .data          0x0000000002068e94        0x0 /home/linux/devkitPro/libnds/lib/libnds9.a(video.o)
 .data          0x0000000002068e94        0x0 /home/linux/devkitPro/devkitARM/bin/../lib/gcc/arm-none-eabi/4.8.2/../../../../arm-none-eabi/lib/thumb/libstdc++.a(new_op.o)
 .data          0x0000000002068e94        0x0 /home/linux/devkitPro/devkitARM/bin/../lib/gcc/arm-none-eabi/4.8.2/../../../../arm-none-eabi/lib/thumb/libstdc++.a(eh_call.o)
 .data          0x0000000002068e94        0x0 /home/linux/devkitPro/devkitARM/bin/../lib/gcc/arm-none-eabi/4.8.2/../../../../arm-none-eabi/lib/thumb/libstdc++.a(new_opv.o)
 .data          0x0000000002068e94        0x0 /home/linux/devkitPro/devkitARM/bin/../lib/gcc/arm-none-eabi/4.8.2/../../../../arm-none-eabi/lib/thumb/libstdc++.a(eh_personality.o)
 .data          0x0000000002068e94        0x0 /home/linux/devkitPro/devkitARM/bin/../lib/gcc/arm-none-eabi/4.8.2/../../../../arm-none-eabi/lib/thumb/libstdc++.a(del_op.o)
 .data          0x0000000002068e94        0x0 /home/linux/devkitPro/devkitARM/bin/../lib/gcc/arm-none-eabi/4.8.2/../../../../arm-none-eabi/lib/thumb/libstdc++.a(atexit_arm.o)
 .data          0x0000000002068e94        0x0 /home/linux/devkitPro/devkitARM/bin/../lib/gcc/arm-none-eabi/4.8.2/../../../../arm-none-eabi/lib/thumb/libstdc++.a(eh_terminate.o)
 .data          0x0000000002068e94        0x0 /home/linux/devkitPro/devkitARM/bin/../lib/gcc/arm-none-eabi/4.8.2/../../../../arm-none-eabi/lib/thumb/libstdc++.a(eh_exception.o)
 .data          0x0000000002068e94        0x0 /home/linux/devkitPro/devkitARM/bin/../lib/gcc/arm-none-eabi/4.8.2/../../../../arm-none-eabi/lib/thumb/libstdc++.a(eh_alloc.o)
 .data          0x0000000002068e94        0x0 /home/linux/devkitPro/devkitARM/bin/../lib/gcc/arm-none-eabi/4.8.2/../../../../arm-none-eabi/lib/thumb/libstdc++.a(bad_alloc.o)
 .data          0x0000000002068e94        0x0 /home/linux/devkitPro/devkitARM/bin/../lib/gcc/arm-none-eabi/4.8.2/../../../../arm-none-eabi/lib/thumb/libstdc++.a(del_opv.o)
 .data          0x0000000002068e94        0x0 /home/linux/devkitPro/devkitARM/bin/../lib/gcc/arm-none-eabi/4.8.2/../../../../arm-none-eabi/lib/thumb/libstdc++.a(class_type_info.o)
 .data          0x0000000002068e94        0x0 /home/linux/devkitPro/devkitARM/bin/../lib/gcc/arm-none-eabi/4.8.2/../../../../arm-none-eabi/lib/thumb/libstdc++.a(new_handler.o)
 .data          0x0000000002068e94        0x0 /home/linux/devkitPro/devkitARM/bin/../lib/gcc/arm-none-eabi/4.8.2/../../../../arm-none-eabi/lib/thumb/libstdc++.a(string-inst.o)
 .data          0x0000000002068e94        0x0 /home/linux/devkitPro/devkitARM/bin/../lib/gcc/arm-none-eabi/4.8.2/../../../../arm-none-eabi/lib/thumb/libstdc++.a(functexcept.o)
 .data          0x0000000002068e94        0x0 /home/linux/devkitPro/devkitARM/bin/../lib/gcc/arm-none-eabi/4.8.2/../../../../arm-none-eabi/lib/thumb/libstdc++.a(eh_arm.o)
 .data          0x0000000002068e94        0x0 /home/linux/devkitPro/devkitARM/bin/../lib/gcc/arm-none-eabi/4.8.2/../../../../arm-none-eabi/lib/thumb/libstdc++.a(eh_throw.o)
 .data          0x0000000002068e94        0x0 /home/linux/devkitPro/devkitARM/bin/../lib/gcc/arm-none-eabi/4.8.2/../../../../arm-none-eabi/lib/thumb/libstdc++.a(pure.o)
 .data          0x0000000002068e94        0x0 /home/linux/devkitPro/devkitARM/bin/../lib/gcc/arm-none-eabi/4.8.2/../../../../arm-none-eabi/lib/thumb/libstdc++.a(bad_cast.o)
 .data          0x0000000002068e94        0x0 /home/linux/devkitPro/devkitARM/bin/../lib/gcc/arm-none-eabi/4.8.2/../../../../arm-none-eabi/lib/thumb/libstdc++.a(eh_globals.o)
 .data          0x0000000002068e94        0x0 /home/linux/devkitPro/devkitARM/bin/../lib/gcc/arm-none-eabi/4.8.2/../../../../arm-none-eabi/lib/thumb/libstdc++.a(eh_catch.o)
 .data          0x0000000002068e94        0x0 /home/linux/devkitPro/devkitARM/bin/../lib/gcc/arm-none-eabi/4.8.2/../../../../arm-none-eabi/lib/thumb/libstdc++.a(si_class_type_info.o)
 .data          0x0000000002068e94        0x0 /home/linux/devkitPro/devkitARM/bin/../lib/gcc/arm-none-eabi/4.8.2/../../../../arm-none-eabi/lib/thumb/libstdc++.a(eh_unex_handler.o)
 .data          0x0000000002068e94        0x0 /home/linux/devkitPro/devkitARM/bin/../lib/gcc/arm-none-eabi/4.8.2/../../../../arm-none-eabi/lib/thumb/libstdc++.a(tinfo.o)
 .data          0x0000000002068e94        0x0 /home/linux/devkitPro/devkitARM/bin/../lib/gcc/arm-none-eabi/4.8.2/../../../../arm-none-eabi/lib/thumb/libstdc++.a(bad_typeid.o)
 .data          0x0000000002068e94        0x0 /home/linux/devkitPro/devkitARM/bin/../lib/gcc/arm-none-eabi/4.8.2/../../../../arm-none-eabi/lib/thumb/libstdc++.a(eh_term_handler.o)
 .data          0x0000000002068e94        0x0 /home/linux/devkitPro/devkitARM/bin/../lib/gcc/arm-none-eabi/4.8.2/../../../../arm-none-eabi/lib/thumb/libstdc++.a(ios_failure.o)
 .data          0x0000000002068e94        0x0 /home/linux/devkitPro/devkitARM/bin/../lib/gcc/arm-none-eabi/4.8.2/../../../../arm-none-eabi/lib/thumb/libstdc++.a(stdexcept.o)
 .data          0x0000000002068e94        0x0 /home/linux/devkitPro/devkitARM/bin/../lib/gcc/arm-none-eabi/4.8.2/../../../../arm-none-eabi/lib/thumb/libstdc++.a(functional.o)
 .data          0x0000000002068e94        0x0 /home/linux/devkitPro/devkitARM/bin/../lib/gcc/arm-none-eabi/4.8.2/../../../../arm-none-eabi/lib/thumb/libstdc++.a(future.o)
 .data          0x0000000002068e94        0x0 /home/linux/devkitPro/devkitARM/bin/../lib/gcc/arm-none-eabi/4.8.2/../../../../arm-none-eabi/lib/thumb/libstdc++.a(regex.o)
 .data          0x0000000002068e94        0x0 /home/linux/devkitPro/devkitARM/bin/../lib/gcc/arm-none-eabi/4.8.2/../../../../arm-none-eabi/lib/thumb/libstdc++.a(system_error.o)
 .data          0x0000000002068e94        0x0 /home/linux/devkitPro/devkitARM/bin/../lib/gcc/arm-none-eabi/4.8.2/../../../../arm-none-eabi/lib/thumb/libstdc++.a(guard.o)
 .data          0x0000000002068e94        0x0 /home/linux/devkitPro/devkitARM/bin/../lib/gcc/arm-none-eabi/4.8.2/../../../../arm-none-eabi/lib/thumb/libstdc++.a(vterminate.o)
 .data          0x0000000002068e94        0x0 /home/linux/devkitPro/devkitARM/bin/../lib/gcc/arm-none-eabi/4.8.2/../../../../arm-none-eabi/lib/thumb/libstdc++.a(guard_error.o)
 .data          0x0000000002068e94        0x0 /home/linux/devkitPro/devkitARM/bin/../lib/gcc/arm-none-eabi/4.8.2/../../../../arm-none-eabi/lib/thumb/libstdc++.a(eh_type.o)
 .data          0x0000000002068e94        0x0 /home/linux/devkitPro/devkitARM/bin/../lib/gcc/arm-none-eabi/4.8.2/../../../../arm-none-eabi/lib/thumb/libstdc++.a(cp-demangle.o)
 .data          0x0000000002068e94        0x0 /home/linux/devkitPro/devkitARM/bin/../lib/gcc/arm-none-eabi/4.8.2/../../../../arm-none-eabi/lib/thumb/libm.a(lib_a-w_sqrt.o)
 .data          0x0000000002068e94        0x0 /home/linux/devkitPro/devkitARM/bin/../lib/gcc/arm-none-eabi/4.8.2/../../../../arm-none-eabi/lib/thumb/libm.a(lib_a-e_sqrt.o)
 .data          0x0000000002068e94        0x0 /home/linux/devkitPro/devkitARM/bin/../lib/gcc/arm-none-eabi/4.8.2/../../../../arm-none-eabi/lib/thumb/libm.a(lib_a-s_fpclassify.o)
 .data          0x0000000002068e94        0x1 /home/linux/devkitPro/devkitARM/bin/../lib/gcc/arm-none-eabi/4.8.2/../../../../arm-none-eabi/lib/thumb/libm.a(lib_a-s_lib_ver.o)
                0x0000000002068e94                __fdlib_version
 .data          0x0000000002068e95        0x0 /home/linux/devkitPro/devkitARM/bin/../lib/gcc/arm-none-eabi/4.8.2/../../../../arm-none-eabi/lib/thumb/libm.a(lib_a-s_matherr.o)
 .data          0x0000000002068e95        0x0 /home/linux/devkitPro/devkitARM/bin/../lib/gcc/arm-none-eabi/4.8.2/thumb/libgcc.a(_udivsi3.o)
 .data          0x0000000002068e95        0x0 /home/linux/devkitPro/devkitARM/bin/../lib/gcc/arm-none-eabi/4.8.2/thumb/libgcc.a(_divsi3.o)
 .data          0x0000000002068e95        0x0 /home/linux/devkitPro/devkitARM/bin/../lib/gcc/arm-none-eabi/4.8.2/thumb/libgcc.a(_dvmd_tls.o)
 .data          0x0000000002068e95        0x0 /home/linux/devkitPro/devkitARM/bin/../lib/gcc/arm-none-eabi/4.8.2/thumb/libgcc.a(_arm_addsubdf3.o)
 .data          0x0000000002068e95        0x0 /home/linux/devkitPro/devkitARM/bin/../lib/gcc/arm-none-eabi/4.8.2/thumb/libgcc.a(_arm_muldivdf3.o)
 .data          0x0000000002068e95        0x0 /home/linux/devkitPro/devkitARM/bin/../lib/gcc/arm-none-eabi/4.8.2/thumb/libgcc.a(_arm_cmpdf2.o)
 .data          0x0000000002068e95        0x0 /home/linux/devkitPro/devkitARM/bin/../lib/gcc/arm-none-eabi/4.8.2/thumb/libgcc.a(_arm_fixunsdfsi.o)
 .data          0x0000000002068e95        0x0 /home/linux/devkitPro/devkitARM/bin/../lib/gcc/arm-none-eabi/4.8.2/thumb/libgcc.a(_muldi3.o)
 .data          0x0000000002068e95        0x0 /home/linux/devkitPro/devkitARM/bin/../lib/gcc/arm-none-eabi/4.8.2/thumb/libgcc.a(unwind-arm.o)
 .data          0x0000000002068e95        0x0 /home/linux/devkitPro/devkitARM/bin/../lib/gcc/arm-none-eabi/4.8.2/thumb/libgcc.a(libunwind.o)
 .data          0x0000000002068e95        0x0 /home/linux/devkitPro/devkitARM/bin/../lib/gcc/arm-none-eabi/4.8.2/thumb/libgcc.a(pr-support.o)
 .data          0x0000000002068e95        0x0 /home/linux/devkitPro/devkitARM/bin/../lib/gcc/arm-none-eabi/4.8.2/../../../../arm-none-eabi/lib/thumb/libg.a(lib_a-abort.o)
 .data          0x0000000002068e95        0x0 /home/linux/devkitPro/devkitARM/bin/../lib/gcc/arm-none-eabi/4.8.2/../../../../arm-none-eabi/lib/thumb/libg.a(lib_a-bsearch.o)
 *fill*         0x0000000002068e95        0x3 ff
 .data          0x0000000002068e98        0x4 /home/linux/devkitPro/devkitARM/bin/../lib/gcc/arm-none-eabi/4.8.2/../../../../arm-none-eabi/lib/thumb/libg.a(lib_a-ctype_.o)
                0x0000000002068e98                __ctype_ptr__
 .data          0x0000000002068e9c        0x0 /home/linux/devkitPro/devkitARM/bin/../lib/gcc/arm-none-eabi/4.8.2/../../../../arm-none-eabi/lib/thumb/libg.a(lib_a-cxa_atexit.o)
 .data          0x0000000002068e9c        0x0 /home/linux/devkitPro/devkitARM/bin/../lib/gcc/arm-none-eabi/4.8.2/../../../../arm-none-eabi/lib/thumb/libg.a(lib_a-errno.o)
 .data          0x0000000002068e9c        0x0 /home/linux/devkitPro/devkitARM/bin/../lib/gcc/arm-none-eabi/4.8.2/../../../../arm-none-eabi/lib/thumb/libg.a(lib_a-fclose.o)
 .data          0x0000000002068e9c        0x0 /home/linux/devkitPro/devkitARM/bin/../lib/gcc/arm-none-eabi/4.8.2/../../../../arm-none-eabi/lib/thumb/libg.a(lib_a-fflush.o)
 .data          0x0000000002068e9c        0x0 /home/linux/devkitPro/devkitARM/bin/../lib/gcc/arm-none-eabi/4.8.2/../../../../arm-none-eabi/lib/thumb/libg.a(lib_a-findfp.o)
 .data          0x0000000002068e9c        0x0 /home/linux/devkitPro/devkitARM/bin/../lib/gcc/arm-none-eabi/4.8.2/../../../../arm-none-eabi/lib/thumb/libg.a(lib_a-fopen.o)
 .data          0x0000000002068e9c        0x0 /home/linux/devkitPro/devkitARM/bin/../lib/gcc/arm-none-eabi/4.8.2/../../../../arm-none-eabi/lib/thumb/libg.a(lib_a-fputc.o)
 .data          0x0000000002068e9c        0x0 /home/linux/devkitPro/devkitARM/bin/../lib/gcc/arm-none-eabi/4.8.2/../../../../arm-none-eabi/lib/thumb/libg.a(lib_a-fputs.o)
 .data          0x0000000002068e9c        0x0 /home/linux/devkitPro/devkitARM/bin/../lib/gcc/arm-none-eabi/4.8.2/../../../../arm-none-eabi/lib/thumb/libg.a(lib_a-fread.o)
 .data          0x0000000002068e9c        0x0 /home/linux/devkitPro/devkitARM/bin/../lib/gcc/arm-none-eabi/4.8.2/../../../../arm-none-eabi/lib/thumb/libg.a(lib_a-freer.o)
 .data          0x0000000002068e9c        0x0 /home/linux/devkitPro/devkitARM/bin/../lib/gcc/arm-none-eabi/4.8.2/../../../../arm-none-eabi/lib/thumb/libg.a(lib_a-fseek.o)
 .data          0x0000000002068e9c        0x0 /home/linux/devkitPro/devkitARM/bin/../lib/gcc/arm-none-eabi/4.8.2/../../../../arm-none-eabi/lib/thumb/libg.a(lib_a-fseeko.o)
 .data          0x0000000002068e9c        0x0 /home/linux/devkitPro/devkitARM/bin/../lib/gcc/arm-none-eabi/4.8.2/../../../../arm-none-eabi/lib/thumb/libg.a(lib_a-fvwrite.o)
 .data          0x0000000002068e9c        0x0 /home/linux/devkitPro/devkitARM/bin/../lib/gcc/arm-none-eabi/4.8.2/../../../../arm-none-eabi/lib/thumb/libg.a(lib_a-fwalk.o)
 .data          0x0000000002068e9c        0x0 /home/linux/devkitPro/devkitARM/bin/../lib/gcc/arm-none-eabi/4.8.2/../../../../arm-none-eabi/lib/thumb/libg.a(lib_a-fwrite.o)
 *fill*         0x0000000002068e9c        0x4 ff
 .data          0x0000000002068ea0      0x430 /home/linux/devkitPro/devkitARM/bin/../lib/gcc/arm-none-eabi/4.8.2/../../../../arm-none-eabi/lib/thumb/libg.a(lib_a-impure.o)
                0x0000000002068ea0                _impure_ptr
 .data          0x00000000020692d0        0x0 /home/linux/devkitPro/devkitARM/bin/../lib/gcc/arm-none-eabi/4.8.2/../../../../arm-none-eabi/lib/thumb/libg.a(lib_a-init.o)
 .data          0x00000000020692d0        0x0 /home/linux/devkitPro/devkitARM/bin/../lib/gcc/arm-none-eabi/4.8.2/../../../../arm-none-eabi/lib/thumb/libg.a(lib_a-iprintf.o)
 .data          0x00000000020692d0        0x0 /home/linux/devkitPro/devkitARM/bin/../lib/gcc/arm-none-eabi/4.8.2/../../../../arm-none-eabi/lib/thumb/libg.a(lib_a-lcltime_r.o)
 .data          0x00000000020692d0      0x17c /home/linux/devkitPro/devkitARM/bin/../lib/gcc/arm-none-eabi/4.8.2/../../../../arm-none-eabi/lib/thumb/libg.a(lib_a-locale.o)
                0x00000000020692d0                __default_locale
                0x00000000020693f0                __mb_cur_max
 .data          0x000000000206944c        0x0 /home/linux/devkitPro/devkitARM/bin/../lib/gcc/arm-none-eabi/4.8.2/../../../../arm-none-eabi/lib/thumb/libg.a(lib_a-makebuf.o)
 .data          0x000000000206944c        0x0 /home/linux/devkitPro/devkitARM/bin/../lib/gcc/arm-none-eabi/4.8.2/../../../../arm-none-eabi/lib/thumb/libg.a(lib_a-malloc.o)
 .data          0x000000000206944c      0x410 /home/linux/devkitPro/devkitARM/bin/../lib/gcc/arm-none-eabi/4.8.2/../../../../arm-none-eabi/lib/thumb/libg.a(lib_a-mallocr.o)
                0x000000000206944c                __malloc_av_
                0x0000000002069854                __malloc_sbrk_base
                0x0000000002069858                __malloc_trim_threshold
 .data          0x000000000206985c        0x0 /home/linux/devkitPro/devkitARM/bin/../lib/gcc/arm-none-eabi/4.8.2/../../../../arm-none-eabi/lib/thumb/libg.a(lib_a-mbrtowc.o)
 .data          0x000000000206985c        0x0 /home/linux/devkitPro/devkitARM/bin/../lib/gcc/arm-none-eabi/4.8.2/../../../../arm-none-eabi/lib/thumb/libg.a(lib_a-mbsrtowcs.o)
 .data          0x000000000206985c        0x4 /home/linux/devkitPro/devkitARM/bin/../lib/gcc/arm-none-eabi/4.8.2/../../../../arm-none-eabi/lib/thumb/libg.a(lib_a-mbtowc_r.o)
                0x000000000206985c                __mbtowc
 .data          0x0000000002069860        0x0 /home/linux/devkitPro/devkitARM/bin/../lib/gcc/arm-none-eabi/4.8.2/../../../../arm-none-eabi/lib/thumb/libg.a(lib_a-memchr-stub.o)
 .data          0x0000000002069860        0x0 /home/linux/devkitPro/devkitARM/bin/../lib/gcc/arm-none-eabi/4.8.2/../../../../arm-none-eabi/lib/thumb/libg.a(lib_a-memcmp.o)
 .data          0x0000000002069860        0x0 /home/linux/devkitPro/devkitARM/bin/../lib/gcc/arm-none-eabi/4.8.2/../../../../arm-none-eabi/lib/thumb/libg.a(lib_a-memcpy-stub.o)
 .data          0x0000000002069860        0x0 /home/linux/devkitPro/devkitARM/bin/../lib/gcc/arm-none-eabi/4.8.2/../../../../arm-none-eabi/lib/thumb/libg.a(lib_a-memmove.o)
 .data          0x0000000002069860        0x0 /home/linux/devkitPro/devkitARM/bin/../lib/gcc/arm-none-eabi/4.8.2/../../../../arm-none-eabi/lib/thumb/libg.a(lib_a-memset.o)
 .data          0x0000000002069860        0x0 /home/linux/devkitPro/devkitARM/bin/../lib/gcc/arm-none-eabi/4.8.2/../../../../arm-none-eabi/lib/thumb/libg.a(lib_a-mktime.o)
 .data          0x0000000002069860        0x0 /home/linux/devkitPro/devkitARM/bin/../lib/gcc/arm-none-eabi/4.8.2/../../../../arm-none-eabi/lib/thumb/libg.a(lib_a-mktm_r.o)
 .data          0x0000000002069860        0x0 /home/linux/devkitPro/devkitARM/bin/../lib/gcc/arm-none-eabi/4.8.2/../../../../arm-none-eabi/lib/thumb/libg.a(lib_a-mlock.o)
 .data          0x0000000002069860        0x0 /home/linux/devkitPro/devkitARM/bin/../lib/gcc/arm-none-eabi/4.8.2/../../../../arm-none-eabi/lib/thumb/libg.a(lib_a-printf.o)
 .data          0x0000000002069860        0x0 /home/linux/devkitPro/devkitARM/bin/../lib/gcc/arm-none-eabi/4.8.2/../../../../arm-none-eabi/lib/thumb/libg.a(lib_a-putc.o)
 .data          0x0000000002069860        0x0 /home/linux/devkitPro/devkitARM/bin/../lib/gcc/arm-none-eabi/4.8.2/../../../../arm-none-eabi/lib/thumb/libg.a(lib_a-puts.o)
 .data          0x0000000002069860        0x0 /home/linux/devkitPro/devkitARM/bin/../lib/gcc/arm-none-eabi/4.8.2/../../../../arm-none-eabi/lib/thumb/libg.a(lib_a-realloc.o)
 .data          0x0000000002069860        0x0 /home/linux/devkitPro/devkitARM/bin/../lib/gcc/arm-none-eabi/4.8.2/../../../../arm-none-eabi/lib/thumb/libg.a(lib_a-reallocr.o)
 .data          0x0000000002069860        0x0 /home/linux/devkitPro/devkitARM/bin/../lib/gcc/arm-none-eabi/4.8.2/../../../../arm-none-eabi/lib/thumb/libg.a(lib_a-refill.o)
 .data          0x0000000002069860        0x0 /home/linux/devkitPro/devkitARM/bin/../lib/gcc/arm-none-eabi/4.8.2/../../../../arm-none-eabi/lib/thumb/libg.a(lib_a-setvbuf.o)
 .data          0x0000000002069860        0x0 /home/linux/devkitPro/devkitARM/bin/../lib/gcc/arm-none-eabi/4.8.2/../../../../arm-none-eabi/lib/thumb/libg.a(lib_a-signal.o)
 .data          0x0000000002069860        0x0 /home/linux/devkitPro/devkitARM/bin/../lib/gcc/arm-none-eabi/4.8.2/../../../../arm-none-eabi/lib/thumb/libg.a(lib_a-siscanf.o)
 .data          0x0000000002069860        0x0 /home/linux/devkitPro/devkitARM/bin/../lib/gcc/arm-none-eabi/4.8.2/../../../../arm-none-eabi/lib/thumb/libg.a(lib_a-sprintf.o)
 .data          0x0000000002069860        0x0 /home/linux/devkitPro/devkitARM/bin/../lib/gcc/arm-none-eabi/4.8.2/../../../../arm-none-eabi/lib/thumb/libg.a(lib_a-stdio.o)
 .data          0x0000000002069860        0x0 /home/linux/devkitPro/devkitARM/bin/../lib/gcc/arm-none-eabi/4.8.2/../../../../arm-none-eabi/lib/thumb/libg.a(lib_a-stpcpy.o)
 .data          0x0000000002069860        0x0 /home/linux/devkitPro/devkitARM/bin/../lib/gcc/arm-none-eabi/4.8.2/../../../../arm-none-eabi/lib/thumb/libg.a(lib_a-strcasecmp.o)
 .data          0x0000000002069860        0x0 /home/linux/devkitPro/devkitARM/bin/../lib/gcc/arm-none-eabi/4.8.2/../../../../arm-none-eabi/lib/thumb/libg.a(lib_a-strcat.o)
 .data          0x0000000002069860        0x0 /home/linux/devkitPro/devkitARM/bin/../lib/gcc/arm-none-eabi/4.8.2/../../../../arm-none-eabi/lib/thumb/libg.a(lib_a-strchr.o)
 .data          0x0000000002069860        0x0 /home/linux/devkitPro/devkitARM/bin/../lib/gcc/arm-none-eabi/4.8.2/../../../../arm-none-eabi/lib/thumb/libg.a(lib_a-strcmp.o)
 .data          0x0000000002069860        0x0 /home/linux/devkitPro/devkitARM/bin/../lib/gcc/arm-none-eabi/4.8.2/../../../../arm-none-eabi/lib/thumb/libg.a(lib_a-strcpy.o)
 .data          0x0000000002069860        0x0 /home/linux/devkitPro/devkitARM/bin/../lib/gcc/arm-none-eabi/4.8.2/../../../../arm-none-eabi/lib/thumb/libg.a(lib_a-strdup.o)
 .data          0x0000000002069860        0x0 /home/linux/devkitPro/devkitARM/bin/../lib/gcc/arm-none-eabi/4.8.2/../../../../arm-none-eabi/lib/thumb/libg.a(lib_a-strdup_r.o)
 .data          0x0000000002069860        0x0 /home/linux/devkitPro/devkitARM/bin/../lib/gcc/arm-none-eabi/4.8.2/../../../../arm-none-eabi/lib/thumb/libg.a(lib_a-strerror.o)
 .data          0x0000000002069860        0x0 /home/linux/devkitPro/devkitARM/bin/../lib/gcc/arm-none-eabi/4.8.2/../../../../arm-none-eabi/lib/thumb/libg.a(lib_a-strlcpy.o)
 .data          0x0000000002069860        0x0 /home/linux/devkitPro/devkitARM/bin/../lib/gcc/arm-none-eabi/4.8.2/../../../../arm-none-eabi/lib/thumb/libg.a(lib_a-strlen.o)
 .data          0x0000000002069860        0x0 /home/linux/devkitPro/devkitARM/bin/../lib/gcc/arm-none-eabi/4.8.2/../../../../arm-none-eabi/lib/thumb/libg.a(lib_a-strncasecmp.o)
 .data          0x0000000002069860        0x0 /home/linux/devkitPro/devkitARM/bin/../lib/gcc/arm-none-eabi/4.8.2/../../../../arm-none-eabi/lib/thumb/libg.a(lib_a-strncmp.o)
 .data          0x0000000002069860        0x0 /home/linux/devkitPro/devkitARM/bin/../lib/gcc/arm-none-eabi/4.8.2/../../../../arm-none-eabi/lib/thumb/libg.a(lib_a-strncpy.o)
 .data          0x0000000002069860        0x0 /home/linux/devkitPro/devkitARM/bin/../lib/gcc/arm-none-eabi/4.8.2/../../../../arm-none-eabi/lib/thumb/libg.a(lib_a-strnlen.o)
 .data          0x0000000002069860        0x0 /home/linux/devkitPro/devkitARM/bin/../lib/gcc/arm-none-eabi/4.8.2/../../../../arm-none-eabi/lib/thumb/libg.a(lib_a-strpbrk.o)
 .data          0x0000000002069860        0x0 /home/linux/devkitPro/devkitARM/bin/../lib/gcc/arm-none-eabi/4.8.2/../../../../arm-none-eabi/lib/thumb/libg.a(lib_a-strrchr.o)
 .data          0x0000000002069860        0x0 /home/linux/devkitPro/devkitARM/bin/../lib/gcc/arm-none-eabi/4.8.2/../../../../arm-none-eabi/lib/thumb/libg.a(lib_a-strtol.o)
 .data          0x0000000002069860        0x0 /home/linux/devkitPro/devkitARM/bin/../lib/gcc/arm-none-eabi/4.8.2/../../../../arm-none-eabi/lib/thumb/libg.a(lib_a-svfiscanf.o)
 .data          0x0000000002069860        0x0 /home/linux/devkitPro/devkitARM/bin/../lib/gcc/arm-none-eabi/4.8.2/../../../../arm-none-eabi/lib/thumb/libg.a(lib_a-svfprintf.o)
 .data          0x0000000002069860        0x0 /home/linux/devkitPro/devkitARM/bin/../lib/gcc/arm-none-eabi/4.8.2/../../../../arm-none-eabi/lib/thumb/libg.a(lib_a-sysclose.o)
 .data          0x0000000002069860        0x0 /home/linux/devkitPro/devkitARM/bin/../lib/gcc/arm-none-eabi/4.8.2/../../../../arm-none-eabi/lib/thumb/libg.a(lib_a-syslseek.o)
 .data          0x0000000002069860        0x0 /home/linux/devkitPro/devkitARM/bin/../lib/gcc/arm-none-eabi/4.8.2/../../../../arm-none-eabi/lib/thumb/libg.a(lib_a-sysopen.o)
 .data          0x0000000002069860        0x0 /home/linux/devkitPro/devkitARM/bin/../lib/gcc/arm-none-eabi/4.8.2/../../../../arm-none-eabi/lib/thumb/libg.a(lib_a-sysread.o)
 .data          0x0000000002069860        0x0 /home/linux/devkitPro/devkitARM/bin/../lib/gcc/arm-none-eabi/4.8.2/../../../../arm-none-eabi/lib/thumb/libg.a(lib_a-syswrite.o)
 .data          0x0000000002069860        0x0 /home/linux/devkitPro/devkitARM/bin/../lib/gcc/arm-none-eabi/4.8.2/../../../../arm-none-eabi/lib/thumb/libg.a(lib_a-time.o)
 .data          0x0000000002069860        0x0 /home/linux/devkitPro/devkitARM/bin/../lib/gcc/arm-none-eabi/4.8.2/../../../../arm-none-eabi/lib/thumb/libg.a(lib_a-towlower.o)
 .data          0x0000000002069860        0x0 /home/linux/devkitPro/devkitARM/bin/../lib/gcc/arm-none-eabi/4.8.2/../../../../arm-none-eabi/lib/thumb/libg.a(lib_a-towupper.o)
 .data          0x0000000002069860        0x0 /home/linux/devkitPro/devkitARM/bin/../lib/gcc/arm-none-eabi/4.8.2/../../../../arm-none-eabi/lib/thumb/libg.a(lib_a-tzlock.o)
 .data          0x0000000002069860        0x8 /home/linux/devkitPro/devkitARM/bin/../lib/gcc/arm-none-eabi/4.8.2/../../../../arm-none-eabi/lib/thumb/libg.a(lib_a-tzvars.o)
                0x0000000002069860                _tzname
 .data          0x0000000002069868        0x0 /home/linux/devkitPro/devkitARM/bin/../lib/gcc/arm-none-eabi/4.8.2/../../../../arm-none-eabi/lib/thumb/libg.a(lib_a-ungetc.o)
 .data          0x0000000002069868        0x0 /home/linux/devkitPro/devkitARM/bin/../lib/gcc/arm-none-eabi/4.8.2/../../../../arm-none-eabi/lib/thumb/libg.a(lib_a-u_strerr.o)
 .data          0x0000000002069868        0x0 /home/linux/devkitPro/devkitARM/bin/../lib/gcc/arm-none-eabi/4.8.2/../../../../arm-none-eabi/lib/thumb/libg.a(lib_a-vfiprintf.o)
 .data          0x0000000002069868        0x0 /home/linux/devkitPro/devkitARM/bin/../lib/gcc/arm-none-eabi/4.8.2/../../../../arm-none-eabi/lib/thumb/libg.a(lib_a-vfprintf.o)
 .data          0x0000000002069868        0x0 /home/linux/devkitPro/devkitARM/bin/../lib/gcc/arm-none-eabi/4.8.2/../../../../arm-none-eabi/lib/thumb/libg.a(lib_a-viprintf.o)
 .data          0x0000000002069868        0x0 /home/linux/devkitPro/devkitARM/bin/../lib/gcc/arm-none-eabi/4.8.2/../../../../arm-none-eabi/lib/thumb/libg.a(lib_a-wbuf.o)
 .data          0x0000000002069868        0x0 /home/linux/devkitPro/devkitARM/bin/../lib/gcc/arm-none-eabi/4.8.2/../../../../arm-none-eabi/lib/thumb/libg.a(lib_a-wcrtomb.o)
 .data          0x0000000002069868        0x0 /home/linux/devkitPro/devkitARM/bin/../lib/gcc/arm-none-eabi/4.8.2/../../../../arm-none-eabi/lib/thumb/libg.a(lib_a-wcsrtombs.o)
 .data          0x0000000002069868        0x0 /home/linux/devkitPro/devkitARM/bin/../lib/gcc/arm-none-eabi/4.8.2/../../../../arm-none-eabi/lib/thumb/libg.a(lib_a-wctob.o)
 .data          0x0000000002069868        0x4 /home/linux/devkitPro/devkitARM/bin/../lib/gcc/arm-none-eabi/4.8.2/../../../../arm-none-eabi/lib/thumb/libg.a(lib_a-wctomb_r.o)
                0x0000000002069868                __wctomb
 .data          0x000000000206986c        0x0 /home/linux/devkitPro/devkitARM/bin/../lib/gcc/arm-none-eabi/4.8.2/../../../../arm-none-eabi/lib/thumb/libg.a(lib_a-wsetup.o)
 .data          0x000000000206986c        0x0 /home/linux/devkitPro/devkitARM/bin/../lib/gcc/arm-none-eabi/4.8.2/../../../../arm-none-eabi/lib/thumb/libg.a(lib_a-__atexit.o)
 .data          0x000000000206986c        0x0 /home/linux/devkitPro/devkitARM/bin/../lib/gcc/arm-none-eabi/4.8.2/../../../../arm-none-eabi/lib/thumb/libg.a(lib_a-div.o)
 .data          0x000000000206986c        0x0 /home/linux/devkitPro/devkitARM/bin/../lib/gcc/arm-none-eabi/4.8.2/../../../../arm-none-eabi/lib/thumb/libg.a(lib_a-dtoa.o)
 .data          0x000000000206986c        0x0 /home/linux/devkitPro/devkitARM/bin/../lib/gcc/arm-none-eabi/4.8.2/../../../../arm-none-eabi/lib/thumb/libg.a(lib_a-flags.o)
 .data          0x000000000206986c        0x0 /home/linux/devkitPro/devkitARM/bin/../lib/gcc/arm-none-eabi/4.8.2/../../../../arm-none-eabi/lib/thumb/libg.a(lib_a-fputwc.o)
 .data          0x000000000206986c        0x0 /home/linux/devkitPro/devkitARM/bin/../lib/gcc/arm-none-eabi/4.8.2/../../../../arm-none-eabi/lib/thumb/libg.a(lib_a-getenv_r.o)
 .data          0x000000000206986c       0x40 /home/linux/devkitPro/devkitARM/bin/../lib/gcc/arm-none-eabi/4.8.2/../../../../arm-none-eabi/lib/thumb/libg.a(lib_a-gettzinfo.o)
 .data          0x00000000020698ac        0x0 /home/linux/devkitPro/devkitARM/bin/../lib/gcc/arm-none-eabi/4.8.2/../../../../arm-none-eabi/lib/thumb/libg.a(lib_a-iswspace.o)
 .data          0x00000000020698ac        0x0 /home/linux/devkitPro/devkitARM/bin/../lib/gcc/arm-none-eabi/4.8.2/../../../../arm-none-eabi/lib/thumb/libg.a(lib_a-jp2uc.o)
 .data          0x00000000020698ac        0x0 /home/linux/devkitPro/devkitARM/bin/../lib/gcc/arm-none-eabi/4.8.2/../../../../arm-none-eabi/lib/thumb/libg.a(lib_a-mbsnrtowcs.o)
 .data          0x00000000020698ac        0x0 /home/linux/devkitPro/devkitARM/bin/../lib/gcc/arm-none-eabi/4.8.2/../../../../arm-none-eabi/lib/thumb/libg.a(lib_a-mprec.o)
 .data          0x00000000020698ac        0x0 /home/linux/devkitPro/devkitARM/bin/../lib/gcc/arm-none-eabi/4.8.2/../../../../arm-none-eabi/lib/thumb/libg.a(lib_a-sccl.o)
 .data          0x00000000020698ac        0x0 /home/linux/devkitPro/devkitARM/bin/../lib/gcc/arm-none-eabi/4.8.2/../../../../arm-none-eabi/lib/thumb/libg.a(lib_a-strtoll_r.o)
 .data          0x00000000020698ac        0x0 /home/linux/devkitPro/devkitARM/bin/../lib/gcc/arm-none-eabi/4.8.2/../../../../arm-none-eabi/lib/thumb/libg.a(lib_a-strtoull_r.o)
 .data          0x00000000020698ac        0x0 /home/linux/devkitPro/devkitARM/bin/../lib/gcc/arm-none-eabi/4.8.2/../../../../arm-none-eabi/lib/thumb/libg.a(lib_a-strtoul.o)
 .data          0x00000000020698ac        0x0 /home/linux/devkitPro/devkitARM/bin/../lib/gcc/arm-none-eabi/4.8.2/../../../../arm-none-eabi/lib/thumb/libg.a(lib_a-svfiprintf.o)
 .data          0x00000000020698ac        0x0 /home/linux/devkitPro/devkitARM/bin/../lib/gcc/arm-none-eabi/4.8.2/../../../../arm-none-eabi/lib/thumb/libg.a(lib_a-wcsnrtombs.o)
 .data          0x00000000020698ac        0x0 /home/linux/devkitPro/devkitARM/bin/../lib/gcc/arm-none-eabi/4.8.2/../../../../arm-none-eabi/lib/thumb/libg.a(lib_a-callocr.o)
 .data          0x00000000020698ac        0x4 /home/linux/devkitPro/devkitARM/bin/../lib/gcc/arm-none-eabi/4.8.2/../../../../arm-none-eabi/lib/thumb/libg.a(lib_a-environ.o)
                0x00000000020698ac                environ
 .data          0x00000000020698b0        0x0 /home/linux/devkitPro/devkitARM/bin/../lib/gcc/arm-none-eabi/4.8.2/../../../../arm-none-eabi/lib/thumb/libg.a(lib_a-envlock.o)
 .data          0x00000000020698b0       0x44 /home/linux/devkitPro/devkitARM/bin/../lib/gcc/arm-none-eabi/4.8.2/../../../../arm-none-eabi/lib/thumb/libsysbase.a(iosupport.o)
                0x00000000020698b4                devoptab_list
 .data          0x00000000020698f4        0x0 /home/linux/devkitPro/devkitARM/bin/../lib/gcc/arm-none-eabi/4.8.2/../../../../arm-none-eabi/lib/thumb/libsysbase.a(close.o)
 .data          0x00000000020698f4        0x0 /home/linux/devkitPro/devkitARM/bin/../lib/gcc/arm-none-eabi/4.8.2/../../../../arm-none-eabi/lib/thumb/libsysbase.a(fstat.o)
 .data          0x00000000020698f4        0x0 /home/linux/devkitPro/devkitARM/bin/../lib/gcc/arm-none-eabi/4.8.2/../../../../arm-none-eabi/lib/thumb/libsysbase.a(getpid.o)
 .data          0x00000000020698f4        0x0 /home/linux/devkitPro/devkitARM/bin/../lib/gcc/arm-none-eabi/4.8.2/../../../../arm-none-eabi/lib/thumb/libsysbase.a(isatty.o)
 .data          0x00000000020698f4        0x0 /home/linux/devkitPro/devkitARM/bin/../lib/gcc/arm-none-eabi/4.8.2/../../../../arm-none-eabi/lib/thumb/libsysbase.a(kill.o)
 .data          0x00000000020698f4        0x0 /home/linux/devkitPro/devkitARM/bin/../lib/gcc/arm-none-eabi/4.8.2/../../../../arm-none-eabi/lib/thumb/libsysbase.a(lseek.o)
 .data          0x00000000020698f4        0x0 /home/linux/devkitPro/devkitARM/bin/../lib/gcc/arm-none-eabi/4.8.2/../../../../arm-none-eabi/lib/thumb/libsysbase.a(open.o)
 .data          0x00000000020698f4        0x0 /home/linux/devkitPro/devkitARM/bin/../lib/gcc/arm-none-eabi/4.8.2/../../../../arm-none-eabi/lib/thumb/libsysbase.a(read.o)
 .data          0x00000000020698f4        0x0 /home/linux/devkitPro/devkitARM/bin/../lib/gcc/arm-none-eabi/4.8.2/../../../../arm-none-eabi/lib/thumb/libsysbase.a(sbrk.o)
 .data          0x00000000020698f4        0x0 /home/linux/devkitPro/devkitARM/bin/../lib/gcc/arm-none-eabi/4.8.2/../../../../arm-none-eabi/lib/thumb/libsysbase.a(times.o)
 .data          0x00000000020698f4        0x0 /home/linux/devkitPro/devkitARM/bin/../lib/gcc/arm-none-eabi/4.8.2/../../../../arm-none-eabi/lib/thumb/libsysbase.a(write.o)
 .data          0x00000000020698f4        0x0 /home/linux/devkitPro/devkitARM/bin/../lib/gcc/arm-none-eabi/4.8.2/../../../../arm-none-eabi/lib/thumb/libsysbase.a(_exit.o)
 .data          0x00000000020698f4        0x0 /home/linux/devkitPro/devkitARM/bin/../lib/gcc/arm-none-eabi/4.8.2/../../../../arm-none-eabi/lib/thumb/libsysbase.a(malloc_vars.o)
 .data          0x00000000020698f4     0x1000 /home/linux/devkitPro/devkitARM/bin/../lib/gcc/arm-none-eabi/4.8.2/../../../../arm-none-eabi/lib/thumb/libsysbase.a(chdir.o)
 .data          0x000000000206a8f4        0x0 /home/linux/devkitPro/devkitARM/bin/../lib/gcc/arm-none-eabi/4.8.2/../../../../arm-none-eabi/lib/thumb/libsysbase.a(build_argv.o)
 .data          0x000000000206a8f4        0x0 /home/linux/devkitPro/devkitARM/bin/../lib/gcc/arm-none-eabi/4.8.2/../../../../arm-none-eabi/lib/thumb/libsysbase.a(syscall_support.o)
 .data          0x000000000206a8f4        0x0 /home/linux/devkitPro/devkitARM/bin/../lib/gcc/arm-none-eabi/4.8.2/../../../../arm-none-eabi/lib/thumb/libsysbase.a(handle_manager.o)
 .data          0x000000000206a8f4        0x0 /home/linux/devkitPro/devkitARM/bin/../lib/gcc/arm-none-eabi/4.8.2/thumb/libgcc.a(_arm_fixdfsi.o)
 .data          0x000000000206a8f4        0x0 /home/linux/devkitPro/devkitARM/bin/../lib/gcc/arm-none-eabi/4.8.2/thumb/libgcc.a(_aeabi_uldivmod.o)
 .data          0x000000000206a8f4        0x0 /home/linux/devkitPro/devkitARM/bin/../lib/gcc/arm-none-eabi/4.8.2/thumb/libgcc.a(bpabi.o)
 .data          0x000000000206a8f4        0x0 /home/linux/devkitPro/devkitARM/bin/../lib/gcc/arm-none-eabi/4.8.2/thumb/libgcc.a(_divdi3.o)
 .data          0x000000000206a8f4        0x0 /home/linux/devkitPro/devkitARM/bin/../lib/gcc/arm-none-eabi/4.8.2/thumb/libgcc.a(_udivdi3.o)
 .data          0x000000000206a8f4        0x0 /home/linux/devkitPro/devkitARM/bin/../lib/gcc/arm-none-eabi/4.8.2/thumb/libgcc.a(_clzsi2.o)
 .data          0x000000000206a8f4        0x0 /home/linux/devkitPro/devkitARM/bin/../lib/gcc/arm-none-eabi/4.8.2/thumb/crtend.o
 .data          0x000000000206a8f4        0x0 /home/linux/devkitPro/devkitARM/bin/../lib/gcc/arm-none-eabi/4.8.2/thumb/crtn.o
 *(.data.*)
 .data._ZN10__cxxabiv120__unexpected_handlerE
                0x000000000206a8f4        0x4 /home/linux/devkitPro/devkitARM/bin/../lib/gcc/arm-none-eabi/4.8.2/../../../../arm-none-eabi/lib/thumb/libstdc++.a(eh_unex_handler.o)
                0x000000000206a8f4                __cxxabiv1::__unexpected_handler
 .data._ZN10__cxxabiv119__terminate_handlerE
                0x000000000206a8f8        0x4 /home/linux/devkitPro/devkitARM/bin/../lib/gcc/arm-none-eabi/4.8.2/../../../../arm-none-eabi/lib/thumb/libstdc++.a(eh_term_handler.o)
                0x000000000206a8f8                __cxxabiv1::__terminate_handler
 *(.gnu.linkonce.d*)
                0x000000000206a8fc                . = ALIGN (0x4)
                0x000000000206a8fc                __data_end = ABSOLUTE (.)
                0x000000000206a8fc                __dtcm_lma = .
                0x000000000206a8fc                __bss_vma = .

.igot.plt       0x000000000206a8fc        0x0
 .igot.plt      0x0000000000000000        0x0 /home/linux/devkitPro/devkitARM/bin/../lib/gcc/arm-none-eabi/4.8.2/../../../../arm-none-eabi/lib/thumb/ds_arm9_crt0.o

.tm_clone_table
                0x000000000206a8fc        0x0
 .tm_clone_table
                0x000000000206a8fc        0x0 /home/linux/devkitPro/devkitARM/bin/../lib/gcc/arm-none-eabi/4.8.2/thumb/crtbegin.o
 .tm_clone_table
                0x000000000206a8fc        0x0 /home/linux/devkitPro/devkitARM/bin/../lib/gcc/arm-none-eabi/4.8.2/thumb/crtend.o

.dtcm           0x000000000b000000        0x0 load address 0x000000000206a8fc
 *(.dtcm)
 *(.dtcm.*)
                0x000000000b000000                . = ALIGN (0x4)
                0x000000000b000000                __dtcm_end = ABSOLUTE (.)
                0x000000000206a8fc                __itcm_lma = (__dtcm_lma + SIZEOF (.dtcm))

.itcm           0x0000000001000100      0x194 load address 0x000000000206a8fc
 *(.itcm)
 .itcm          0x0000000001000100       0xc8 /home/linux/devkitPro/libnds/lib/libnds9.a(interrupts.o)
                0x0000000001000100                irqTable
 .itcm          0x00000000010001c8       0xcc /home/linux/devkitPro/libnds/lib/libnds9.a(interruptDispatcher.o)
                0x00000000010001c8                IntrMain
 *itcm.*(.text)
                0x0000000001000294                . = ALIGN (0x4)
                0x0000000001000294                __itcm_end = ABSOLUTE (.)
                0x000000000206aa90                __vectors_lma = (__itcm_lma + SIZEOF (.itcm))

.vectors        0x0000000001000000        0x0 load address 0x000000000206aa90
 *(.vectors)
 *vectors.*(.text)
                0x0000000001000000                . = ALIGN (0x4)
                0x0000000001000000                __vectors_end = ABSOLUTE (.)

.sbss           0x000000000b000000        0x0
                0x000000000b000000                __sbss_start = ABSOLUTE (.)
                0x000000000b000000                __sbss_start__ = ABSOLUTE (.)
 *(.sbss)
                0x000000000b000000                . = ALIGN (0x4)
                0x000000000b000000                __sbss_end = ABSOLUTE (.)

.bss            0x000000000206a8fc     0x2b90
                0x000000000206a8fc                __bss_start = ABSOLUTE (.)
                0x000000000206a8fc                __bss_start__ = ABSOLUTE (.)
 *(.dynbss)
 *(.gnu.linkonce.b*)
 *(.bss*)
 .bss           0x000000000206a8fc        0x0 /home/linux/devkitPro/devkitARM/bin/../lib/gcc/arm-none-eabi/4.8.2/../../../../arm-none-eabi/lib/thumb/ds_arm9_crt0.o
 .bss           0x000000000206a8fc        0x0 /home/linux/devkitPro/devkitARM/bin/../lib/gcc/arm-none-eabi/4.8.2/thumb/crti.o
 .bss           0x000000000206a8fc       0x1c /home/linux/devkitPro/devkitARM/bin/../lib/gcc/arm-none-eabi/4.8.2/thumb/crtbegin.o
 .bss           0x000000000206a918        0x0 plain.o
 .bss           0x000000000206a918        0x0 underground.o
 .bss           0x000000000206a918        0x0 indoor.o
 .bss           0x000000000206a918        0x0 main.o
 .bss           0x000000000206a918        0x4 Timer.o
                0x000000000206a918                Timer::systemTime
 .bss           0x000000000206a91c        0x0 Game.o
 .bss           0x000000000206a91c        0x4 Map.o
                0x000000000206a91c                Map::scrollX
                0x000000000206a91e                Map::scrollY
 .bss           0x000000000206a920        0x0 Sprite.o
 .bss           0x000000000206a920        0x0 Player.o
 .bss           0x000000000206a920        0x0 Character.o
 .bss           0x000000000206a920        0x4 CharacterManager.o
                0x000000000206a920                CharacterManager::player
 .bss           0x000000000206a924       0x20 MapManager.o
                0x000000000206a924                MapManager::maps
                0x000000000206a930                MapManager::currentMap
                0x000000000206a934                MapManager::mapBg
                0x000000000206a938                MapManager::tilesets
 .bss           0x000000000206a944        0x0 libs5.o
 .bss           0x000000000206a944        0x0 libs5_asm.o
 .bss           0x000000000206a944        0x0 link.o
 .bss           0x000000000206a944        0x0 grass_effect.o
 .bss           0x000000000206a944        0x0 water_effect.o
 .bss           0x000000000206a944      0x214 /home/linux/devkitPro/libnds/lib/libfilesystem.a(nitrofs.o)
 .bss           0x000000000206ab58        0x0 /home/linux/devkitPro/libnds/lib/libfat.a(libfat.o)
 .bss           0x000000000206ab58        0x0 /home/linux/devkitPro/libnds/lib/libfat.a(partition.o)
 .bss           0x000000000206ab58        0x4 /home/linux/devkitPro/libnds/lib/libfat.a(cache.o)
 .bss           0x000000000206ab5c        0x0 /home/linux/devkitPro/libnds/lib/libfat.a(directory.o)
 .bss           0x000000000206ab5c        0x0 /home/linux/devkitPro/libnds/lib/libfat.a(disc.o)
 .bss           0x000000000206ab5c        0x0 /home/linux/devkitPro/libnds/lib/libfat.a(fatdir.o)
 .bss           0x000000000206ab5c        0x0 /home/linux/devkitPro/libnds/lib/libfat.a(fatfile.o)
 .bss           0x000000000206ab5c        0x0 /home/linux/devkitPro/libnds/lib/libfat.a(file_allocation_table.o)
 .bss           0x000000000206ab5c        0x0 /home/linux/devkitPro/libnds/lib/libfat.a(filetime.o)
 .bss           0x000000000206ab5c        0x0 /home/linux/devkitPro/libnds/lib/libfat.a(lock.o)
 .bss           0x000000000206ab5c        0x0 /home/linux/devkitPro/libnds/lib/libnds9.a(background.o)
 .bss           0x000000000206ab5c        0x0 /home/linux/devkitPro/libnds/lib/libnds9.a(console.o)
 .bss           0x000000000206ab5c        0x0 /home/linux/devkitPro/libnds/lib/libnds9.a(gurumeditation.o)
 .bss           0x000000000206ab5c        0x6 /home/linux/devkitPro/libnds/lib/libnds9.a(keys.o)
 .bss           0x000000000206ab62        0x0 /home/linux/devkitPro/libnds/lib/libnds9.a(sassert.o)
 .bss           0x000000000206ab62        0x0 /home/linux/devkitPro/libnds/lib/libnds9.a(trig.o)
 .bss           0x000000000206ab62        0x0 /home/linux/devkitPro/libnds/lib/libnds9.a(dldi.o)
 .bss           0x000000000206ab62        0x0 /home/linux/devkitPro/libnds/lib/libnds9.a(dsi_sd.o)
 .bss           0x000000000206ab62        0x0 /home/linux/devkitPro/libnds/lib/libnds9.a(initSystem.o)
 .bss           0x000000000206ab62        0x0 /home/linux/devkitPro/libnds/lib/libnds9.a(card.o)
 *fill*         0x000000000206ab62        0x2 
 .bss           0x000000000206ab64        0x8 /home/linux/devkitPro/libnds/lib/libnds9.a(fifosystem.o)
                0x000000000206ab68                processing
 .bss           0x000000000206ab6c        0x0 /home/linux/devkitPro/libnds/lib/libnds9.a(interrupts.o)
 .bss           0x000000000206ab6c        0x0 /home/linux/devkitPro/libnds/lib/libnds9.a(libnds_exit.arm.o)
 .bss           0x000000000206ab6c        0x0 /home/linux/devkitPro/libnds/lib/libnds9.a(dcache.o)
 .bss           0x000000000206ab6c        0x0 /home/linux/devkitPro/libnds/lib/libnds9.a(exceptionHandler.o)
 .bss           0x000000000206ab6c        0x0 /home/linux/devkitPro/libnds/lib/libnds9.a(dldi_stub.o)
 .bss           0x000000000206ab6c        0x0 /home/linux/devkitPro/libnds/lib/libnds9.a(mpu_setup.o)
 .bss           0x000000000206ab6c        0x0 /home/linux/devkitPro/libnds/lib/libnds9.a(biosCalls.o)
 .bss           0x000000000206ab6c        0x0 /home/linux/devkitPro/libnds/lib/libnds9.a(debugprint.o)
 .bss           0x000000000206ab6c        0x0 /home/linux/devkitPro/libnds/lib/libnds9.a(interruptDispatcher.o)
 .bss           0x000000000206ab6c        0x0 /home/linux/devkitPro/libnds/lib/libnds9.a(swiSoftReset.o)
 .bss           0x000000000206ab6c        0x0 /home/linux/devkitPro/libnds/lib/libnds9.a(default_font.bin.o)
 .bss           0x000000000206ab6c        0x0 /home/linux/devkitPro/libnds/lib/libnds9.a(exceptions.o)
 .bss           0x000000000206ab6c        0x4 /home/linux/devkitPro/libnds/lib/libnds9.a(system.o)
 .bss           0x000000000206ab70        0x0 /home/linux/devkitPro/libnds/lib/libnds9.a(video.o)
 .bss           0x000000000206ab70        0x0 /home/linux/devkitPro/devkitARM/bin/../lib/gcc/arm-none-eabi/4.8.2/../../../../arm-none-eabi/lib/thumb/libstdc++.a(new_op.o)
 .bss           0x000000000206ab70        0x0 /home/linux/devkitPro/devkitARM/bin/../lib/gcc/arm-none-eabi/4.8.2/../../../../arm-none-eabi/lib/thumb/libstdc++.a(eh_call.o)
 .bss           0x000000000206ab70        0x0 /home/linux/devkitPro/devkitARM/bin/../lib/gcc/arm-none-eabi/4.8.2/../../../../arm-none-eabi/lib/thumb/libstdc++.a(new_opv.o)
 .bss           0x000000000206ab70        0x0 /home/linux/devkitPro/devkitARM/bin/../lib/gcc/arm-none-eabi/4.8.2/../../../../arm-none-eabi/lib/thumb/libstdc++.a(eh_personality.o)
 .bss           0x000000000206ab70        0x0 /home/linux/devkitPro/devkitARM/bin/../lib/gcc/arm-none-eabi/4.8.2/../../../../arm-none-eabi/lib/thumb/libstdc++.a(del_op.o)
 .bss           0x000000000206ab70        0x0 /home/linux/devkitPro/devkitARM/bin/../lib/gcc/arm-none-eabi/4.8.2/../../../../arm-none-eabi/lib/thumb/libstdc++.a(atexit_arm.o)
 .bss           0x000000000206ab70        0x0 /home/linux/devkitPro/devkitARM/bin/../lib/gcc/arm-none-eabi/4.8.2/../../../../arm-none-eabi/lib/thumb/libstdc++.a(eh_terminate.o)
 .bss           0x000000000206ab70        0x0 /home/linux/devkitPro/devkitARM/bin/../lib/gcc/arm-none-eabi/4.8.2/../../../../arm-none-eabi/lib/thumb/libstdc++.a(eh_exception.o)
 .bss           0x000000000206ab70        0x0 /home/linux/devkitPro/devkitARM/bin/../lib/gcc/arm-none-eabi/4.8.2/../../../../arm-none-eabi/lib/thumb/libstdc++.a(eh_alloc.o)
 .bss._ZL15dependents_used
                0x000000000206ab70        0x4 /home/linux/devkitPro/devkitARM/bin/../lib/gcc/arm-none-eabi/4.8.2/../../../../arm-none-eabi/lib/thumb/libstdc++.a(eh_alloc.o)
 *fill*         0x000000000206ab74        0x4 
 .bss._ZL17dependents_buffer
                0x000000000206ab78      0x1e0 /home/linux/devkitPro/devkitARM/bin/../lib/gcc/arm-none-eabi/4.8.2/../../../../arm-none-eabi/lib/thumb/libstdc++.a(eh_alloc.o)
 .bss._ZL14emergency_used
                0x000000000206ad58        0x4 /home/linux/devkitPro/devkitARM/bin/../lib/gcc/arm-none-eabi/4.8.2/../../../../arm-none-eabi/lib/thumb/libstdc++.a(eh_alloc.o)
 *fill*         0x000000000206ad5c        0x4 
 .bss._ZL16emergency_buffer
                0x000000000206ad60      0x800 /home/linux/devkitPro/devkitARM/bin/../lib/gcc/arm-none-eabi/4.8.2/../../../../arm-none-eabi/lib/thumb/libstdc++.a(eh_alloc.o)
 .bss           0x000000000206b560        0x0 /home/linux/devkitPro/devkitARM/bin/../lib/gcc/arm-none-eabi/4.8.2/../../../../arm-none-eabi/lib/thumb/libstdc++.a(bad_alloc.o)
 .bss           0x000000000206b560        0x0 /home/linux/devkitPro/devkitARM/bin/../lib/gcc/arm-none-eabi/4.8.2/../../../../arm-none-eabi/lib/thumb/libstdc++.a(del_opv.o)
 .bss           0x000000000206b560        0x0 /home/linux/devkitPro/devkitARM/bin/../lib/gcc/arm-none-eabi/4.8.2/../../../../arm-none-eabi/lib/thumb/libstdc++.a(class_type_info.o)
 .bss           0x000000000206b560        0x0 /home/linux/devkitPro/devkitARM/bin/../lib/gcc/arm-none-eabi/4.8.2/../../../../arm-none-eabi/lib/thumb/libstdc++.a(new_handler.o)
 .bss.__new_handler
                0x000000000206b560        0x4 /home/linux/devkitPro/devkitARM/bin/../lib/gcc/arm-none-eabi/4.8.2/../../../../arm-none-eabi/lib/thumb/libstdc++.a(new_handler.o)
                0x000000000206b560                __new_handler
 .bss           0x000000000206b564        0x0 /home/linux/devkitPro/devkitARM/bin/../lib/gcc/arm-none-eabi/4.8.2/../../../../arm-none-eabi/lib/thumb/libstdc++.a(string-inst.o)
 .bss._ZNSs4_Rep20_S_empty_rep_storageE
                0x000000000206b564       0x10 /home/linux/devkitPro/devkitARM/bin/../lib/gcc/arm-none-eabi/4.8.2/../../../../arm-none-eabi/lib/thumb/libstdc++.a(string-inst.o)
                0x000000000206b564                std::string::_Rep::_S_empty_rep_storage
 .bss           0x000000000206b574        0x0 /home/linux/devkitPro/devkitARM/bin/../lib/gcc/arm-none-eabi/4.8.2/../../../../arm-none-eabi/lib/thumb/libstdc++.a(functexcept.o)
 .bss           0x000000000206b574        0x0 /home/linux/devkitPro/devkitARM/bin/../lib/gcc/arm-none-eabi/4.8.2/../../../../arm-none-eabi/lib/thumb/libstdc++.a(eh_arm.o)
 .bss           0x000000000206b574        0x0 /home/linux/devkitPro/devkitARM/bin/../lib/gcc/arm-none-eabi/4.8.2/../../../../arm-none-eabi/lib/thumb/libstdc++.a(eh_throw.o)
 .bss           0x000000000206b574        0x0 /home/linux/devkitPro/devkitARM/bin/../lib/gcc/arm-none-eabi/4.8.2/../../../../arm-none-eabi/lib/thumb/libstdc++.a(pure.o)
 .bss           0x000000000206b574        0x0 /home/linux/devkitPro/devkitARM/bin/../lib/gcc/arm-none-eabi/4.8.2/../../../../arm-none-eabi/lib/thumb/libstdc++.a(bad_cast.o)
 .bss           0x000000000206b574        0x0 /home/linux/devkitPro/devkitARM/bin/../lib/gcc/arm-none-eabi/4.8.2/../../../../arm-none-eabi/lib/thumb/libstdc++.a(eh_globals.o)
 .bss._ZL10eh_globals
                0x000000000206b574        0xc /home/linux/devkitPro/devkitARM/bin/../lib/gcc/arm-none-eabi/4.8.2/../../../../arm-none-eabi/lib/thumb/libstdc++.a(eh_globals.o)
 .bss           0x000000000206b580        0x0 /home/linux/devkitPro/devkitARM/bin/../lib/gcc/arm-none-eabi/4.8.2/../../../../arm-none-eabi/lib/thumb/libstdc++.a(eh_catch.o)
 .bss           0x000000000206b580        0x0 /home/linux/devkitPro/devkitARM/bin/../lib/gcc/arm-none-eabi/4.8.2/../../../../arm-none-eabi/lib/thumb/libstdc++.a(si_class_type_info.o)
 .bss           0x000000000206b580        0x0 /home/linux/devkitPro/devkitARM/bin/../lib/gcc/arm-none-eabi/4.8.2/../../../../arm-none-eabi/lib/thumb/libstdc++.a(eh_unex_handler.o)
 .bss           0x000000000206b580        0x0 /home/linux/devkitPro/devkitARM/bin/../lib/gcc/arm-none-eabi/4.8.2/../../../../arm-none-eabi/lib/thumb/libstdc++.a(tinfo.o)
 .bss           0x000000000206b580        0x0 /home/linux/devkitPro/devkitARM/bin/../lib/gcc/arm-none-eabi/4.8.2/../../../../arm-none-eabi/lib/thumb/libstdc++.a(bad_typeid.o)
 .bss           0x000000000206b580        0x0 /home/linux/devkitPro/devkitARM/bin/../lib/gcc/arm-none-eabi/4.8.2/../../../../arm-none-eabi/lib/thumb/libstdc++.a(eh_term_handler.o)
 .bss           0x000000000206b580        0x0 /home/linux/devkitPro/devkitARM/bin/../lib/gcc/arm-none-eabi/4.8.2/../../../../arm-none-eabi/lib/thumb/libstdc++.a(ios_failure.o)
 .bss           0x000000000206b580        0x0 /home/linux/devkitPro/devkitARM/bin/../lib/gcc/arm-none-eabi/4.8.2/../../../../arm-none-eabi/lib/thumb/libstdc++.a(stdexcept.o)
 .bss           0x000000000206b580        0x0 /home/linux/devkitPro/devkitARM/bin/../lib/gcc/arm-none-eabi/4.8.2/../../../../arm-none-eabi/lib/thumb/libstdc++.a(functional.o)
 .bss           0x000000000206b580        0x0 /home/linux/devkitPro/devkitARM/bin/../lib/gcc/arm-none-eabi/4.8.2/../../../../arm-none-eabi/lib/thumb/libstdc++.a(future.o)
 .bss._ZZN12_GLOBAL__N_126__future_category_instanceEvE5__fec
                0x000000000206b580        0x4 /home/linux/devkitPro/devkitARM/bin/../lib/gcc/arm-none-eabi/4.8.2/../../../../arm-none-eabi/lib/thumb/libstdc++.a(future.o)
 .bss._ZGVZN12_GLOBAL__N_126__future_category_instanceEvE5__fec
                0x000000000206b584        0x4 /home/linux/devkitPro/devkitARM/bin/../lib/gcc/arm-none-eabi/4.8.2/../../../../arm-none-eabi/lib/thumb/libstdc++.a(future.o)
 .bss           0x000000000206b588        0x0 /home/linux/devkitPro/devkitARM/bin/../lib/gcc/arm-none-eabi/4.8.2/../../../../arm-none-eabi/lib/thumb/libstdc++.a(regex.o)
 .bss           0x000000000206b588        0x0 /home/linux/devkitPro/devkitARM/bin/../lib/gcc/arm-none-eabi/4.8.2/../../../../arm-none-eabi/lib/thumb/libstdc++.a(system_error.o)
 .bss._ZN12_GLOBAL__N_1L24system_category_instanceE
                0x000000000206b588        0x4 /home/linux/devkitPro/devkitARM/bin/../lib/gcc/arm-none-eabi/4.8.2/../../../../arm-none-eabi/lib/thumb/libstdc++.a(system_error.o)
 .bss._ZN12_GLOBAL__N_1L25generic_category_instanceE
                0x000000000206b58c        0x4 /home/linux/devkitPro/devkitARM/bin/../lib/gcc/arm-none-eabi/4.8.2/../../../../arm-none-eabi/lib/thumb/libstdc++.a(system_error.o)
 .bss           0x000000000206b590        0x0 /home/linux/devkitPro/devkitARM/bin/../lib/gcc/arm-none-eabi/4.8.2/../../../../arm-none-eabi/lib/thumb/libstdc++.a(guard.o)
 .bss           0x000000000206b590        0x0 /home/linux/devkitPro/devkitARM/bin/../lib/gcc/arm-none-eabi/4.8.2/../../../../arm-none-eabi/lib/thumb/libstdc++.a(vterminate.o)
 .bss._ZZN9__gnu_cxx27__verbose_terminate_handlerEvE11terminating
                0x000000000206b590        0x1 /home/linux/devkitPro/devkitARM/bin/../lib/gcc/arm-none-eabi/4.8.2/../../../../arm-none-eabi/lib/thumb/libstdc++.a(vterminate.o)
 .bss           0x000000000206b591        0x0 /home/linux/devkitPro/devkitARM/bin/../lib/gcc/arm-none-eabi/4.8.2/../../../../arm-none-eabi/lib/thumb/libstdc++.a(guard_error.o)
 .bss           0x000000000206b591        0x0 /home/linux/devkitPro/devkitARM/bin/../lib/gcc/arm-none-eabi/4.8.2/../../../../arm-none-eabi/lib/thumb/libstdc++.a(eh_type.o)
 .bss           0x000000000206b591        0x0 /home/linux/devkitPro/devkitARM/bin/../lib/gcc/arm-none-eabi/4.8.2/../../../../arm-none-eabi/lib/thumb/libstdc++.a(cp-demangle.o)
 .bss           0x000000000206b591        0x0 /home/linux/devkitPro/devkitARM/bin/../lib/gcc/arm-none-eabi/4.8.2/../../../../arm-none-eabi/lib/thumb/libm.a(lib_a-w_sqrt.o)
 .bss           0x000000000206b591        0x0 /home/linux/devkitPro/devkitARM/bin/../lib/gcc/arm-none-eabi/4.8.2/../../../../arm-none-eabi/lib/thumb/libm.a(lib_a-e_sqrt.o)
 .bss           0x000000000206b591        0x0 /home/linux/devkitPro/devkitARM/bin/../lib/gcc/arm-none-eabi/4.8.2/../../../../arm-none-eabi/lib/thumb/libm.a(lib_a-s_fpclassify.o)
 .bss           0x000000000206b591        0x0 /home/linux/devkitPro/devkitARM/bin/../lib/gcc/arm-none-eabi/4.8.2/../../../../arm-none-eabi/lib/thumb/libm.a(lib_a-s_lib_ver.o)
 .bss           0x000000000206b591        0x0 /home/linux/devkitPro/devkitARM/bin/../lib/gcc/arm-none-eabi/4.8.2/../../../../arm-none-eabi/lib/thumb/libm.a(lib_a-s_matherr.o)
 .bss           0x000000000206b591        0x0 /home/linux/devkitPro/devkitARM/bin/../lib/gcc/arm-none-eabi/4.8.2/thumb/libgcc.a(_udivsi3.o)
 .bss           0x000000000206b591        0x0 /home/linux/devkitPro/devkitARM/bin/../lib/gcc/arm-none-eabi/4.8.2/thumb/libgcc.a(_divsi3.o)
 .bss           0x000000000206b591        0x0 /home/linux/devkitPro/devkitARM/bin/../lib/gcc/arm-none-eabi/4.8.2/thumb/libgcc.a(_dvmd_tls.o)
 .bss           0x000000000206b591        0x0 /home/linux/devkitPro/devkitARM/bin/../lib/gcc/arm-none-eabi/4.8.2/thumb/libgcc.a(_arm_addsubdf3.o)
 .bss           0x000000000206b591        0x0 /home/linux/devkitPro/devkitARM/bin/../lib/gcc/arm-none-eabi/4.8.2/thumb/libgcc.a(_arm_muldivdf3.o)
 .bss           0x000000000206b591        0x0 /home/linux/devkitPro/devkitARM/bin/../lib/gcc/arm-none-eabi/4.8.2/thumb/libgcc.a(_arm_cmpdf2.o)
 .bss           0x000000000206b591        0x0 /home/linux/devkitPro/devkitARM/bin/../lib/gcc/arm-none-eabi/4.8.2/thumb/libgcc.a(_arm_fixunsdfsi.o)
 .bss           0x000000000206b591        0x0 /home/linux/devkitPro/devkitARM/bin/../lib/gcc/arm-none-eabi/4.8.2/thumb/libgcc.a(_muldi3.o)
 .bss           0x000000000206b591        0x0 /home/linux/devkitPro/devkitARM/bin/../lib/gcc/arm-none-eabi/4.8.2/thumb/libgcc.a(unwind-arm.o)
 .bss           0x000000000206b591        0x0 /home/linux/devkitPro/devkitARM/bin/../lib/gcc/arm-none-eabi/4.8.2/thumb/libgcc.a(libunwind.o)
 .bss           0x000000000206b591        0x0 /home/linux/devkitPro/devkitARM/bin/../lib/gcc/arm-none-eabi/4.8.2/thumb/libgcc.a(pr-support.o)
 .bss           0x000000000206b591        0x0 /home/linux/devkitPro/devkitARM/bin/../lib/gcc/arm-none-eabi/4.8.2/../../../../arm-none-eabi/lib/thumb/libg.a(lib_a-abort.o)
 .bss           0x000000000206b591        0x0 /home/linux/devkitPro/devkitARM/bin/../lib/gcc/arm-none-eabi/4.8.2/../../../../arm-none-eabi/lib/thumb/libg.a(lib_a-bsearch.o)
 .bss           0x000000000206b591        0x0 /home/linux/devkitPro/devkitARM/bin/../lib/gcc/arm-none-eabi/4.8.2/../../../../arm-none-eabi/lib/thumb/libg.a(lib_a-ctype_.o)
 .bss           0x000000000206b591        0x0 /home/linux/devkitPro/devkitARM/bin/../lib/gcc/arm-none-eabi/4.8.2/../../../../arm-none-eabi/lib/thumb/libg.a(lib_a-cxa_atexit.o)
 .bss           0x000000000206b591        0x0 /home/linux/devkitPro/devkitARM/bin/../lib/gcc/arm-none-eabi/4.8.2/../../../../arm-none-eabi/lib/thumb/libg.a(lib_a-errno.o)
 .bss           0x000000000206b591        0x0 /home/linux/devkitPro/devkitARM/bin/../lib/gcc/arm-none-eabi/4.8.2/../../../../arm-none-eabi/lib/thumb/libg.a(lib_a-fclose.o)
 .bss           0x000000000206b591        0x0 /home/linux/devkitPro/devkitARM/bin/../lib/gcc/arm-none-eabi/4.8.2/../../../../arm-none-eabi/lib/thumb/libg.a(lib_a-fflush.o)
 .bss           0x000000000206b591        0x0 /home/linux/devkitPro/devkitARM/bin/../lib/gcc/arm-none-eabi/4.8.2/../../../../arm-none-eabi/lib/thumb/libg.a(lib_a-findfp.o)
 .bss           0x000000000206b591        0x0 /home/linux/devkitPro/devkitARM/bin/../lib/gcc/arm-none-eabi/4.8.2/../../../../arm-none-eabi/lib/thumb/libg.a(lib_a-fopen.o)
 .bss           0x000000000206b591        0x0 /home/linux/devkitPro/devkitARM/bin/../lib/gcc/arm-none-eabi/4.8.2/../../../../arm-none-eabi/lib/thumb/libg.a(lib_a-fputc.o)
 .bss           0x000000000206b591        0x0 /home/linux/devkitPro/devkitARM/bin/../lib/gcc/arm-none-eabi/4.8.2/../../../../arm-none-eabi/lib/thumb/libg.a(lib_a-fputs.o)
 .bss           0x000000000206b591        0x0 /home/linux/devkitPro/devkitARM/bin/../lib/gcc/arm-none-eabi/4.8.2/../../../../arm-none-eabi/lib/thumb/libg.a(lib_a-fread.o)
 .bss           0x000000000206b591        0x0 /home/linux/devkitPro/devkitARM/bin/../lib/gcc/arm-none-eabi/4.8.2/../../../../arm-none-eabi/lib/thumb/libg.a(lib_a-freer.o)
 .bss           0x000000000206b591        0x0 /home/linux/devkitPro/devkitARM/bin/../lib/gcc/arm-none-eabi/4.8.2/../../../../arm-none-eabi/lib/thumb/libg.a(lib_a-fseek.o)
 .bss           0x000000000206b591        0x0 /home/linux/devkitPro/devkitARM/bin/../lib/gcc/arm-none-eabi/4.8.2/../../../../arm-none-eabi/lib/thumb/libg.a(lib_a-fseeko.o)
 .bss           0x000000000206b591        0x0 /home/linux/devkitPro/devkitARM/bin/../lib/gcc/arm-none-eabi/4.8.2/../../../../arm-none-eabi/lib/thumb/libg.a(lib_a-fvwrite.o)
 .bss           0x000000000206b591        0x0 /home/linux/devkitPro/devkitARM/bin/../lib/gcc/arm-none-eabi/4.8.2/../../../../arm-none-eabi/lib/thumb/libg.a(lib_a-fwalk.o)
 .bss           0x000000000206b591        0x0 /home/linux/devkitPro/devkitARM/bin/../lib/gcc/arm-none-eabi/4.8.2/../../../../arm-none-eabi/lib/thumb/libg.a(lib_a-fwrite.o)
 .bss           0x000000000206b591        0x0 /home/linux/devkitPro/devkitARM/bin/../lib/gcc/arm-none-eabi/4.8.2/../../../../arm-none-eabi/lib/thumb/libg.a(lib_a-impure.o)
 .bss           0x000000000206b591        0x0 /home/linux/devkitPro/devkitARM/bin/../lib/gcc/arm-none-eabi/4.8.2/../../../../arm-none-eabi/lib/thumb/libg.a(lib_a-init.o)
 .bss           0x000000000206b591        0x0 /home/linux/devkitPro/devkitARM/bin/../lib/gcc/arm-none-eabi/4.8.2/../../../../arm-none-eabi/lib/thumb/libg.a(lib_a-iprintf.o)
 .bss           0x000000000206b591        0x0 /home/linux/devkitPro/devkitARM/bin/../lib/gcc/arm-none-eabi/4.8.2/../../../../arm-none-eabi/lib/thumb/libg.a(lib_a-lcltime_r.o)
 *fill*         0x000000000206b591        0x3 
 .bss           0x000000000206b594      0x2b8 /home/linux/devkitPro/devkitARM/bin/../lib/gcc/arm-none-eabi/4.8.2/../../../../arm-none-eabi/lib/thumb/libg.a(lib_a-locale.o)
                0x000000000206b840                _PathLocale
                0x000000000206b844                __mlocale_changed
                0x000000000206b848                __nlocale_changed
 .bss           0x000000000206b84c        0x0 /home/linux/devkitPro/devkitARM/bin/../lib/gcc/arm-none-eabi/4.8.2/../../../../arm-none-eabi/lib/thumb/libg.a(lib_a-makebuf.o)
 .bss           0x000000000206b84c        0x0 /home/linux/devkitPro/devkitARM/bin/../lib/gcc/arm-none-eabi/4.8.2/../../../../arm-none-eabi/lib/thumb/libg.a(lib_a-malloc.o)
 .bss           0x000000000206b84c       0x34 /home/linux/devkitPro/devkitARM/bin/../lib/gcc/arm-none-eabi/4.8.2/../../../../arm-none-eabi/lib/thumb/libg.a(lib_a-mallocr.o)
                0x000000000206b84c                __malloc_top_pad
                0x000000000206b850                __malloc_current_mallinfo
                0x000000000206b878                __malloc_max_sbrked_mem
                0x000000000206b87c                __malloc_max_total_mem
 .bss           0x000000000206b880        0x0 /home/linux/devkitPro/devkitARM/bin/../lib/gcc/arm-none-eabi/4.8.2/../../../../arm-none-eabi/lib/thumb/libg.a(lib_a-mbrtowc.o)
 .bss           0x000000000206b880        0x0 /home/linux/devkitPro/devkitARM/bin/../lib/gcc/arm-none-eabi/4.8.2/../../../../arm-none-eabi/lib/thumb/libg.a(lib_a-mbsrtowcs.o)
 .bss           0x000000000206b880        0x0 /home/linux/devkitPro/devkitARM/bin/../lib/gcc/arm-none-eabi/4.8.2/../../../../arm-none-eabi/lib/thumb/libg.a(lib_a-mbtowc_r.o)
 .bss           0x000000000206b880        0x0 /home/linux/devkitPro/devkitARM/bin/../lib/gcc/arm-none-eabi/4.8.2/../../../../arm-none-eabi/lib/thumb/libg.a(lib_a-memchr-stub.o)
 .bss           0x000000000206b880        0x0 /home/linux/devkitPro/devkitARM/bin/../lib/gcc/arm-none-eabi/4.8.2/../../../../arm-none-eabi/lib/thumb/libg.a(lib_a-memcmp.o)
 .bss           0x000000000206b880        0x0 /home/linux/devkitPro/devkitARM/bin/../lib/gcc/arm-none-eabi/4.8.2/../../../../arm-none-eabi/lib/thumb/libg.a(lib_a-memcpy-stub.o)
 .bss           0x000000000206b880        0x0 /home/linux/devkitPro/devkitARM/bin/../lib/gcc/arm-none-eabi/4.8.2/../../../../arm-none-eabi/lib/thumb/libg.a(lib_a-memmove.o)
 .bss           0x000000000206b880        0x0 /home/linux/devkitPro/devkitARM/bin/../lib/gcc/arm-none-eabi/4.8.2/../../../../arm-none-eabi/lib/thumb/libg.a(lib_a-memset.o)
 .bss           0x000000000206b880        0x0 /home/linux/devkitPro/devkitARM/bin/../lib/gcc/arm-none-eabi/4.8.2/../../../../arm-none-eabi/lib/thumb/libg.a(lib_a-mktime.o)
 .bss           0x000000000206b880        0x0 /home/linux/devkitPro/devkitARM/bin/../lib/gcc/arm-none-eabi/4.8.2/../../../../arm-none-eabi/lib/thumb/libg.a(lib_a-mktm_r.o)
 .bss           0x000000000206b880        0x0 /home/linux/devkitPro/devkitARM/bin/../lib/gcc/arm-none-eabi/4.8.2/../../../../arm-none-eabi/lib/thumb/libg.a(lib_a-mlock.o)
 .bss           0x000000000206b880        0x0 /home/linux/devkitPro/devkitARM/bin/../lib/gcc/arm-none-eabi/4.8.2/../../../../arm-none-eabi/lib/thumb/libg.a(lib_a-printf.o)
 .bss           0x000000000206b880        0x0 /home/linux/devkitPro/devkitARM/bin/../lib/gcc/arm-none-eabi/4.8.2/../../../../arm-none-eabi/lib/thumb/libg.a(lib_a-putc.o)
 .bss           0x000000000206b880        0x0 /home/linux/devkitPro/devkitARM/bin/../lib/gcc/arm-none-eabi/4.8.2/../../../../arm-none-eabi/lib/thumb/libg.a(lib_a-puts.o)
 .bss           0x000000000206b880        0x0 /home/linux/devkitPro/devkitARM/bin/../lib/gcc/arm-none-eabi/4.8.2/../../../../arm-none-eabi/lib/thumb/libg.a(lib_a-realloc.o)
 .bss           0x000000000206b880        0x0 /home/linux/devkitPro/devkitARM/bin/../lib/gcc/arm-none-eabi/4.8.2/../../../../arm-none-eabi/lib/thumb/libg.a(lib_a-reallocr.o)
 .bss           0x000000000206b880        0x0 /home/linux/devkitPro/devkitARM/bin/../lib/gcc/arm-none-eabi/4.8.2/../../../../arm-none-eabi/lib/thumb/libg.a(lib_a-refill.o)
 .bss           0x000000000206b880        0x0 /home/linux/devkitPro/devkitARM/bin/../lib/gcc/arm-none-eabi/4.8.2/../../../../arm-none-eabi/lib/thumb/libg.a(lib_a-setvbuf.o)
 .bss           0x000000000206b880        0x0 /home/linux/devkitPro/devkitARM/bin/../lib/gcc/arm-none-eabi/4.8.2/../../../../arm-none-eabi/lib/thumb/libg.a(lib_a-signal.o)
 .bss           0x000000000206b880        0x0 /home/linux/devkitPro/devkitARM/bin/../lib/gcc/arm-none-eabi/4.8.2/../../../../arm-none-eabi/lib/thumb/libg.a(lib_a-siscanf.o)
 .bss           0x000000000206b880        0x0 /home/linux/devkitPro/devkitARM/bin/../lib/gcc/arm-none-eabi/4.8.2/../../../../arm-none-eabi/lib/thumb/libg.a(lib_a-sprintf.o)
 .bss           0x000000000206b880        0x0 /home/linux/devkitPro/devkitARM/bin/../lib/gcc/arm-none-eabi/4.8.2/../../../../arm-none-eabi/lib/thumb/libg.a(lib_a-stdio.o)
 .bss           0x000000000206b880        0x0 /home/linux/devkitPro/devkitARM/bin/../lib/gcc/arm-none-eabi/4.8.2/../../../../arm-none-eabi/lib/thumb/libg.a(lib_a-stpcpy.o)
 .bss           0x000000000206b880        0x0 /home/linux/devkitPro/devkitARM/bin/../lib/gcc/arm-none-eabi/4.8.2/../../../../arm-none-eabi/lib/thumb/libg.a(lib_a-strcasecmp.o)
 .bss           0x000000000206b880        0x0 /home/linux/devkitPro/devkitARM/bin/../lib/gcc/arm-none-eabi/4.8.2/../../../../arm-none-eabi/lib/thumb/libg.a(lib_a-strcat.o)
 .bss           0x000000000206b880        0x0 /home/linux/devkitPro/devkitARM/bin/../lib/gcc/arm-none-eabi/4.8.2/../../../../arm-none-eabi/lib/thumb/libg.a(lib_a-strchr.o)
 .bss           0x000000000206b880        0x0 /home/linux/devkitPro/devkitARM/bin/../lib/gcc/arm-none-eabi/4.8.2/../../../../arm-none-eabi/lib/thumb/libg.a(lib_a-strcmp.o)
 .bss           0x000000000206b880        0x0 /home/linux/devkitPro/devkitARM/bin/../lib/gcc/arm-none-eabi/4.8.2/../../../../arm-none-eabi/lib/thumb/libg.a(lib_a-strcpy.o)
 .bss           0x000000000206b880        0x0 /home/linux/devkitPro/devkitARM/bin/../lib/gcc/arm-none-eabi/4.8.2/../../../../arm-none-eabi/lib/thumb/libg.a(lib_a-strdup.o)
 .bss           0x000000000206b880        0x0 /home/linux/devkitPro/devkitARM/bin/../lib/gcc/arm-none-eabi/4.8.2/../../../../arm-none-eabi/lib/thumb/libg.a(lib_a-strdup_r.o)
 .bss           0x000000000206b880        0x0 /home/linux/devkitPro/devkitARM/bin/../lib/gcc/arm-none-eabi/4.8.2/../../../../arm-none-eabi/lib/thumb/libg.a(lib_a-strerror.o)
 .bss           0x000000000206b880        0x0 /home/linux/devkitPro/devkitARM/bin/../lib/gcc/arm-none-eabi/4.8.2/../../../../arm-none-eabi/lib/thumb/libg.a(lib_a-strlcpy.o)
 .bss           0x000000000206b880        0x0 /home/linux/devkitPro/devkitARM/bin/../lib/gcc/arm-none-eabi/4.8.2/../../../../arm-none-eabi/lib/thumb/libg.a(lib_a-strlen.o)
 .bss           0x000000000206b880        0x0 /home/linux/devkitPro/devkitARM/bin/../lib/gcc/arm-none-eabi/4.8.2/../../../../arm-none-eabi/lib/thumb/libg.a(lib_a-strncasecmp.o)
 .bss           0x000000000206b880        0x0 /home/linux/devkitPro/devkitARM/bin/../lib/gcc/arm-none-eabi/4.8.2/../../../../arm-none-eabi/lib/thumb/libg.a(lib_a-strncmp.o)
 .bss           0x000000000206b880        0x0 /home/linux/devkitPro/devkitARM/bin/../lib/gcc/arm-none-eabi/4.8.2/../../../../arm-none-eabi/lib/thumb/libg.a(lib_a-strncpy.o)
 .bss           0x000000000206b880        0x0 /home/linux/devkitPro/devkitARM/bin/../lib/gcc/arm-none-eabi/4.8.2/../../../../arm-none-eabi/lib/thumb/libg.a(lib_a-strnlen.o)
 .bss           0x000000000206b880        0x0 /home/linux/devkitPro/devkitARM/bin/../lib/gcc/arm-none-eabi/4.8.2/../../../../arm-none-eabi/lib/thumb/libg.a(lib_a-strpbrk.o)
 .bss           0x000000000206b880        0x0 /home/linux/devkitPro/devkitARM/bin/../lib/gcc/arm-none-eabi/4.8.2/../../../../arm-none-eabi/lib/thumb/libg.a(lib_a-strrchr.o)
 .bss           0x000000000206b880        0x0 /home/linux/devkitPro/devkitARM/bin/../lib/gcc/arm-none-eabi/4.8.2/../../../../arm-none-eabi/lib/thumb/libg.a(lib_a-strtol.o)
 .bss           0x000000000206b880        0x0 /home/linux/devkitPro/devkitARM/bin/../lib/gcc/arm-none-eabi/4.8.2/../../../../arm-none-eabi/lib/thumb/libg.a(lib_a-svfiscanf.o)
 .bss           0x000000000206b880        0x0 /home/linux/devkitPro/devkitARM/bin/../lib/gcc/arm-none-eabi/4.8.2/../../../../arm-none-eabi/lib/thumb/libg.a(lib_a-svfprintf.o)
 .bss           0x000000000206b880        0x0 /home/linux/devkitPro/devkitARM/bin/../lib/gcc/arm-none-eabi/4.8.2/../../../../arm-none-eabi/lib/thumb/libg.a(lib_a-sysclose.o)
 .bss           0x000000000206b880        0x0 /home/linux/devkitPro/devkitARM/bin/../lib/gcc/arm-none-eabi/4.8.2/../../../../arm-none-eabi/lib/thumb/libg.a(lib_a-syslseek.o)
 .bss           0x000000000206b880        0x0 /home/linux/devkitPro/devkitARM/bin/../lib/gcc/arm-none-eabi/4.8.2/../../../../arm-none-eabi/lib/thumb/libg.a(lib_a-sysopen.o)
 .bss           0x000000000206b880        0x0 /home/linux/devkitPro/devkitARM/bin/../lib/gcc/arm-none-eabi/4.8.2/../../../../arm-none-eabi/lib/thumb/libg.a(lib_a-sysread.o)
 .bss           0x000000000206b880        0x0 /home/linux/devkitPro/devkitARM/bin/../lib/gcc/arm-none-eabi/4.8.2/../../../../arm-none-eabi/lib/thumb/libg.a(lib_a-syswrite.o)
 .bss           0x000000000206b880        0x0 /home/linux/devkitPro/devkitARM/bin/../lib/gcc/arm-none-eabi/4.8.2/../../../../arm-none-eabi/lib/thumb/libg.a(lib_a-time.o)
 .bss           0x000000000206b880        0x0 /home/linux/devkitPro/devkitARM/bin/../lib/gcc/arm-none-eabi/4.8.2/../../../../arm-none-eabi/lib/thumb/libg.a(lib_a-towlower.o)
 .bss           0x000000000206b880        0x0 /home/linux/devkitPro/devkitARM/bin/../lib/gcc/arm-none-eabi/4.8.2/../../../../arm-none-eabi/lib/thumb/libg.a(lib_a-towupper.o)
 .bss           0x000000000206b880        0x0 /home/linux/devkitPro/devkitARM/bin/../lib/gcc/arm-none-eabi/4.8.2/../../../../arm-none-eabi/lib/thumb/libg.a(lib_a-tzlock.o)
 .bss           0x000000000206b880        0x8 /home/linux/devkitPro/devkitARM/bin/../lib/gcc/arm-none-eabi/4.8.2/../../../../arm-none-eabi/lib/thumb/libg.a(lib_a-tzvars.o)
                0x000000000206b880                _timezone
                0x000000000206b884                _daylight
 .bss           0x000000000206b888        0x0 /home/linux/devkitPro/devkitARM/bin/../lib/gcc/arm-none-eabi/4.8.2/../../../../arm-none-eabi/lib/thumb/libg.a(lib_a-ungetc.o)
 .bss           0x000000000206b888        0x0 /home/linux/devkitPro/devkitARM/bin/../lib/gcc/arm-none-eabi/4.8.2/../../../../arm-none-eabi/lib/thumb/libg.a(lib_a-u_strerr.o)
 .bss           0x000000000206b888        0x0 /home/linux/devkitPro/devkitARM/bin/../lib/gcc/arm-none-eabi/4.8.2/../../../../arm-none-eabi/lib/thumb/libg.a(lib_a-vfiprintf.o)
 .bss           0x000000000206b888        0x0 /home/linux/devkitPro/devkitARM/bin/../lib/gcc/arm-none-eabi/4.8.2/../../../../arm-none-eabi/lib/thumb/libg.a(lib_a-vfprintf.o)
 .bss           0x000000000206b888        0x0 /home/linux/devkitPro/devkitARM/bin/../lib/gcc/arm-none-eabi/4.8.2/../../../../arm-none-eabi/lib/thumb/libg.a(lib_a-viprintf.o)
 .bss           0x000000000206b888        0x0 /home/linux/devkitPro/devkitARM/bin/../lib/gcc/arm-none-eabi/4.8.2/../../../../arm-none-eabi/lib/thumb/libg.a(lib_a-wbuf.o)
 .bss           0x000000000206b888        0x0 /home/linux/devkitPro/devkitARM/bin/../lib/gcc/arm-none-eabi/4.8.2/../../../../arm-none-eabi/lib/thumb/libg.a(lib_a-wcrtomb.o)
 .bss           0x000000000206b888        0x0 /home/linux/devkitPro/devkitARM/bin/../lib/gcc/arm-none-eabi/4.8.2/../../../../arm-none-eabi/lib/thumb/libg.a(lib_a-wcsrtombs.o)
 .bss           0x000000000206b888        0x0 /home/linux/devkitPro/devkitARM/bin/../lib/gcc/arm-none-eabi/4.8.2/../../../../arm-none-eabi/lib/thumb/libg.a(lib_a-wctob.o)
 .bss           0x000000000206b888        0x0 /home/linux/devkitPro/devkitARM/bin/../lib/gcc/arm-none-eabi/4.8.2/../../../../arm-none-eabi/lib/thumb/libg.a(lib_a-wctomb_r.o)
 .bss           0x000000000206b888        0x0 /home/linux/devkitPro/devkitARM/bin/../lib/gcc/arm-none-eabi/4.8.2/../../../../arm-none-eabi/lib/thumb/libg.a(lib_a-wsetup.o)
 .bss           0x000000000206b888        0x0 /home/linux/devkitPro/devkitARM/bin/../lib/gcc/arm-none-eabi/4.8.2/../../../../arm-none-eabi/lib/thumb/libg.a(lib_a-__atexit.o)
 .bss           0x000000000206b888        0x0 /home/linux/devkitPro/devkitARM/bin/../lib/gcc/arm-none-eabi/4.8.2/../../../../arm-none-eabi/lib/thumb/libg.a(lib_a-div.o)
 .bss           0x000000000206b888        0x0 /home/linux/devkitPro/devkitARM/bin/../lib/gcc/arm-none-eabi/4.8.2/../../../../arm-none-eabi/lib/thumb/libg.a(lib_a-dtoa.o)
 .bss           0x000000000206b888        0x0 /home/linux/devkitPro/devkitARM/bin/../lib/gcc/arm-none-eabi/4.8.2/../../../../arm-none-eabi/lib/thumb/libg.a(lib_a-flags.o)
 .bss           0x000000000206b888        0x0 /home/linux/devkitPro/devkitARM/bin/../lib/gcc/arm-none-eabi/4.8.2/../../../../arm-none-eabi/lib/thumb/libg.a(lib_a-fputwc.o)
 .bss           0x000000000206b888        0x0 /home/linux/devkitPro/devkitARM/bin/../lib/gcc/arm-none-eabi/4.8.2/../../../../arm-none-eabi/lib/thumb/libg.a(lib_a-getenv_r.o)
 .bss           0x000000000206b888        0x0 /home/linux/devkitPro/devkitARM/bin/../lib/gcc/arm-none-eabi/4.8.2/../../../../arm-none-eabi/lib/thumb/libg.a(lib_a-gettzinfo.o)
 .bss           0x000000000206b888        0x0 /home/linux/devkitPro/devkitARM/bin/../lib/gcc/arm-none-eabi/4.8.2/../../../../arm-none-eabi/lib/thumb/libg.a(lib_a-iswspace.o)
 .bss           0x000000000206b888        0x0 /home/linux/devkitPro/devkitARM/bin/../lib/gcc/arm-none-eabi/4.8.2/../../../../arm-none-eabi/lib/thumb/libg.a(lib_a-jp2uc.o)
 .bss           0x000000000206b888        0x0 /home/linux/devkitPro/devkitARM/bin/../lib/gcc/arm-none-eabi/4.8.2/../../../../arm-none-eabi/lib/thumb/libg.a(lib_a-mbsnrtowcs.o)
 .bss           0x000000000206b888        0x0 /home/linux/devkitPro/devkitARM/bin/../lib/gcc/arm-none-eabi/4.8.2/../../../../arm-none-eabi/lib/thumb/libg.a(lib_a-mprec.o)
 .bss           0x000000000206b888        0x0 /home/linux/devkitPro/devkitARM/bin/../lib/gcc/arm-none-eabi/4.8.2/../../../../arm-none-eabi/lib/thumb/libg.a(lib_a-sccl.o)
 .bss           0x000000000206b888        0x0 /home/linux/devkitPro/devkitARM/bin/../lib/gcc/arm-none-eabi/4.8.2/../../../../arm-none-eabi/lib/thumb/libg.a(lib_a-strtoll_r.o)
 .bss           0x000000000206b888        0x0 /home/linux/devkitPro/devkitARM/bin/../lib/gcc/arm-none-eabi/4.8.2/../../../../arm-none-eabi/lib/thumb/libg.a(lib_a-strtoull_r.o)
 .bss           0x000000000206b888        0x0 /home/linux/devkitPro/devkitARM/bin/../lib/gcc/arm-none-eabi/4.8.2/../../../../arm-none-eabi/lib/thumb/libg.a(lib_a-strtoul.o)
 .bss           0x000000000206b888        0x0 /home/linux/devkitPro/devkitARM/bin/../lib/gcc/arm-none-eabi/4.8.2/../../../../arm-none-eabi/lib/thumb/libg.a(lib_a-svfiprintf.o)
 .bss           0x000000000206b888        0x0 /home/linux/devkitPro/devkitARM/bin/../lib/gcc/arm-none-eabi/4.8.2/../../../../arm-none-eabi/lib/thumb/libg.a(lib_a-wcsnrtombs.o)
 .bss           0x000000000206b888        0x0 /home/linux/devkitPro/devkitARM/bin/../lib/gcc/arm-none-eabi/4.8.2/../../../../arm-none-eabi/lib/thumb/libg.a(lib_a-callocr.o)
 .bss           0x000000000206b888        0x4 /home/linux/devkitPro/devkitARM/bin/../lib/gcc/arm-none-eabi/4.8.2/../../../../arm-none-eabi/lib/thumb/libg.a(lib_a-environ.o)
 .bss           0x000000000206b88c        0x0 /home/linux/devkitPro/devkitARM/bin/../lib/gcc/arm-none-eabi/4.8.2/../../../../arm-none-eabi/lib/thumb/libg.a(lib_a-envlock.o)
 .bss           0x000000000206b88c        0x0 /home/linux/devkitPro/devkitARM/bin/../lib/gcc/arm-none-eabi/4.8.2/../../../../arm-none-eabi/lib/thumb/libsysbase.a(iosupport.o)
 .bss           0x000000000206b88c        0x0 /home/linux/devkitPro/devkitARM/bin/../lib/gcc/arm-none-eabi/4.8.2/../../../../arm-none-eabi/lib/thumb/libsysbase.a(close.o)
 .bss           0x000000000206b88c        0x0 /home/linux/devkitPro/devkitARM/bin/../lib/gcc/arm-none-eabi/4.8.2/../../../../arm-none-eabi/lib/thumb/libsysbase.a(fstat.o)
 .bss           0x000000000206b88c        0x0 /home/linux/devkitPro/devkitARM/bin/../lib/gcc/arm-none-eabi/4.8.2/../../../../arm-none-eabi/lib/thumb/libsysbase.a(getpid.o)
 .bss           0x000000000206b88c        0x0 /home/linux/devkitPro/devkitARM/bin/../lib/gcc/arm-none-eabi/4.8.2/../../../../arm-none-eabi/lib/thumb/libsysbase.a(isatty.o)
 .bss           0x000000000206b88c        0x0 /home/linux/devkitPro/devkitARM/bin/../lib/gcc/arm-none-eabi/4.8.2/../../../../arm-none-eabi/lib/thumb/libsysbase.a(kill.o)
 .bss           0x000000000206b88c        0x0 /home/linux/devkitPro/devkitARM/bin/../lib/gcc/arm-none-eabi/4.8.2/../../../../arm-none-eabi/lib/thumb/libsysbase.a(lseek.o)
 .bss           0x000000000206b88c        0x0 /home/linux/devkitPro/devkitARM/bin/../lib/gcc/arm-none-eabi/4.8.2/../../../../arm-none-eabi/lib/thumb/libsysbase.a(open.o)
 .bss           0x000000000206b88c        0x0 /home/linux/devkitPro/devkitARM/bin/../lib/gcc/arm-none-eabi/4.8.2/../../../../arm-none-eabi/lib/thumb/libsysbase.a(read.o)
 .bss           0x000000000206b88c        0x4 /home/linux/devkitPro/devkitARM/bin/../lib/gcc/arm-none-eabi/4.8.2/../../../../arm-none-eabi/lib/thumb/libsysbase.a(sbrk.o)
 .bss           0x000000000206b890        0x0 /home/linux/devkitPro/devkitARM/bin/../lib/gcc/arm-none-eabi/4.8.2/../../../../arm-none-eabi/lib/thumb/libsysbase.a(times.o)
 .bss           0x000000000206b890        0x0 /home/linux/devkitPro/devkitARM/bin/../lib/gcc/arm-none-eabi/4.8.2/../../../../arm-none-eabi/lib/thumb/libsysbase.a(write.o)
 .bss           0x000000000206b890        0x0 /home/linux/devkitPro/devkitARM/bin/../lib/gcc/arm-none-eabi/4.8.2/../../../../arm-none-eabi/lib/thumb/libsysbase.a(_exit.o)
 .bss           0x000000000206b890        0x8 /home/linux/devkitPro/devkitARM/bin/../lib/gcc/arm-none-eabi/4.8.2/../../../../arm-none-eabi/lib/thumb/libsysbase.a(malloc_vars.o)
                0x000000000206b890                fake_heap_start
                0x000000000206b894                fake_heap_end
 .bss           0x000000000206b898        0x0 /home/linux/devkitPro/devkitARM/bin/../lib/gcc/arm-none-eabi/4.8.2/../../../../arm-none-eabi/lib/thumb/libsysbase.a(chdir.o)
 .bss           0x000000000206b898        0x0 /home/linux/devkitPro/devkitARM/bin/../lib/gcc/arm-none-eabi/4.8.2/../../../../arm-none-eabi/lib/thumb/libsysbase.a(build_argv.o)
 .bss           0x000000000206b898        0x8 /home/linux/devkitPro/devkitARM/bin/../lib/gcc/arm-none-eabi/4.8.2/../../../../arm-none-eabi/lib/thumb/libsysbase.a(syscall_support.o)
                0x000000000206b898                __syscalls
 .bss           0x000000000206b8a0     0x1000 /home/linux/devkitPro/devkitARM/bin/../lib/gcc/arm-none-eabi/4.8.2/../../../../arm-none-eabi/lib/thumb/libsysbase.a(handle_manager.o)
 .bss           0x000000000206c8a0        0x0 /home/linux/devkitPro/devkitARM/bin/../lib/gcc/arm-none-eabi/4.8.2/thumb/libgcc.a(_arm_fixdfsi.o)
 .bss           0x000000000206c8a0        0x0 /home/linux/devkitPro/devkitARM/bin/../lib/gcc/arm-none-eabi/4.8.2/thumb/libgcc.a(_aeabi_uldivmod.o)
 .bss           0x000000000206c8a0        0x0 /home/linux/devkitPro/devkitARM/bin/../lib/gcc/arm-none-eabi/4.8.2/thumb/libgcc.a(bpabi.o)
 .bss           0x000000000206c8a0        0x0 /home/linux/devkitPro/devkitARM/bin/../lib/gcc/arm-none-eabi/4.8.2/thumb/libgcc.a(_divdi3.o)
 .bss           0x000000000206c8a0        0x0 /home/linux/devkitPro/devkitARM/bin/../lib/gcc/arm-none-eabi/4.8.2/thumb/libgcc.a(_udivdi3.o)
 .bss           0x000000000206c8a0        0x0 /home/linux/devkitPro/devkitARM/bin/../lib/gcc/arm-none-eabi/4.8.2/thumb/libgcc.a(_clzsi2.o)
 .bss           0x000000000206c8a0        0x0 /home/linux/devkitPro/devkitARM/bin/../lib/gcc/arm-none-eabi/4.8.2/thumb/crtend.o
 .bss           0x000000000206c8a0        0x0 /home/linux/devkitPro/devkitARM/bin/../lib/gcc/arm-none-eabi/4.8.2/thumb/crtn.o
 *(COMMON)
 COMMON         0x000000000206c8a0      0x148 /home/linux/devkitPro/libnds/lib/libnds9.a(background.o)
                0x000000000206c8a0                bgState
                0x000000000206c9e0                bgIsTextLut
 COMMON         0x000000000206c9e8       0x5c /home/linux/devkitPro/libnds/lib/libnds9.a(console.o)
                0x000000000206c9e8                currentCopy
 COMMON         0x000000000206ca44        0x1 /home/linux/devkitPro/libnds/lib/libnds9.a(initSystem.o)
                0x000000000206ca44                __dsimode
 *fill*         0x000000000206ca45        0x3 
 COMMON         0x000000000206ca48      0xa40 /home/linux/devkitPro/libnds/lib/libnds9.a(fifosystem.o)
                0x000000000206ca48                fifo_datamsg_data
                0x000000000206ca88                fifo_buffer
                0x000000000206d288                fifo_value32_func
                0x000000000206d2c8                fifo_address_func
                0x000000000206d308                fifo_value32_data
                0x000000000206d348                fifo_value32_queue
                0x000000000206d388                fifo_data_queue
                0x000000000206d3c8                fifo_address_data
                0x000000000206d408                fifo_datamsg_func
                0x000000000206d448                fifo_address_queue
 COMMON         0x000000000206d488        0x4 /home/linux/devkitPro/devkitARM/bin/../lib/gcc/arm-none-eabi/4.8.2/../../../../arm-none-eabi/lib/thumb/libsysbase.a(times.o)
                0x000000000206d488                punixTime
                0x000000000206d48c                . = ALIGN (0x4)
                0x000000000206d48c                __bss_end__ = ABSOLUTE (.)
                0x000000000206d48c                __end__ = ABSOLUTE (.)

.stab
 *(.stab)

.stabstr
 *(.stabstr)

.stab.excl
 *(.stab.excl)

.stab.exclstr
 *(.stab.exclstr)

.stab.index
 *(.stab.index)

.stab.indexstr
 *(.stab.indexstr)

.comment        0x0000000000000000       0x22
 *(.comment)
 .comment       0x0000000000000000       0x22 /home/linux/devkitPro/devkitARM/bin/../lib/gcc/arm-none-eabi/4.8.2/thumb/crtbegin.o
                                         0x23 (size before relaxing)
 .comment       0x0000000000000000       0x23 main.o
 .comment       0x0000000000000000       0x23 Timer.o
 .comment       0x0000000000000000       0x23 Game.o
 .comment       0x0000000000000000       0x23 Map.o
 .comment       0x0000000000000000       0x23 Sprite.o
 .comment       0x0000000000000000       0x23 Player.o
 .comment       0x0000000000000000       0x23 Character.o
 .comment       0x0000000000000000       0x23 CharacterManager.o
 .comment       0x0000000000000000       0x23 MapManager.o
 .comment       0x0000000000000000       0x23 libs5.o
 .comment       0x0000000000000000       0x23 /home/linux/devkitPro/libnds/lib/libfilesystem.a(nitrofs.o)
 .comment       0x0000000000000000       0x23 /home/linux/devkitPro/libnds/lib/libfat.a(libfat.o)
 .comment       0x0000000000000000       0x23 /home/linux/devkitPro/libnds/lib/libfat.a(partition.o)
 .comment       0x0000000000000000       0x23 /home/linux/devkitPro/libnds/lib/libfat.a(cache.o)
 .comment       0x0000000000000000       0x23 /home/linux/devkitPro/libnds/lib/libfat.a(directory.o)
 .comment       0x0000000000000000       0x23 /home/linux/devkitPro/libnds/lib/libfat.a(disc.o)
 .comment       0x0000000000000000       0x23 /home/linux/devkitPro/libnds/lib/libfat.a(fatdir.o)
 .comment       0x0000000000000000       0x23 /home/linux/devkitPro/libnds/lib/libfat.a(fatfile.o)
 .comment       0x0000000000000000       0x23 /home/linux/devkitPro/libnds/lib/libfat.a(file_allocation_table.o)
 .comment       0x0000000000000000       0x23 /home/linux/devkitPro/libnds/lib/libfat.a(filetime.o)
 .comment       0x0000000000000000       0x23 /home/linux/devkitPro/libnds/lib/libfat.a(lock.o)
 .comment       0x0000000000000000       0x23 /home/linux/devkitPro/libnds/lib/libnds9.a(background.o)
 .comment       0x0000000000000000       0x23 /home/linux/devkitPro/libnds/lib/libnds9.a(console.o)
 .comment       0x0000000000000000       0x23 /home/linux/devkitPro/libnds/lib/libnds9.a(gurumeditation.o)
 .comment       0x0000000000000000       0x23 /home/linux/devkitPro/libnds/lib/libnds9.a(keys.o)
 .comment       0x0000000000000000       0x23 /home/linux/devkitPro/libnds/lib/libnds9.a(sassert.o)
 .comment       0x0000000000000000       0x23 /home/linux/devkitPro/libnds/lib/libnds9.a(trig.o)
 .comment       0x0000000000000000       0x23 /home/linux/devkitPro/libnds/lib/libnds9.a(dldi.o)
 .comment       0x0000000000000000       0x23 /home/linux/devkitPro/libnds/lib/libnds9.a(dsi_sd.o)
 .comment       0x0000000000000000       0x23 /home/linux/devkitPro/libnds/lib/libnds9.a(initSystem.o)
 .comment       0x0000000000000000       0x23 /home/linux/devkitPro/libnds/lib/libnds9.a(card.o)
 .comment       0x0000000000000000       0x23 /home/linux/devkitPro/libnds/lib/libnds9.a(fifosystem.o)
 .comment       0x0000000000000000       0x23 /home/linux/devkitPro/libnds/lib/libnds9.a(interrupts.o)
 .comment       0x0000000000000000       0x23 /home/linux/devkitPro/libnds/lib/libnds9.a(libnds_exit.arm.o)
 .comment       0x0000000000000000       0x23 /home/linux/devkitPro/libnds/lib/libnds9.a(exceptions.o)
 .comment       0x0000000000000000       0x23 /home/linux/devkitPro/libnds/lib/libnds9.a(system.o)
 .comment       0x0000000000000000       0x23 /home/linux/devkitPro/libnds/lib/libnds9.a(video.o)
 .comment       0x0000000000000000       0x23 /home/linux/devkitPro/devkitARM/bin/../lib/gcc/arm-none-eabi/4.8.2/../../../../arm-none-eabi/lib/thumb/libstdc++.a(new_op.o)
 .comment       0x0000000000000000       0x23 /home/linux/devkitPro/devkitARM/bin/../lib/gcc/arm-none-eabi/4.8.2/../../../../arm-none-eabi/lib/thumb/libstdc++.a(eh_call.o)
 .comment       0x0000000000000000       0x23 /home/linux/devkitPro/devkitARM/bin/../lib/gcc/arm-none-eabi/4.8.2/../../../../arm-none-eabi/lib/thumb/libstdc++.a(new_opv.o)
 .comment       0x0000000000000000       0x23 /home/linux/devkitPro/devkitARM/bin/../lib/gcc/arm-none-eabi/4.8.2/../../../../arm-none-eabi/lib/thumb/libstdc++.a(eh_personality.o)
 .comment       0x0000000000000000       0x23 /home/linux/devkitPro/devkitARM/bin/../lib/gcc/arm-none-eabi/4.8.2/../../../../arm-none-eabi/lib/thumb/libstdc++.a(del_op.o)
 .comment       0x0000000000000000       0x23 /home/linux/devkitPro/devkitARM/bin/../lib/gcc/arm-none-eabi/4.8.2/../../../../arm-none-eabi/lib/thumb/libstdc++.a(atexit_arm.o)
 .comment       0x0000000000000000       0x23 /home/linux/devkitPro/devkitARM/bin/../lib/gcc/arm-none-eabi/4.8.2/../../../../arm-none-eabi/lib/thumb/libstdc++.a(eh_terminate.o)
 .comment       0x0000000000000000       0x23 /home/linux/devkitPro/devkitARM/bin/../lib/gcc/arm-none-eabi/4.8.2/../../../../arm-none-eabi/lib/thumb/libstdc++.a(eh_exception.o)
 .comment       0x0000000000000000       0x23 /home/linux/devkitPro/devkitARM/bin/../lib/gcc/arm-none-eabi/4.8.2/../../../../arm-none-eabi/lib/thumb/libstdc++.a(eh_alloc.o)
 .comment       0x0000000000000000       0x23 /home/linux/devkitPro/devkitARM/bin/../lib/gcc/arm-none-eabi/4.8.2/../../../../arm-none-eabi/lib/thumb/libstdc++.a(bad_alloc.o)
 .comment       0x0000000000000000       0x23 /home/linux/devkitPro/devkitARM/bin/../lib/gcc/arm-none-eabi/4.8.2/../../../../arm-none-eabi/lib/thumb/libstdc++.a(del_opv.o)
 .comment       0x0000000000000000       0x23 /home/linux/devkitPro/devkitARM/bin/../lib/gcc/arm-none-eabi/4.8.2/../../../../arm-none-eabi/lib/thumb/libstdc++.a(class_type_info.o)
 .comment       0x0000000000000000       0x23 /home/linux/devkitPro/devkitARM/bin/../lib/gcc/arm-none-eabi/4.8.2/../../../../arm-none-eabi/lib/thumb/libstdc++.a(new_handler.o)
 .comment       0x0000000000000000       0x23 /home/linux/devkitPro/devkitARM/bin/../lib/gcc/arm-none-eabi/4.8.2/../../../../arm-none-eabi/lib/thumb/libstdc++.a(string-inst.o)
 .comment       0x0000000000000000       0x23 /home/linux/devkitPro/devkitARM/bin/../lib/gcc/arm-none-eabi/4.8.2/../../../../arm-none-eabi/lib/thumb/libstdc++.a(functexcept.o)
 .comment       0x0000000000000000       0x23 /home/linux/devkitPro/devkitARM/bin/../lib/gcc/arm-none-eabi/4.8.2/../../../../arm-none-eabi/lib/thumb/libstdc++.a(eh_arm.o)
 .comment       0x0000000000000000       0x23 /home/linux/devkitPro/devkitARM/bin/../lib/gcc/arm-none-eabi/4.8.2/../../../../arm-none-eabi/lib/thumb/libstdc++.a(eh_throw.o)
 .comment       0x0000000000000000       0x23 /home/linux/devkitPro/devkitARM/bin/../lib/gcc/arm-none-eabi/4.8.2/../../../../arm-none-eabi/lib/thumb/libstdc++.a(pure.o)
 .comment       0x0000000000000000       0x23 /home/linux/devkitPro/devkitARM/bin/../lib/gcc/arm-none-eabi/4.8.2/../../../../arm-none-eabi/lib/thumb/libstdc++.a(bad_cast.o)
 .comment       0x0000000000000000       0x23 /home/linux/devkitPro/devkitARM/bin/../lib/gcc/arm-none-eabi/4.8.2/../../../../arm-none-eabi/lib/thumb/libstdc++.a(eh_globals.o)
 .comment       0x0000000000000000       0x23 /home/linux/devkitPro/devkitARM/bin/../lib/gcc/arm-none-eabi/4.8.2/../../../../arm-none-eabi/lib/thumb/libstdc++.a(eh_catch.o)
 .comment       0x0000000000000000       0x23 /home/linux/devkitPro/devkitARM/bin/../lib/gcc/arm-none-eabi/4.8.2/../../../../arm-none-eabi/lib/thumb/libstdc++.a(si_class_type_info.o)
 .comment       0x0000000000000000       0x23 /home/linux/devkitPro/devkitARM/bin/../lib/gcc/arm-none-eabi/4.8.2/../../../../arm-none-eabi/lib/thumb/libstdc++.a(eh_unex_handler.o)
 .comment       0x0000000000000000       0x23 /home/linux/devkitPro/devkitARM/bin/../lib/gcc/arm-none-eabi/4.8.2/../../../../arm-none-eabi/lib/thumb/libstdc++.a(tinfo.o)
 .comment       0x0000000000000000       0x23 /home/linux/devkitPro/devkitARM/bin/../lib/gcc/arm-none-eabi/4.8.2/../../../../arm-none-eabi/lib/thumb/libstdc++.a(bad_typeid.o)
 .comment       0x0000000000000000       0x23 /home/linux/devkitPro/devkitARM/bin/../lib/gcc/arm-none-eabi/4.8.2/../../../../arm-none-eabi/lib/thumb/libstdc++.a(eh_term_handler.o)
 .comment       0x0000000000000000       0x23 /home/linux/devkitPro/devkitARM/bin/../lib/gcc/arm-none-eabi/4.8.2/../../../../arm-none-eabi/lib/thumb/libstdc++.a(ios_failure.o)
 .comment       0x0000000000000000       0x23 /home/linux/devkitPro/devkitARM/bin/../lib/gcc/arm-none-eabi/4.8.2/../../../../arm-none-eabi/lib/thumb/libstdc++.a(stdexcept.o)
 .comment       0x0000000000000000       0x23 /home/linux/devkitPro/devkitARM/bin/../lib/gcc/arm-none-eabi/4.8.2/../../../../arm-none-eabi/lib/thumb/libstdc++.a(functional.o)
 .comment       0x0000000000000000       0x23 /home/linux/devkitPro/devkitARM/bin/../lib/gcc/arm-none-eabi/4.8.2/../../../../arm-none-eabi/lib/thumb/libstdc++.a(future.o)
 .comment       0x0000000000000000       0x23 /home/linux/devkitPro/devkitARM/bin/../lib/gcc/arm-none-eabi/4.8.2/../../../../arm-none-eabi/lib/thumb/libstdc++.a(regex.o)
 .comment       0x0000000000000000       0x23 /home/linux/devkitPro/devkitARM/bin/../lib/gcc/arm-none-eabi/4.8.2/../../../../arm-none-eabi/lib/thumb/libstdc++.a(system_error.o)
 .comment       0x0000000000000000       0x23 /home/linux/devkitPro/devkitARM/bin/../lib/gcc/arm-none-eabi/4.8.2/../../../../arm-none-eabi/lib/thumb/libstdc++.a(guard.o)
 .comment       0x0000000000000000       0x23 /home/linux/devkitPro/devkitARM/bin/../lib/gcc/arm-none-eabi/4.8.2/../../../../arm-none-eabi/lib/thumb/libstdc++.a(vterminate.o)
 .comment       0x0000000000000000       0x23 /home/linux/devkitPro/devkitARM/bin/../lib/gcc/arm-none-eabi/4.8.2/../../../../arm-none-eabi/lib/thumb/libstdc++.a(guard_error.o)
 .comment       0x0000000000000000       0x23 /home/linux/devkitPro/devkitARM/bin/../lib/gcc/arm-none-eabi/4.8.2/../../../../arm-none-eabi/lib/thumb/libstdc++.a(eh_type.o)
 .comment       0x0000000000000000       0x23 /home/linux/devkitPro/devkitARM/bin/../lib/gcc/arm-none-eabi/4.8.2/../../../../arm-none-eabi/lib/thumb/libstdc++.a(cp-demangle.o)
 .comment       0x0000000000000000       0x23 /home/linux/devkitPro/devkitARM/bin/../lib/gcc/arm-none-eabi/4.8.2/../../../../arm-none-eabi/lib/thumb/libm.a(lib_a-w_sqrt.o)
 .comment       0x0000000000000000       0x23 /home/linux/devkitPro/devkitARM/bin/../lib/gcc/arm-none-eabi/4.8.2/../../../../arm-none-eabi/lib/thumb/libm.a(lib_a-e_sqrt.o)
 .comment       0x0000000000000000       0x23 /home/linux/devkitPro/devkitARM/bin/../lib/gcc/arm-none-eabi/4.8.2/../../../../arm-none-eabi/lib/thumb/libm.a(lib_a-s_fpclassify.o)
 .comment       0x0000000000000000       0x23 /home/linux/devkitPro/devkitARM/bin/../lib/gcc/arm-none-eabi/4.8.2/../../../../arm-none-eabi/lib/thumb/libm.a(lib_a-s_lib_ver.o)
 .comment       0x0000000000000000       0x23 /home/linux/devkitPro/devkitARM/bin/../lib/gcc/arm-none-eabi/4.8.2/../../../../arm-none-eabi/lib/thumb/libm.a(lib_a-s_matherr.o)
 .comment       0x0000000000000000       0x23 /home/linux/devkitPro/devkitARM/bin/../lib/gcc/arm-none-eabi/4.8.2/thumb/libgcc.a(_muldi3.o)
 .comment       0x0000000000000000       0x23 /home/linux/devkitPro/devkitARM/bin/../lib/gcc/arm-none-eabi/4.8.2/thumb/libgcc.a(unwind-arm.o)
 .comment       0x0000000000000000       0x23 /home/linux/devkitPro/devkitARM/bin/../lib/gcc/arm-none-eabi/4.8.2/thumb/libgcc.a(pr-support.o)
 .comment       0x0000000000000000       0x23 /home/linux/devkitPro/devkitARM/bin/../lib/gcc/arm-none-eabi/4.8.2/../../../../arm-none-eabi/lib/thumb/libg.a(lib_a-abort.o)
 .comment       0x0000000000000000       0x23 /home/linux/devkitPro/devkitARM/bin/../lib/gcc/arm-none-eabi/4.8.2/../../../../arm-none-eabi/lib/thumb/libg.a(lib_a-bsearch.o)
 .comment       0x0000000000000000       0x23 /home/linux/devkitPro/devkitARM/bin/../lib/gcc/arm-none-eabi/4.8.2/../../../../arm-none-eabi/lib/thumb/libg.a(lib_a-ctype_.o)
 .comment       0x0000000000000000       0x23 /home/linux/devkitPro/devkitARM/bin/../lib/gcc/arm-none-eabi/4.8.2/../../../../arm-none-eabi/lib/thumb/libg.a(lib_a-cxa_atexit.o)
 .comment       0x0000000000000000       0x23 /home/linux/devkitPro/devkitARM/bin/../lib/gcc/arm-none-eabi/4.8.2/../../../../arm-none-eabi/lib/thumb/libg.a(lib_a-errno.o)
 .comment       0x0000000000000000       0x23 /home/linux/devkitPro/devkitARM/bin/../lib/gcc/arm-none-eabi/4.8.2/../../../../arm-none-eabi/lib/thumb/libg.a(lib_a-fclose.o)
 .comment       0x0000000000000000       0x23 /home/linux/devkitPro/devkitARM/bin/../lib/gcc/arm-none-eabi/4.8.2/../../../../arm-none-eabi/lib/thumb/libg.a(lib_a-fflush.o)
 .comment       0x0000000000000000       0x23 /home/linux/devkitPro/devkitARM/bin/../lib/gcc/arm-none-eabi/4.8.2/../../../../arm-none-eabi/lib/thumb/libg.a(lib_a-findfp.o)
 .comment       0x0000000000000000       0x23 /home/linux/devkitPro/devkitARM/bin/../lib/gcc/arm-none-eabi/4.8.2/../../../../arm-none-eabi/lib/thumb/libg.a(lib_a-fopen.o)
 .comment       0x0000000000000000       0x23 /home/linux/devkitPro/devkitARM/bin/../lib/gcc/arm-none-eabi/4.8.2/../../../../arm-none-eabi/lib/thumb/libg.a(lib_a-fputc.o)
 .comment       0x0000000000000000       0x23 /home/linux/devkitPro/devkitARM/bin/../lib/gcc/arm-none-eabi/4.8.2/../../../../arm-none-eabi/lib/thumb/libg.a(lib_a-fputs.o)
 .comment       0x0000000000000000       0x23 /home/linux/devkitPro/devkitARM/bin/../lib/gcc/arm-none-eabi/4.8.2/../../../../arm-none-eabi/lib/thumb/libg.a(lib_a-fread.o)
 .comment       0x0000000000000000       0x23 /home/linux/devkitPro/devkitARM/bin/../lib/gcc/arm-none-eabi/4.8.2/../../../../arm-none-eabi/lib/thumb/libg.a(lib_a-freer.o)
 .comment       0x0000000000000000       0x23 /home/linux/devkitPro/devkitARM/bin/../lib/gcc/arm-none-eabi/4.8.2/../../../../arm-none-eabi/lib/thumb/libg.a(lib_a-fseek.o)
 .comment       0x0000000000000000       0x23 /home/linux/devkitPro/devkitARM/bin/../lib/gcc/arm-none-eabi/4.8.2/../../../../arm-none-eabi/lib/thumb/libg.a(lib_a-fseeko.o)
 .comment       0x0000000000000000       0x23 /home/linux/devkitPro/devkitARM/bin/../lib/gcc/arm-none-eabi/4.8.2/../../../../arm-none-eabi/lib/thumb/libg.a(lib_a-fvwrite.o)
 .comment       0x0000000000000000       0x23 /home/linux/devkitPro/devkitARM/bin/../lib/gcc/arm-none-eabi/4.8.2/../../../../arm-none-eabi/lib/thumb/libg.a(lib_a-fwalk.o)
 .comment       0x0000000000000000       0x23 /home/linux/devkitPro/devkitARM/bin/../lib/gcc/arm-none-eabi/4.8.2/../../../../arm-none-eabi/lib/thumb/libg.a(lib_a-fwrite.o)
 .comment       0x0000000000000000       0x23 /home/linux/devkitPro/devkitARM/bin/../lib/gcc/arm-none-eabi/4.8.2/../../../../arm-none-eabi/lib/thumb/libg.a(lib_a-impure.o)
 .comment       0x0000000000000000       0x23 /home/linux/devkitPro/devkitARM/bin/../lib/gcc/arm-none-eabi/4.8.2/../../../../arm-none-eabi/lib/thumb/libg.a(lib_a-init.o)
 .comment       0x0000000000000000       0x23 /home/linux/devkitPro/devkitARM/bin/../lib/gcc/arm-none-eabi/4.8.2/../../../../arm-none-eabi/lib/thumb/libg.a(lib_a-iprintf.o)
 .comment       0x0000000000000000       0x23 /home/linux/devkitPro/devkitARM/bin/../lib/gcc/arm-none-eabi/4.8.2/../../../../arm-none-eabi/lib/thumb/libg.a(lib_a-lcltime_r.o)
 .comment       0x0000000000000000       0x23 /home/linux/devkitPro/devkitARM/bin/../lib/gcc/arm-none-eabi/4.8.2/../../../../arm-none-eabi/lib/thumb/libg.a(lib_a-locale.o)
 .comment       0x0000000000000000       0x23 /home/linux/devkitPro/devkitARM/bin/../lib/gcc/arm-none-eabi/4.8.2/../../../../arm-none-eabi/lib/thumb/libg.a(lib_a-makebuf.o)
 .comment       0x0000000000000000       0x23 /home/linux/devkitPro/devkitARM/bin/../lib/gcc/arm-none-eabi/4.8.2/../../../../arm-none-eabi/lib/thumb/libg.a(lib_a-malloc.o)
 .comment       0x0000000000000000       0x23 /home/linux/devkitPro/devkitARM/bin/../lib/gcc/arm-none-eabi/4.8.2/../../../../arm-none-eabi/lib/thumb/libg.a(lib_a-mallocr.o)
 .comment       0x0000000000000000       0x23 /home/linux/devkitPro/devkitARM/bin/../lib/gcc/arm-none-eabi/4.8.2/../../../../arm-none-eabi/lib/thumb/libg.a(lib_a-mbrtowc.o)
 .comment       0x0000000000000000       0x23 /home/linux/devkitPro/devkitARM/bin/../lib/gcc/arm-none-eabi/4.8.2/../../../../arm-none-eabi/lib/thumb/libg.a(lib_a-mbsrtowcs.o)
 .comment       0x0000000000000000       0x23 /home/linux/devkitPro/devkitARM/bin/../lib/gcc/arm-none-eabi/4.8.2/../../../../arm-none-eabi/lib/thumb/libg.a(lib_a-mbtowc_r.o)
 .comment       0x0000000000000000       0x23 /home/linux/devkitPro/devkitARM/bin/../lib/gcc/arm-none-eabi/4.8.2/../../../../arm-none-eabi/lib/thumb/libg.a(lib_a-memchr-stub.o)
 .comment       0x0000000000000000       0x23 /home/linux/devkitPro/devkitARM/bin/../lib/gcc/arm-none-eabi/4.8.2/../../../../arm-none-eabi/lib/thumb/libg.a(lib_a-memcmp.o)
 .comment       0x0000000000000000       0x23 /home/linux/devkitPro/devkitARM/bin/../lib/gcc/arm-none-eabi/4.8.2/../../../../arm-none-eabi/lib/thumb/libg.a(lib_a-memcpy-stub.o)
 .comment       0x0000000000000000       0x23 /home/linux/devkitPro/devkitARM/bin/../lib/gcc/arm-none-eabi/4.8.2/../../../../arm-none-eabi/lib/thumb/libg.a(lib_a-memmove.o)
 .comment       0x0000000000000000       0x23 /home/linux/devkitPro/devkitARM/bin/../lib/gcc/arm-none-eabi/4.8.2/../../../../arm-none-eabi/lib/thumb/libg.a(lib_a-memset.o)
 .comment       0x0000000000000000       0x23 /home/linux/devkitPro/devkitARM/bin/../lib/gcc/arm-none-eabi/4.8.2/../../../../arm-none-eabi/lib/thumb/libg.a(lib_a-mktime.o)
 .comment       0x0000000000000000       0x23 /home/linux/devkitPro/devkitARM/bin/../lib/gcc/arm-none-eabi/4.8.2/../../../../arm-none-eabi/lib/thumb/libg.a(lib_a-mktm_r.o)
 .comment       0x0000000000000000       0x23 /home/linux/devkitPro/devkitARM/bin/../lib/gcc/arm-none-eabi/4.8.2/../../../../arm-none-eabi/lib/thumb/libg.a(lib_a-mlock.o)
 .comment       0x0000000000000000       0x23 /home/linux/devkitPro/devkitARM/bin/../lib/gcc/arm-none-eabi/4.8.2/../../../../arm-none-eabi/lib/thumb/libg.a(lib_a-printf.o)
 .comment       0x0000000000000000       0x23 /home/linux/devkitPro/devkitARM/bin/../lib/gcc/arm-none-eabi/4.8.2/../../../../arm-none-eabi/lib/thumb/libg.a(lib_a-putc.o)
 .comment       0x0000000000000000       0x23 /home/linux/devkitPro/devkitARM/bin/../lib/gcc/arm-none-eabi/4.8.2/../../../../arm-none-eabi/lib/thumb/libg.a(lib_a-puts.o)
 .comment       0x0000000000000000       0x23 /home/linux/devkitPro/devkitARM/bin/../lib/gcc/arm-none-eabi/4.8.2/../../../../arm-none-eabi/lib/thumb/libg.a(lib_a-realloc.o)
 .comment       0x0000000000000000       0x23 /home/linux/devkitPro/devkitARM/bin/../lib/gcc/arm-none-eabi/4.8.2/../../../../arm-none-eabi/lib/thumb/libg.a(lib_a-reallocr.o)
 .comment       0x0000000000000000       0x23 /home/linux/devkitPro/devkitARM/bin/../lib/gcc/arm-none-eabi/4.8.2/../../../../arm-none-eabi/lib/thumb/libg.a(lib_a-refill.o)
 .comment       0x0000000000000000       0x23 /home/linux/devkitPro/devkitARM/bin/../lib/gcc/arm-none-eabi/4.8.2/../../../../arm-none-eabi/lib/thumb/libg.a(lib_a-setvbuf.o)
 .comment       0x0000000000000000       0x23 /home/linux/devkitPro/devkitARM/bin/../lib/gcc/arm-none-eabi/4.8.2/../../../../arm-none-eabi/lib/thumb/libg.a(lib_a-signal.o)
 .comment       0x0000000000000000       0x23 /home/linux/devkitPro/devkitARM/bin/../lib/gcc/arm-none-eabi/4.8.2/../../../../arm-none-eabi/lib/thumb/libg.a(lib_a-siscanf.o)
 .comment       0x0000000000000000       0x23 /home/linux/devkitPro/devkitARM/bin/../lib/gcc/arm-none-eabi/4.8.2/../../../../arm-none-eabi/lib/thumb/libg.a(lib_a-sprintf.o)
 .comment       0x0000000000000000       0x23 /home/linux/devkitPro/devkitARM/bin/../lib/gcc/arm-none-eabi/4.8.2/../../../../arm-none-eabi/lib/thumb/libg.a(lib_a-stdio.o)
 .comment       0x0000000000000000       0x23 /home/linux/devkitPro/devkitARM/bin/../lib/gcc/arm-none-eabi/4.8.2/../../../../arm-none-eabi/lib/thumb/libg.a(lib_a-stpcpy.o)
 .comment       0x0000000000000000       0x23 /home/linux/devkitPro/devkitARM/bin/../lib/gcc/arm-none-eabi/4.8.2/../../../../arm-none-eabi/lib/thumb/libg.a(lib_a-strcasecmp.o)
 .comment       0x0000000000000000       0x23 /home/linux/devkitPro/devkitARM/bin/../lib/gcc/arm-none-eabi/4.8.2/../../../../arm-none-eabi/lib/thumb/libg.a(lib_a-strcat.o)
 .comment       0x0000000000000000       0x23 /home/linux/devkitPro/devkitARM/bin/../lib/gcc/arm-none-eabi/4.8.2/../../../../arm-none-eabi/lib/thumb/libg.a(lib_a-strchr.o)
 .comment       0x0000000000000000       0x23 /home/linux/devkitPro/devkitARM/bin/../lib/gcc/arm-none-eabi/4.8.2/../../../../arm-none-eabi/lib/thumb/libg.a(lib_a-strcpy.o)
 .comment       0x0000000000000000       0x23 /home/linux/devkitPro/devkitARM/bin/../lib/gcc/arm-none-eabi/4.8.2/../../../../arm-none-eabi/lib/thumb/libg.a(lib_a-strdup.o)
 .comment       0x0000000000000000       0x23 /home/linux/devkitPro/devkitARM/bin/../lib/gcc/arm-none-eabi/4.8.2/../../../../arm-none-eabi/lib/thumb/libg.a(lib_a-strdup_r.o)
 .comment       0x0000000000000000       0x23 /home/linux/devkitPro/devkitARM/bin/../lib/gcc/arm-none-eabi/4.8.2/../../../../arm-none-eabi/lib/thumb/libg.a(lib_a-strerror.o)
 .comment       0x0000000000000000       0x23 /home/linux/devkitPro/devkitARM/bin/../lib/gcc/arm-none-eabi/4.8.2/../../../../arm-none-eabi/lib/thumb/libg.a(lib_a-strlcpy.o)
 .comment       0x0000000000000000       0x23 /home/linux/devkitPro/devkitARM/bin/../lib/gcc/arm-none-eabi/4.8.2/../../../../arm-none-eabi/lib/thumb/libg.a(lib_a-strlen.o)
 .comment       0x0000000000000000       0x23 /home/linux/devkitPro/devkitARM/bin/../lib/gcc/arm-none-eabi/4.8.2/../../../../arm-none-eabi/lib/thumb/libg.a(lib_a-strncasecmp.o)
 .comment       0x0000000000000000       0x23 /home/linux/devkitPro/devkitARM/bin/../lib/gcc/arm-none-eabi/4.8.2/../../../../arm-none-eabi/lib/thumb/libg.a(lib_a-strncmp.o)
 .comment       0x0000000000000000       0x23 /home/linux/devkitPro/devkitARM/bin/../lib/gcc/arm-none-eabi/4.8.2/../../../../arm-none-eabi/lib/thumb/libg.a(lib_a-strncpy.o)
 .comment       0x0000000000000000       0x23 /home/linux/devkitPro/devkitARM/bin/../lib/gcc/arm-none-eabi/4.8.2/../../../../arm-none-eabi/lib/thumb/libg.a(lib_a-strnlen.o)
 .comment       0x0000000000000000       0x23 /home/linux/devkitPro/devkitARM/bin/../lib/gcc/arm-none-eabi/4.8.2/../../../../arm-none-eabi/lib/thumb/libg.a(lib_a-strpbrk.o)
 .comment       0x0000000000000000       0x23 /home/linux/devkitPro/devkitARM/bin/../lib/gcc/arm-none-eabi/4.8.2/../../../../arm-none-eabi/lib/thumb/libg.a(lib_a-strrchr.o)
 .comment       0x0000000000000000       0x23 /home/linux/devkitPro/devkitARM/bin/../lib/gcc/arm-none-eabi/4.8.2/../../../../arm-none-eabi/lib/thumb/libg.a(lib_a-strtol.o)
 .comment       0x0000000000000000       0x23 /home/linux/devkitPro/devkitARM/bin/../lib/gcc/arm-none-eabi/4.8.2/../../../../arm-none-eabi/lib/thumb/libg.a(lib_a-svfiscanf.o)
 .comment       0x0000000000000000       0x23 /home/linux/devkitPro/devkitARM/bin/../lib/gcc/arm-none-eabi/4.8.2/../../../../arm-none-eabi/lib/thumb/libg.a(lib_a-svfprintf.o)
 .comment       0x0000000000000000       0x23 /home/linux/devkitPro/devkitARM/bin/../lib/gcc/arm-none-eabi/4.8.2/../../../../arm-none-eabi/lib/thumb/libg.a(lib_a-sysclose.o)
 .comment       0x0000000000000000       0x23 /home/linux/devkitPro/devkitARM/bin/../lib/gcc/arm-none-eabi/4.8.2/../../../../arm-none-eabi/lib/thumb/libg.a(lib_a-syslseek.o)
 .comment       0x0000000000000000       0x23 /home/linux/devkitPro/devkitARM/bin/../lib/gcc/arm-none-eabi/4.8.2/../../../../arm-none-eabi/lib/thumb/libg.a(lib_a-sysopen.o)
 .comment       0x0000000000000000       0x23 /home/linux/devkitPro/devkitARM/bin/../lib/gcc/arm-none-eabi/4.8.2/../../../../arm-none-eabi/lib/thumb/libg.a(lib_a-sysread.o)
 .comment       0x0000000000000000       0x23 /home/linux/devkitPro/devkitARM/bin/../lib/gcc/arm-none-eabi/4.8.2/../../../../arm-none-eabi/lib/thumb/libg.a(lib_a-syswrite.o)
 .comment       0x0000000000000000       0x23 /home/linux/devkitPro/devkitARM/bin/../lib/gcc/arm-none-eabi/4.8.2/../../../../arm-none-eabi/lib/thumb/libg.a(lib_a-time.o)
 .comment       0x0000000000000000       0x23 /home/linux/devkitPro/devkitARM/bin/../lib/gcc/arm-none-eabi/4.8.2/../../../../arm-none-eabi/lib/thumb/libg.a(lib_a-towlower.o)
 .comment       0x0000000000000000       0x23 /home/linux/devkitPro/devkitARM/bin/../lib/gcc/arm-none-eabi/4.8.2/../../../../arm-none-eabi/lib/thumb/libg.a(lib_a-towupper.o)
 .comment       0x0000000000000000       0x23 /home/linux/devkitPro/devkitARM/bin/../lib/gcc/arm-none-eabi/4.8.2/../../../../arm-none-eabi/lib/thumb/libg.a(lib_a-tzlock.o)
 .comment       0x0000000000000000       0x23 /home/linux/devkitPro/devkitARM/bin/../lib/gcc/arm-none-eabi/4.8.2/../../../../arm-none-eabi/lib/thumb/libg.a(lib_a-tzvars.o)
 .comment       0x0000000000000000       0x23 /home/linux/devkitPro/devkitARM/bin/../lib/gcc/arm-none-eabi/4.8.2/../../../../arm-none-eabi/lib/thumb/libg.a(lib_a-ungetc.o)
 .comment       0x0000000000000000       0x23 /home/linux/devkitPro/devkitARM/bin/../lib/gcc/arm-none-eabi/4.8.2/../../../../arm-none-eabi/lib/thumb/libg.a(lib_a-u_strerr.o)
 .comment       0x0000000000000000       0x23 /home/linux/devkitPro/devkitARM/bin/../lib/gcc/arm-none-eabi/4.8.2/../../../../arm-none-eabi/lib/thumb/libg.a(lib_a-vfiprintf.o)
 .comment       0x0000000000000000       0x23 /home/linux/devkitPro/devkitARM/bin/../lib/gcc/arm-none-eabi/4.8.2/../../../../arm-none-eabi/lib/thumb/libg.a(lib_a-vfprintf.o)
 .comment       0x0000000000000000       0x23 /home/linux/devkitPro/devkitARM/bin/../lib/gcc/arm-none-eabi/4.8.2/../../../../arm-none-eabi/lib/thumb/libg.a(lib_a-viprintf.o)
 .comment       0x0000000000000000       0x23 /home/linux/devkitPro/devkitARM/bin/../lib/gcc/arm-none-eabi/4.8.2/../../../../arm-none-eabi/lib/thumb/libg.a(lib_a-wbuf.o)
 .comment       0x0000000000000000       0x23 /home/linux/devkitPro/devkitARM/bin/../lib/gcc/arm-none-eabi/4.8.2/../../../../arm-none-eabi/lib/thumb/libg.a(lib_a-wcrtomb.o)
 .comment       0x0000000000000000       0x23 /home/linux/devkitPro/devkitARM/bin/../lib/gcc/arm-none-eabi/4.8.2/../../../../arm-none-eabi/lib/thumb/libg.a(lib_a-wcsrtombs.o)
 .comment       0x0000000000000000       0x23 /home/linux/devkitPro/devkitARM/bin/../lib/gcc/arm-none-eabi/4.8.2/../../../../arm-none-eabi/lib/thumb/libg.a(lib_a-wctob.o)
 .comment       0x0000000000000000       0x23 /home/linux/devkitPro/devkitARM/bin/../lib/gcc/arm-none-eabi/4.8.2/../../../../arm-none-eabi/lib/thumb/libg.a(lib_a-wctomb_r.o)
 .comment       0x0000000000000000       0x23 /home/linux/devkitPro/devkitARM/bin/../lib/gcc/arm-none-eabi/4.8.2/../../../../arm-none-eabi/lib/thumb/libg.a(lib_a-wsetup.o)
 .comment       0x0000000000000000       0x23 /home/linux/devkitPro/devkitARM/bin/../lib/gcc/arm-none-eabi/4.8.2/../../../../arm-none-eabi/lib/thumb/libg.a(lib_a-__atexit.o)
 .comment       0x0000000000000000       0x23 /home/linux/devkitPro/devkitARM/bin/../lib/gcc/arm-none-eabi/4.8.2/../../../../arm-none-eabi/lib/thumb/libg.a(lib_a-div.o)
 .comment       0x0000000000000000       0x23 /home/linux/devkitPro/devkitARM/bin/../lib/gcc/arm-none-eabi/4.8.2/../../../../arm-none-eabi/lib/thumb/libg.a(lib_a-dtoa.o)
 .comment       0x0000000000000000       0x23 /home/linux/devkitPro/devkitARM/bin/../lib/gcc/arm-none-eabi/4.8.2/../../../../arm-none-eabi/lib/thumb/libg.a(lib_a-flags.o)
 .comment       0x0000000000000000       0x23 /home/linux/devkitPro/devkitARM/bin/../lib/gcc/arm-none-eabi/4.8.2/../../../../arm-none-eabi/lib/thumb/libg.a(lib_a-fputwc.o)
 .comment       0x0000000000000000       0x23 /home/linux/devkitPro/devkitARM/bin/../lib/gcc/arm-none-eabi/4.8.2/../../../../arm-none-eabi/lib/thumb/libg.a(lib_a-getenv_r.o)
 .comment       0x0000000000000000       0x23 /home/linux/devkitPro/devkitARM/bin/../lib/gcc/arm-none-eabi/4.8.2/../../../../arm-none-eabi/lib/thumb/libg.a(lib_a-gettzinfo.o)
 .comment       0x0000000000000000       0x23 /home/linux/devkitPro/devkitARM/bin/../lib/gcc/arm-none-eabi/4.8.2/../../../../arm-none-eabi/lib/thumb/libg.a(lib_a-iswspace.o)
 .comment       0x0000000000000000       0x23 /home/linux/devkitPro/devkitARM/bin/../lib/gcc/arm-none-eabi/4.8.2/../../../../arm-none-eabi/lib/thumb/libg.a(lib_a-jp2uc.o)
 .comment       0x0000000000000000       0x23 /home/linux/devkitPro/devkitARM/bin/../lib/gcc/arm-none-eabi/4.8.2/../../../../arm-none-eabi/lib/thumb/libg.a(lib_a-mbsnrtowcs.o)
 .comment       0x0000000000000000       0x23 /home/linux/devkitPro/devkitARM/bin/../lib/gcc/arm-none-eabi/4.8.2/../../../../arm-none-eabi/lib/thumb/libg.a(lib_a-mprec.o)
 .comment       0x0000000000000000       0x23 /home/linux/devkitPro/devkitARM/bin/../lib/gcc/arm-none-eabi/4.8.2/../../../../arm-none-eabi/lib/thumb/libg.a(lib_a-sccl.o)
 .comment       0x0000000000000000       0x23 /home/linux/devkitPro/devkitARM/bin/../lib/gcc/arm-none-eabi/4.8.2/../../../../arm-none-eabi/lib/thumb/libg.a(lib_a-strtoll_r.o)
 .comment       0x0000000000000000       0x23 /home/linux/devkitPro/devkitARM/bin/../lib/gcc/arm-none-eabi/4.8.2/../../../../arm-none-eabi/lib/thumb/libg.a(lib_a-strtoull_r.o)
 .comment       0x0000000000000000       0x23 /home/linux/devkitPro/devkitARM/bin/../lib/gcc/arm-none-eabi/4.8.2/../../../../arm-none-eabi/lib/thumb/libg.a(lib_a-strtoul.o)
 .comment       0x0000000000000000       0x23 /home/linux/devkitPro/devkitARM/bin/../lib/gcc/arm-none-eabi/4.8.2/../../../../arm-none-eabi/lib/thumb/libg.a(lib_a-svfiprintf.o)
 .comment       0x0000000000000000       0x23 /home/linux/devkitPro/devkitARM/bin/../lib/gcc/arm-none-eabi/4.8.2/../../../../arm-none-eabi/lib/thumb/libg.a(lib_a-wcsnrtombs.o)
 .comment       0x0000000000000000       0x23 /home/linux/devkitPro/devkitARM/bin/../lib/gcc/arm-none-eabi/4.8.2/../../../../arm-none-eabi/lib/thumb/libg.a(lib_a-callocr.o)
 .comment       0x0000000000000000       0x23 /home/linux/devkitPro/devkitARM/bin/../lib/gcc/arm-none-eabi/4.8.2/../../../../arm-none-eabi/lib/thumb/libg.a(lib_a-environ.o)
 .comment       0x0000000000000000       0x23 /home/linux/devkitPro/devkitARM/bin/../lib/gcc/arm-none-eabi/4.8.2/../../../../arm-none-eabi/lib/thumb/libg.a(lib_a-envlock.o)
 .comment       0x0000000000000000       0x23 /home/linux/devkitPro/devkitARM/bin/../lib/gcc/arm-none-eabi/4.8.2/../../../../arm-none-eabi/lib/thumb/libsysbase.a(iosupport.o)
 .comment       0x0000000000000000       0x23 /home/linux/devkitPro/devkitARM/bin/../lib/gcc/arm-none-eabi/4.8.2/../../../../arm-none-eabi/lib/thumb/libsysbase.a(close.o)
 .comment       0x0000000000000000       0x23 /home/linux/devkitPro/devkitARM/bin/../lib/gcc/arm-none-eabi/4.8.2/../../../../arm-none-eabi/lib/thumb/libsysbase.a(fstat.o)
 .comment       0x0000000000000000       0x23 /home/linux/devkitPro/devkitARM/bin/../lib/gcc/arm-none-eabi/4.8.2/../../../../arm-none-eabi/lib/thumb/libsysbase.a(getpid.o)
 .comment       0x0000000000000000       0x23 /home/linux/devkitPro/devkitARM/bin/../lib/gcc/arm-none-eabi/4.8.2/../../../../arm-none-eabi/lib/thumb/libsysbase.a(isatty.o)
 .comment       0x0000000000000000       0x23 /home/linux/devkitPro/devkitARM/bin/../lib/gcc/arm-none-eabi/4.8.2/../../../../arm-none-eabi/lib/thumb/libsysbase.a(kill.o)
 .comment       0x0000000000000000       0x23 /home/linux/devkitPro/devkitARM/bin/../lib/gcc/arm-none-eabi/4.8.2/../../../../arm-none-eabi/lib/thumb/libsysbase.a(lseek.o)
 .comment       0x0000000000000000       0x23 /home/linux/devkitPro/devkitARM/bin/../lib/gcc/arm-none-eabi/4.8.2/../../../../arm-none-eabi/lib/thumb/libsysbase.a(open.o)
 .comment       0x0000000000000000       0x23 /home/linux/devkitPro/devkitARM/bin/../lib/gcc/arm-none-eabi/4.8.2/../../../../arm-none-eabi/lib/thumb/libsysbase.a(read.o)
 .comment       0x0000000000000000       0x23 /home/linux/devkitPro/devkitARM/bin/../lib/gcc/arm-none-eabi/4.8.2/../../../../arm-none-eabi/lib/thumb/libsysbase.a(sbrk.o)
 .comment       0x0000000000000000       0x23 /home/linux/devkitPro/devkitARM/bin/../lib/gcc/arm-none-eabi/4.8.2/../../../../arm-none-eabi/lib/thumb/libsysbase.a(times.o)
 .comment       0x0000000000000000       0x23 /home/linux/devkitPro/devkitARM/bin/../lib/gcc/arm-none-eabi/4.8.2/../../../../arm-none-eabi/lib/thumb/libsysbase.a(write.o)
 .comment       0x0000000000000000       0x23 /home/linux/devkitPro/devkitARM/bin/../lib/gcc/arm-none-eabi/4.8.2/../../../../arm-none-eabi/lib/thumb/libsysbase.a(_exit.o)
 .comment       0x0000000000000000       0x23 /home/linux/devkitPro/devkitARM/bin/../lib/gcc/arm-none-eabi/4.8.2/../../../../arm-none-eabi/lib/thumb/libsysbase.a(malloc_vars.o)
 .comment       0x0000000000000000       0x23 /home/linux/devkitPro/devkitARM/bin/../lib/gcc/arm-none-eabi/4.8.2/../../../../arm-none-eabi/lib/thumb/libsysbase.a(chdir.o)
 .comment       0x0000000000000000       0x23 /home/linux/devkitPro/devkitARM/bin/../lib/gcc/arm-none-eabi/4.8.2/../../../../arm-none-eabi/lib/thumb/libsysbase.a(build_argv.o)
 .comment       0x0000000000000000       0x23 /home/linux/devkitPro/devkitARM/bin/../lib/gcc/arm-none-eabi/4.8.2/../../../../arm-none-eabi/lib/thumb/libsysbase.a(syscall_support.o)
 .comment       0x0000000000000000       0x23 /home/linux/devkitPro/devkitARM/bin/../lib/gcc/arm-none-eabi/4.8.2/../../../../arm-none-eabi/lib/thumb/libsysbase.a(handle_manager.o)
 .comment       0x0000000000000000       0x23 /home/linux/devkitPro/devkitARM/bin/../lib/gcc/arm-none-eabi/4.8.2/thumb/libgcc.a(bpabi.o)
 .comment       0x0000000000000000       0x23 /home/linux/devkitPro/devkitARM/bin/../lib/gcc/arm-none-eabi/4.8.2/thumb/libgcc.a(_divdi3.o)
 .comment       0x0000000000000000       0x23 /home/linux/devkitPro/devkitARM/bin/../lib/gcc/arm-none-eabi/4.8.2/thumb/libgcc.a(_udivdi3.o)
 .comment       0x0000000000000000       0x23 /home/linux/devkitPro/devkitARM/bin/../lib/gcc/arm-none-eabi/4.8.2/thumb/crtend.o

.ARM.attributes
                0x0000000000000000       0x2d
 .ARM.attributes
                0x0000000000000000       0x21 /home/linux/devkitPro/devkitARM/bin/../lib/gcc/arm-none-eabi/4.8.2/../../../../arm-none-eabi/lib/thumb/ds_arm9_crt0.o
 .ARM.attributes
                0x0000000000000021       0x16 /home/linux/devkitPro/devkitARM/bin/../lib/gcc/arm-none-eabi/4.8.2/thumb/crti.o
 .ARM.attributes
                0x0000000000000037       0x30 /home/linux/devkitPro/devkitARM/bin/../lib/gcc/arm-none-eabi/4.8.2/thumb/crtbegin.o
 .ARM.attributes
                0x0000000000000067       0x1b plain.o
 .ARM.attributes
                0x0000000000000082       0x1b underground.o
 .ARM.attributes
                0x000000000000009d       0x1b indoor.o
 .ARM.attributes
                0x00000000000000b8       0x27 main.o
 .ARM.attributes
                0x00000000000000df       0x27 Timer.o
 .ARM.attributes
                0x0000000000000106       0x27 Game.o
 .ARM.attributes
                0x000000000000012d       0x27 Map.o
 .ARM.attributes
                0x0000000000000154       0x27 Sprite.o
 .ARM.attributes
                0x000000000000017b       0x27 Player.o
 .ARM.attributes
                0x00000000000001a2       0x27 Character.o
 .ARM.attributes
                0x00000000000001c9       0x27 CharacterManager.o
 .ARM.attributes
                0x00000000000001f0       0x27 MapManager.o
 .ARM.attributes
                0x0000000000000217       0x27 libs5.o
 .ARM.attributes
                0x000000000000023e       0x1b libs5_asm.o
 .ARM.attributes
                0x0000000000000259       0x1b link.o
 .ARM.attributes
                0x0000000000000274       0x1b grass_effect.o
 .ARM.attributes
                0x000000000000028f       0x1b water_effect.o
 .ARM.attributes
                0x00000000000002aa       0x27 /home/linux/devkitPro/libnds/lib/libfilesystem.a(nitrofs.o)
 .ARM.attributes
                0x00000000000002d1       0x27 /home/linux/devkitPro/libnds/lib/libfat.a(libfat.o)
 .ARM.attributes
                0x00000000000002f8       0x27 /home/linux/devkitPro/libnds/lib/libfat.a(partition.o)
 .ARM.attributes
                0x000000000000031f       0x27 /home/linux/devkitPro/libnds/lib/libfat.a(cache.o)
 .ARM.attributes
                0x0000000000000346       0x27 /home/linux/devkitPro/libnds/lib/libfat.a(directory.o)
 .ARM.attributes
                0x000000000000036d       0x27 /home/linux/devkitPro/libnds/lib/libfat.a(disc.o)
 .ARM.attributes
                0x0000000000000394       0x27 /home/linux/devkitPro/libnds/lib/libfat.a(fatdir.o)
 .ARM.attributes
                0x00000000000003bb       0x27 /home/linux/devkitPro/libnds/lib/libfat.a(fatfile.o)
 .ARM.attributes
                0x00000000000003e2       0x27 /home/linux/devkitPro/libnds/lib/libfat.a(file_allocation_table.o)
 .ARM.attributes
                0x0000000000000409       0x27 /home/linux/devkitPro/libnds/lib/libfat.a(filetime.o)
 .ARM.attributes
                0x0000000000000430       0x27 /home/linux/devkitPro/libnds/lib/libfat.a(lock.o)
 .ARM.attributes
                0x0000000000000457       0x27 /home/linux/devkitPro/libnds/lib/libnds9.a(background.o)
 .ARM.attributes
                0x000000000000047e       0x27 /home/linux/devkitPro/libnds/lib/libnds9.a(console.o)
 .ARM.attributes
                0x00000000000004a5       0x27 /home/linux/devkitPro/libnds/lib/libnds9.a(gurumeditation.o)
 .ARM.attributes
                0x00000000000004cc       0x27 /home/linux/devkitPro/libnds/lib/libnds9.a(keys.o)
 .ARM.attributes
                0x00000000000004f3       0x27 /home/linux/devkitPro/libnds/lib/libnds9.a(sassert.o)
 .ARM.attributes
                0x000000000000051a       0x27 /home/linux/devkitPro/libnds/lib/libnds9.a(trig.o)
 .ARM.attributes
                0x0000000000000541       0x27 /home/linux/devkitPro/libnds/lib/libnds9.a(dldi.o)
 .ARM.attributes
                0x0000000000000568       0x27 /home/linux/devkitPro/libnds/lib/libnds9.a(dsi_sd.o)
 .ARM.attributes
                0x000000000000058f       0x27 /home/linux/devkitPro/libnds/lib/libnds9.a(initSystem.o)
 .ARM.attributes
                0x00000000000005b6       0x27 /home/linux/devkitPro/libnds/lib/libnds9.a(card.o)
 .ARM.attributes
                0x00000000000005dd       0x27 /home/linux/devkitPro/libnds/lib/libnds9.a(fifosystem.o)
 .ARM.attributes
                0x0000000000000604       0x27 /home/linux/devkitPro/libnds/lib/libnds9.a(interrupts.o)
 .ARM.attributes
                0x000000000000062b       0x27 /home/linux/devkitPro/libnds/lib/libnds9.a(libnds_exit.arm.o)
 .ARM.attributes
                0x0000000000000652       0x1b /home/linux/devkitPro/libnds/lib/libnds9.a(dcache.o)
 .ARM.attributes
                0x000000000000066d       0x1b /home/linux/devkitPro/libnds/lib/libnds9.a(exceptionHandler.o)
 .ARM.attributes
                0x0000000000000688       0x1b /home/linux/devkitPro/libnds/lib/libnds9.a(dldi_stub.o)
 .ARM.attributes
                0x00000000000006a3       0x21 /home/linux/devkitPro/libnds/lib/libnds9.a(mpu_setup.o)
 .ARM.attributes
                0x00000000000006c4       0x1b /home/linux/devkitPro/libnds/lib/libnds9.a(biosCalls.o)
 .ARM.attributes
                0x00000000000006df       0x1b /home/linux/devkitPro/libnds/lib/libnds9.a(debugprint.o)
 .ARM.attributes
                0x00000000000006fa       0x1b /home/linux/devkitPro/libnds/lib/libnds9.a(interruptDispatcher.o)
 .ARM.attributes
                0x0000000000000715       0x21 /home/linux/devkitPro/libnds/lib/libnds9.a(swiSoftReset.o)
 .ARM.attributes
                0x0000000000000736       0x14 /home/linux/devkitPro/libnds/lib/libnds9.a(default_font.bin.o)
 .ARM.attributes
                0x000000000000074a       0x27 /home/linux/devkitPro/libnds/lib/libnds9.a(exceptions.o)
 .ARM.attributes
                0x0000000000000771       0x27 /home/linux/devkitPro/libnds/lib/libnds9.a(system.o)
 .ARM.attributes
                0x0000000000000798       0x27 /home/linux/devkitPro/libnds/lib/libnds9.a(video.o)
 .ARM.attributes
                0x00000000000007bf       0x30 /home/linux/devkitPro/devkitARM/bin/../lib/gcc/arm-none-eabi/4.8.2/../../../../arm-none-eabi/lib/thumb/libstdc++.a(new_op.o)
 .ARM.attributes
                0x00000000000007ef       0x30 /home/linux/devkitPro/devkitARM/bin/../lib/gcc/arm-none-eabi/4.8.2/../../../../arm-none-eabi/lib/thumb/libstdc++.a(eh_call.o)
 .ARM.attributes
                0x000000000000081f       0x30 /home/linux/devkitPro/devkitARM/bin/../lib/gcc/arm-none-eabi/4.8.2/../../../../arm-none-eabi/lib/thumb/libstdc++.a(new_opv.o)
 .ARM.attributes
                0x000000000000084f       0x30 /home/linux/devkitPro/devkitARM/bin/../lib/gcc/arm-none-eabi/4.8.2/../../../../arm-none-eabi/lib/thumb/libstdc++.a(eh_personality.o)
 .ARM.attributes
                0x000000000000087f       0x30 /home/linux/devkitPro/devkitARM/bin/../lib/gcc/arm-none-eabi/4.8.2/../../../../arm-none-eabi/lib/thumb/libstdc++.a(del_op.o)
 .ARM.attributes
                0x00000000000008af       0x30 /home/linux/devkitPro/devkitARM/bin/../lib/gcc/arm-none-eabi/4.8.2/../../../../arm-none-eabi/lib/thumb/libstdc++.a(atexit_arm.o)
 .ARM.attributes
                0x00000000000008df       0x30 /home/linux/devkitPro/devkitARM/bin/../lib/gcc/arm-none-eabi/4.8.2/../../../../arm-none-eabi/lib/thumb/libstdc++.a(eh_terminate.o)
 .ARM.attributes
                0x000000000000090f       0x30 /home/linux/devkitPro/devkitARM/bin/../lib/gcc/arm-none-eabi/4.8.2/../../../../arm-none-eabi/lib/thumb/libstdc++.a(eh_exception.o)
 .ARM.attributes
                0x000000000000093f       0x30 /home/linux/devkitPro/devkitARM/bin/../lib/gcc/arm-none-eabi/4.8.2/../../../../arm-none-eabi/lib/thumb/libstdc++.a(eh_alloc.o)
 .ARM.attributes
                0x000000000000096f       0x30 /home/linux/devkitPro/devkitARM/bin/../lib/gcc/arm-none-eabi/4.8.2/../../../../arm-none-eabi/lib/thumb/libstdc++.a(bad_alloc.o)
 .ARM.attributes
                0x000000000000099f       0x30 /home/linux/devkitPro/devkitARM/bin/../lib/gcc/arm-none-eabi/4.8.2/../../../../arm-none-eabi/lib/thumb/libstdc++.a(del_opv.o)
 .ARM.attributes
                0x00000000000009cf       0x30 /home/linux/devkitPro/devkitARM/bin/../lib/gcc/arm-none-eabi/4.8.2/../../../../arm-none-eabi/lib/thumb/libstdc++.a(class_type_info.o)
 .ARM.attributes
                0x00000000000009ff       0x30 /home/linux/devkitPro/devkitARM/bin/../lib/gcc/arm-none-eabi/4.8.2/../../../../arm-none-eabi/lib/thumb/libstdc++.a(new_handler.o)
 .ARM.attributes
                0x0000000000000a2f       0x30 /home/linux/devkitPro/devkitARM/bin/../lib/gcc/arm-none-eabi/4.8.2/../../../../arm-none-eabi/lib/thumb/libstdc++.a(string-inst.o)
 .ARM.attributes
                0x0000000000000a5f       0x30 /home/linux/devkitPro/devkitARM/bin/../lib/gcc/arm-none-eabi/4.8.2/../../../../arm-none-eabi/lib/thumb/libstdc++.a(functexcept.o)
 .ARM.attributes
                0x0000000000000a8f       0x30 /home/linux/devkitPro/devkitARM/bin/../lib/gcc/arm-none-eabi/4.8.2/../../../../arm-none-eabi/lib/thumb/libstdc++.a(eh_arm.o)
 .ARM.attributes
                0x0000000000000abf       0x30 /home/linux/devkitPro/devkitARM/bin/../lib/gcc/arm-none-eabi/4.8.2/../../../../arm-none-eabi/lib/thumb/libstdc++.a(eh_throw.o)
 .ARM.attributes
                0x0000000000000aef       0x30 /home/linux/devkitPro/devkitARM/bin/../lib/gcc/arm-none-eabi/4.8.2/../../../../arm-none-eabi/lib/thumb/libstdc++.a(pure.o)
 .ARM.attributes
                0x0000000000000b1f       0x30 /home/linux/devkitPro/devkitARM/bin/../lib/gcc/arm-none-eabi/4.8.2/../../../../arm-none-eabi/lib/thumb/libstdc++.a(bad_cast.o)
 .ARM.attributes
                0x0000000000000b4f       0x30 /home/linux/devkitPro/devkitARM/bin/../lib/gcc/arm-none-eabi/4.8.2/../../../../arm-none-eabi/lib/thumb/libstdc++.a(eh_globals.o)
 .ARM.attributes
                0x0000000000000b7f       0x30 /home/linux/devkitPro/devkitARM/bin/../lib/gcc/arm-none-eabi/4.8.2/../../../../arm-none-eabi/lib/thumb/libstdc++.a(eh_catch.o)
 .ARM.attributes
                0x0000000000000baf       0x30 /home/linux/devkitPro/devkitARM/bin/../lib/gcc/arm-none-eabi/4.8.2/../../../../arm-none-eabi/lib/thumb/libstdc++.a(si_class_type_info.o)
 .ARM.attributes
                0x0000000000000bdf       0x30 /home/linux/devkitPro/devkitARM/bin/../lib/gcc/arm-none-eabi/4.8.2/../../../../arm-none-eabi/lib/thumb/libstdc++.a(eh_unex_handler.o)
 .ARM.attributes
                0x0000000000000c0f       0x30 /home/linux/devkitPro/devkitARM/bin/../lib/gcc/arm-none-eabi/4.8.2/../../../../arm-none-eabi/lib/thumb/libstdc++.a(tinfo.o)
 .ARM.attributes
                0x0000000000000c3f       0x30 /home/linux/devkitPro/devkitARM/bin/../lib/gcc/arm-none-eabi/4.8.2/../../../../arm-none-eabi/lib/thumb/libstdc++.a(bad_typeid.o)
 .ARM.attributes
                0x0000000000000c6f       0x30 /home/linux/devkitPro/devkitARM/bin/../lib/gcc/arm-none-eabi/4.8.2/../../../../arm-none-eabi/lib/thumb/libstdc++.a(eh_term_handler.o)
 .ARM.attributes
                0x0000000000000c9f       0x30 /home/linux/devkitPro/devkitARM/bin/../lib/gcc/arm-none-eabi/4.8.2/../../../../arm-none-eabi/lib/thumb/libstdc++.a(ios_failure.o)
 .ARM.attributes
                0x0000000000000ccf       0x30 /home/linux/devkitPro/devkitARM/bin/../lib/gcc/arm-none-eabi/4.8.2/../../../../arm-none-eabi/lib/thumb/libstdc++.a(stdexcept.o)
 .ARM.attributes
                0x0000000000000cff       0x30 /home/linux/devkitPro/devkitARM/bin/../lib/gcc/arm-none-eabi/4.8.2/../../../../arm-none-eabi/lib/thumb/libstdc++.a(functional.o)
 .ARM.attributes
                0x0000000000000d2f       0x30 /home/linux/devkitPro/devkitARM/bin/../lib/gcc/arm-none-eabi/4.8.2/../../../../arm-none-eabi/lib/thumb/libstdc++.a(future.o)
 .ARM.attributes
                0x0000000000000d5f       0x30 /home/linux/devkitPro/devkitARM/bin/../lib/gcc/arm-none-eabi/4.8.2/../../../../arm-none-eabi/lib/thumb/libstdc++.a(regex.o)
 .ARM.attributes
                0x0000000000000d8f       0x30 /home/linux/devkitPro/devkitARM/bin/../lib/gcc/arm-none-eabi/4.8.2/../../../../arm-none-eabi/lib/thumb/libstdc++.a(system_error.o)
 .ARM.attributes
                0x0000000000000dbf       0x30 /home/linux/devkitPro/devkitARM/bin/../lib/gcc/arm-none-eabi/4.8.2/../../../../arm-none-eabi/lib/thumb/libstdc++.a(guard.o)
 .ARM.attributes
                0x0000000000000def       0x30 /home/linux/devkitPro/devkitARM/bin/../lib/gcc/arm-none-eabi/4.8.2/../../../../arm-none-eabi/lib/thumb/libstdc++.a(vterminate.o)
 .ARM.attributes
                0x0000000000000e1f       0x30 /home/linux/devkitPro/devkitARM/bin/../lib/gcc/arm-none-eabi/4.8.2/../../../../arm-none-eabi/lib/thumb/libstdc++.a(guard_error.o)
 .ARM.attributes
                0x0000000000000e4f       0x30 /home/linux/devkitPro/devkitARM/bin/../lib/gcc/arm-none-eabi/4.8.2/../../../../arm-none-eabi/lib/thumb/libstdc++.a(eh_type.o)
 .ARM.attributes
                0x0000000000000e7f       0x30 /home/linux/devkitPro/devkitARM/bin/../lib/gcc/arm-none-eabi/4.8.2/../../../../arm-none-eabi/lib/thumb/libstdc++.a(cp-demangle.o)
 .ARM.attributes
                0x0000000000000eaf       0x30 /home/linux/devkitPro/devkitARM/bin/../lib/gcc/arm-none-eabi/4.8.2/../../../../arm-none-eabi/lib/thumb/libm.a(lib_a-w_sqrt.o)
 .ARM.attributes
                0x0000000000000edf       0x30 /home/linux/devkitPro/devkitARM/bin/../lib/gcc/arm-none-eabi/4.8.2/../../../../arm-none-eabi/lib/thumb/libm.a(lib_a-e_sqrt.o)
 .ARM.attributes
                0x0000000000000f0f       0x30 /home/linux/devkitPro/devkitARM/bin/../lib/gcc/arm-none-eabi/4.8.2/../../../../arm-none-eabi/lib/thumb/libm.a(lib_a-s_fpclassify.o)
 .ARM.attributes
                0x0000000000000f3f       0x30 /home/linux/devkitPro/devkitARM/bin/../lib/gcc/arm-none-eabi/4.8.2/../../../../arm-none-eabi/lib/thumb/libm.a(lib_a-s_lib_ver.o)
 .ARM.attributes
                0x0000000000000f6f       0x30 /home/linux/devkitPro/devkitARM/bin/../lib/gcc/arm-none-eabi/4.8.2/../../../../arm-none-eabi/lib/thumb/libm.a(lib_a-s_matherr.o)
 .ARM.attributes
                0x0000000000000f9f       0x18 /home/linux/devkitPro/devkitARM/bin/../lib/gcc/arm-none-eabi/4.8.2/thumb/libgcc.a(_udivsi3.o)
 .ARM.attributes
                0x0000000000000fb7       0x18 /home/linux/devkitPro/devkitARM/bin/../lib/gcc/arm-none-eabi/4.8.2/thumb/libgcc.a(_divsi3.o)
 .ARM.attributes
                0x0000000000000fcf       0x16 /home/linux/devkitPro/devkitARM/bin/../lib/gcc/arm-none-eabi/4.8.2/thumb/libgcc.a(_dvmd_tls.o)
 .ARM.attributes
                0x0000000000000fe5       0x18 /home/linux/devkitPro/devkitARM/bin/../lib/gcc/arm-none-eabi/4.8.2/thumb/libgcc.a(_arm_addsubdf3.o)
 .ARM.attributes
                0x0000000000000ffd       0x18 /home/linux/devkitPro/devkitARM/bin/../lib/gcc/arm-none-eabi/4.8.2/thumb/libgcc.a(_arm_muldivdf3.o)
 .ARM.attributes
                0x0000000000001015       0x18 /home/linux/devkitPro/devkitARM/bin/../lib/gcc/arm-none-eabi/4.8.2/thumb/libgcc.a(_arm_cmpdf2.o)
 .ARM.attributes
                0x000000000000102d       0x18 /home/linux/devkitPro/devkitARM/bin/../lib/gcc/arm-none-eabi/4.8.2/thumb/libgcc.a(_arm_fixunsdfsi.o)
 .ARM.attributes
                0x0000000000001045       0x30 /home/linux/devkitPro/devkitARM/bin/../lib/gcc/arm-none-eabi/4.8.2/thumb/libgcc.a(_muldi3.o)
 .ARM.attributes
                0x0000000000001075       0x30 /home/linux/devkitPro/devkitARM/bin/../lib/gcc/arm-none-eabi/4.8.2/thumb/libgcc.a(unwind-arm.o)
 .ARM.attributes
                0x00000000000010a5       0x1c /home/linux/devkitPro/devkitARM/bin/../lib/gcc/arm-none-eabi/4.8.2/thumb/libgcc.a(libunwind.o)
 .ARM.attributes
                0x00000000000010c1       0x30 /home/linux/devkitPro/devkitARM/bin/../lib/gcc/arm-none-eabi/4.8.2/thumb/libgcc.a(pr-support.o)
 .ARM.attributes
                0x00000000000010f1       0x30 /home/linux/devkitPro/devkitARM/bin/../lib/gcc/arm-none-eabi/4.8.2/../../../../arm-none-eabi/lib/thumb/libg.a(lib_a-abort.o)
 .ARM.attributes
                0x0000000000001121       0x30 /home/linux/devkitPro/devkitARM/bin/../lib/gcc/arm-none-eabi/4.8.2/../../../../arm-none-eabi/lib/thumb/libg.a(lib_a-bsearch.o)
 .ARM.attributes
                0x0000000000001151       0x30 /home/linux/devkitPro/devkitARM/bin/../lib/gcc/arm-none-eabi/4.8.2/../../../../arm-none-eabi/lib/thumb/libg.a(lib_a-ctype_.o)
 .ARM.attributes
                0x0000000000001181       0x30 /home/linux/devkitPro/devkitARM/bin/../lib/gcc/arm-none-eabi/4.8.2/../../../../arm-none-eabi/lib/thumb/libg.a(lib_a-cxa_atexit.o)
 .ARM.attributes
                0x00000000000011b1       0x30 /home/linux/devkitPro/devkitARM/bin/../lib/gcc/arm-none-eabi/4.8.2/../../../../arm-none-eabi/lib/thumb/libg.a(lib_a-errno.o)
 .ARM.attributes
                0x00000000000011e1       0x30 /home/linux/devkitPro/devkitARM/bin/../lib/gcc/arm-none-eabi/4.8.2/../../../../arm-none-eabi/lib/thumb/libg.a(lib_a-fclose.o)
 .ARM.attributes
                0x0000000000001211       0x30 /home/linux/devkitPro/devkitARM/bin/../lib/gcc/arm-none-eabi/4.8.2/../../../../arm-none-eabi/lib/thumb/libg.a(lib_a-fflush.o)
 .ARM.attributes
                0x0000000000001241       0x30 /home/linux/devkitPro/devkitARM/bin/../lib/gcc/arm-none-eabi/4.8.2/../../../../arm-none-eabi/lib/thumb/libg.a(lib_a-findfp.o)
 .ARM.attributes
                0x0000000000001271       0x30 /home/linux/devkitPro/devkitARM/bin/../lib/gcc/arm-none-eabi/4.8.2/../../../../arm-none-eabi/lib/thumb/libg.a(lib_a-fopen.o)
 .ARM.attributes
                0x00000000000012a1       0x30 /home/linux/devkitPro/devkitARM/bin/../lib/gcc/arm-none-eabi/4.8.2/../../../../arm-none-eabi/lib/thumb/libg.a(lib_a-fputc.o)
 .ARM.attributes
                0x00000000000012d1       0x30 /home/linux/devkitPro/devkitARM/bin/../lib/gcc/arm-none-eabi/4.8.2/../../../../arm-none-eabi/lib/thumb/libg.a(lib_a-fputs.o)
 .ARM.attributes
                0x0000000000001301       0x30 /home/linux/devkitPro/devkitARM/bin/../lib/gcc/arm-none-eabi/4.8.2/../../../../arm-none-eabi/lib/thumb/libg.a(lib_a-fread.o)
 .ARM.attributes
                0x0000000000001331       0x30 /home/linux/devkitPro/devkitARM/bin/../lib/gcc/arm-none-eabi/4.8.2/../../../../arm-none-eabi/lib/thumb/libg.a(lib_a-freer.o)
 .ARM.attributes
                0x0000000000001361       0x30 /home/linux/devkitPro/devkitARM/bin/../lib/gcc/arm-none-eabi/4.8.2/../../../../arm-none-eabi/lib/thumb/libg.a(lib_a-fseek.o)
 .ARM.attributes
                0x0000000000001391       0x30 /home/linux/devkitPro/devkitARM/bin/../lib/gcc/arm-none-eabi/4.8.2/../../../../arm-none-eabi/lib/thumb/libg.a(lib_a-fseeko.o)
 .ARM.attributes
                0x00000000000013c1       0x30 /home/linux/devkitPro/devkitARM/bin/../lib/gcc/arm-none-eabi/4.8.2/../../../../arm-none-eabi/lib/thumb/libg.a(lib_a-fvwrite.o)
 .ARM.attributes
                0x00000000000013f1       0x30 /home/linux/devkitPro/devkitARM/bin/../lib/gcc/arm-none-eabi/4.8.2/../../../../arm-none-eabi/lib/thumb/libg.a(lib_a-fwalk.o)
 .ARM.attributes
                0x0000000000001421       0x30 /home/linux/devkitPro/devkitARM/bin/../lib/gcc/arm-none-eabi/4.8.2/../../../../arm-none-eabi/lib/thumb/libg.a(lib_a-fwrite.o)
 .ARM.attributes
                0x0000000000001451       0x30 /home/linux/devkitPro/devkitARM/bin/../lib/gcc/arm-none-eabi/4.8.2/../../../../arm-none-eabi/lib/thumb/libg.a(lib_a-impure.o)
 .ARM.attributes
                0x0000000000001481       0x30 /home/linux/devkitPro/devkitARM/bin/../lib/gcc/arm-none-eabi/4.8.2/../../../../arm-none-eabi/lib/thumb/libg.a(lib_a-init.o)
 .ARM.attributes
                0x00000000000014b1       0x30 /home/linux/devkitPro/devkitARM/bin/../lib/gcc/arm-none-eabi/4.8.2/../../../../arm-none-eabi/lib/thumb/libg.a(lib_a-iprintf.o)
 .ARM.attributes
                0x00000000000014e1       0x30 /home/linux/devkitPro/devkitARM/bin/../lib/gcc/arm-none-eabi/4.8.2/../../../../arm-none-eabi/lib/thumb/libg.a(lib_a-lcltime_r.o)
 .ARM.attributes
                0x0000000000001511       0x30 /home/linux/devkitPro/devkitARM/bin/../lib/gcc/arm-none-eabi/4.8.2/../../../../arm-none-eabi/lib/thumb/libg.a(lib_a-locale.o)
 .ARM.attributes
                0x0000000000001541       0x30 /home/linux/devkitPro/devkitARM/bin/../lib/gcc/arm-none-eabi/4.8.2/../../../../arm-none-eabi/lib/thumb/libg.a(lib_a-makebuf.o)
 .ARM.attributes
                0x0000000000001571       0x30 /home/linux/devkitPro/devkitARM/bin/../lib/gcc/arm-none-eabi/4.8.2/../../../../arm-none-eabi/lib/thumb/libg.a(lib_a-malloc.o)
 .ARM.attributes
                0x00000000000015a1       0x30 /home/linux/devkitPro/devkitARM/bin/../lib/gcc/arm-none-eabi/4.8.2/../../../../arm-none-eabi/lib/thumb/libg.a(lib_a-mallocr.o)
 .ARM.attributes
                0x00000000000015d1       0x30 /home/linux/devkitPro/devkitARM/bin/../lib/gcc/arm-none-eabi/4.8.2/../../../../arm-none-eabi/lib/thumb/libg.a(lib_a-mbrtowc.o)
 .ARM.attributes
                0x0000000000001601       0x30 /home/linux/devkitPro/devkitARM/bin/../lib/gcc/arm-none-eabi/4.8.2/../../../../arm-none-eabi/lib/thumb/libg.a(lib_a-mbsrtowcs.o)
 .ARM.attributes
                0x0000000000001631       0x30 /home/linux/devkitPro/devkitARM/bin/../lib/gcc/arm-none-eabi/4.8.2/../../../../arm-none-eabi/lib/thumb/libg.a(lib_a-mbtowc_r.o)
 .ARM.attributes
                0x0000000000001661       0x30 /home/linux/devkitPro/devkitARM/bin/../lib/gcc/arm-none-eabi/4.8.2/../../../../arm-none-eabi/lib/thumb/libg.a(lib_a-memchr-stub.o)
 .ARM.attributes
                0x0000000000001691       0x30 /home/linux/devkitPro/devkitARM/bin/../lib/gcc/arm-none-eabi/4.8.2/../../../../arm-none-eabi/lib/thumb/libg.a(lib_a-memcmp.o)
 .ARM.attributes
                0x00000000000016c1       0x30 /home/linux/devkitPro/devkitARM/bin/../lib/gcc/arm-none-eabi/4.8.2/../../../../arm-none-eabi/lib/thumb/libg.a(lib_a-memcpy-stub.o)
 .ARM.attributes
                0x00000000000016f1       0x30 /home/linux/devkitPro/devkitARM/bin/../lib/gcc/arm-none-eabi/4.8.2/../../../../arm-none-eabi/lib/thumb/libg.a(lib_a-memmove.o)
 .ARM.attributes
                0x0000000000001721       0x30 /home/linux/devkitPro/devkitARM/bin/../lib/gcc/arm-none-eabi/4.8.2/../../../../arm-none-eabi/lib/thumb/libg.a(lib_a-memset.o)
 .ARM.attributes
                0x0000000000001751       0x30 /home/linux/devkitPro/devkitARM/bin/../lib/gcc/arm-none-eabi/4.8.2/../../../../arm-none-eabi/lib/thumb/libg.a(lib_a-mktime.o)
 .ARM.attributes
                0x0000000000001781       0x30 /home/linux/devkitPro/devkitARM/bin/../lib/gcc/arm-none-eabi/4.8.2/../../../../arm-none-eabi/lib/thumb/libg.a(lib_a-mktm_r.o)
 .ARM.attributes
                0x00000000000017b1       0x30 /home/linux/devkitPro/devkitARM/bin/../lib/gcc/arm-none-eabi/4.8.2/../../../../arm-none-eabi/lib/thumb/libg.a(lib_a-mlock.o)
 .ARM.attributes
                0x00000000000017e1       0x30 /home/linux/devkitPro/devkitARM/bin/../lib/gcc/arm-none-eabi/4.8.2/../../../../arm-none-eabi/lib/thumb/libg.a(lib_a-printf.o)
 .ARM.attributes
                0x0000000000001811       0x30 /home/linux/devkitPro/devkitARM/bin/../lib/gcc/arm-none-eabi/4.8.2/../../../../arm-none-eabi/lib/thumb/libg.a(lib_a-putc.o)
 .ARM.attributes
                0x0000000000001841       0x30 /home/linux/devkitPro/devkitARM/bin/../lib/gcc/arm-none-eabi/4.8.2/../../../../arm-none-eabi/lib/thumb/libg.a(lib_a-puts.o)
 .ARM.attributes
                0x0000000000001871       0x30 /home/linux/devkitPro/devkitARM/bin/../lib/gcc/arm-none-eabi/4.8.2/../../../../arm-none-eabi/lib/thumb/libg.a(lib_a-realloc.o)
 .ARM.attributes
                0x00000000000018a1       0x30 /home/linux/devkitPro/devkitARM/bin/../lib/gcc/arm-none-eabi/4.8.2/../../../../arm-none-eabi/lib/thumb/libg.a(lib_a-reallocr.o)
 .ARM.attributes
                0x00000000000018d1       0x30 /home/linux/devkitPro/devkitARM/bin/../lib/gcc/arm-none-eabi/4.8.2/../../../../arm-none-eabi/lib/thumb/libg.a(lib_a-refill.o)
 .ARM.attributes
                0x0000000000001901       0x30 /home/linux/devkitPro/devkitARM/bin/../lib/gcc/arm-none-eabi/4.8.2/../../../../arm-none-eabi/lib/thumb/libg.a(lib_a-setvbuf.o)
 .ARM.attributes
                0x0000000000001931       0x30 /home/linux/devkitPro/devkitARM/bin/../lib/gcc/arm-none-eabi/4.8.2/../../../../arm-none-eabi/lib/thumb/libg.a(lib_a-signal.o)
 .ARM.attributes
                0x0000000000001961       0x30 /home/linux/devkitPro/devkitARM/bin/../lib/gcc/arm-none-eabi/4.8.2/../../../../arm-none-eabi/lib/thumb/libg.a(lib_a-siscanf.o)
 .ARM.attributes
                0x0000000000001991       0x30 /home/linux/devkitPro/devkitARM/bin/../lib/gcc/arm-none-eabi/4.8.2/../../../../arm-none-eabi/lib/thumb/libg.a(lib_a-sprintf.o)
 .ARM.attributes
                0x00000000000019c1       0x30 /home/linux/devkitPro/devkitARM/bin/../lib/gcc/arm-none-eabi/4.8.2/../../../../arm-none-eabi/lib/thumb/libg.a(lib_a-stdio.o)
 .ARM.attributes
                0x00000000000019f1       0x30 /home/linux/devkitPro/devkitARM/bin/../lib/gcc/arm-none-eabi/4.8.2/../../../../arm-none-eabi/lib/thumb/libg.a(lib_a-stpcpy.o)
 .ARM.attributes
                0x0000000000001a21       0x30 /home/linux/devkitPro/devkitARM/bin/../lib/gcc/arm-none-eabi/4.8.2/../../../../arm-none-eabi/lib/thumb/libg.a(lib_a-strcasecmp.o)
 .ARM.attributes
                0x0000000000001a51       0x30 /home/linux/devkitPro/devkitARM/bin/../lib/gcc/arm-none-eabi/4.8.2/../../../../arm-none-eabi/lib/thumb/libg.a(lib_a-strcat.o)
 .ARM.attributes
                0x0000000000001a81       0x30 /home/linux/devkitPro/devkitARM/bin/../lib/gcc/arm-none-eabi/4.8.2/../../../../arm-none-eabi/lib/thumb/libg.a(lib_a-strchr.o)
 .ARM.attributes
                0x0000000000001ab1       0x1c /home/linux/devkitPro/devkitARM/bin/../lib/gcc/arm-none-eabi/4.8.2/../../../../arm-none-eabi/lib/thumb/libg.a(lib_a-strcmp.o)
 .ARM.attributes
                0x0000000000001acd       0x30 /home/linux/devkitPro/devkitARM/bin/../lib/gcc/arm-none-eabi/4.8.2/../../../../arm-none-eabi/lib/thumb/libg.a(lib_a-strcpy.o)
 .ARM.attributes
                0x0000000000001afd       0x30 /home/linux/devkitPro/devkitARM/bin/../lib/gcc/arm-none-eabi/4.8.2/../../../../arm-none-eabi/lib/thumb/libg.a(lib_a-strdup.o)
 .ARM.attributes
                0x0000000000001b2d       0x30 /home/linux/devkitPro/devkitARM/bin/../lib/gcc/arm-none-eabi/4.8.2/../../../../arm-none-eabi/lib/thumb/libg.a(lib_a-strdup_r.o)
 .ARM.attributes
                0x0000000000001b5d       0x30 /home/linux/devkitPro/devkitARM/bin/../lib/gcc/arm-none-eabi/4.8.2/../../../../arm-none-eabi/lib/thumb/libg.a(lib_a-strerror.o)
 .ARM.attributes
                0x0000000000001b8d       0x30 /home/linux/devkitPro/devkitARM/bin/../lib/gcc/arm-none-eabi/4.8.2/../../../../arm-none-eabi/lib/thumb/libg.a(lib_a-strlcpy.o)
 .ARM.attributes
                0x0000000000001bbd       0x30 /home/linux/devkitPro/devkitARM/bin/../lib/gcc/arm-none-eabi/4.8.2/../../../../arm-none-eabi/lib/thumb/libg.a(lib_a-strlen.o)
 .ARM.attributes
                0x0000000000001bed       0x30 /home/linux/devkitPro/devkitARM/bin/../lib/gcc/arm-none-eabi/4.8.2/../../../../arm-none-eabi/lib/thumb/libg.a(lib_a-strncasecmp.o)
 .ARM.attributes
                0x0000000000001c1d       0x30 /home/linux/devkitPro/devkitARM/bin/../lib/gcc/arm-none-eabi/4.8.2/../../../../arm-none-eabi/lib/thumb/libg.a(lib_a-strncmp.o)
 .ARM.attributes
                0x0000000000001c4d       0x30 /home/linux/devkitPro/devkitARM/bin/../lib/gcc/arm-none-eabi/4.8.2/../../../../arm-none-eabi/lib/thumb/libg.a(lib_a-strncpy.o)
 .ARM.attributes
                0x0000000000001c7d       0x30 /home/linux/devkitPro/devkitARM/bin/../lib/gcc/arm-none-eabi/4.8.2/../../../../arm-none-eabi/lib/thumb/libg.a(lib_a-strnlen.o)
 .ARM.attributes
                0x0000000000001cad       0x30 /home/linux/devkitPro/devkitARM/bin/../lib/gcc/arm-none-eabi/4.8.2/../../../../arm-none-eabi/lib/thumb/libg.a(lib_a-strpbrk.o)
 .ARM.attributes
                0x0000000000001cdd       0x30 /home/linux/devkitPro/devkitARM/bin/../lib/gcc/arm-none-eabi/4.8.2/../../../../arm-none-eabi/lib/thumb/libg.a(lib_a-strrchr.o)
 .ARM.attributes
                0x0000000000001d0d       0x30 /home/linux/devkitPro/devkitARM/bin/../lib/gcc/arm-none-eabi/4.8.2/../../../../arm-none-eabi/lib/thumb/libg.a(lib_a-strtol.o)
 .ARM.attributes
                0x0000000000001d3d       0x30 /home/linux/devkitPro/devkitARM/bin/../lib/gcc/arm-none-eabi/4.8.2/../../../../arm-none-eabi/lib/thumb/libg.a(lib_a-svfiscanf.o)
 .ARM.attributes
                0x0000000000001d6d       0x30 /home/linux/devkitPro/devkitARM/bin/../lib/gcc/arm-none-eabi/4.8.2/../../../../arm-none-eabi/lib/thumb/libg.a(lib_a-svfprintf.o)
 .ARM.attributes
                0x0000000000001d9d       0x30 /home/linux/devkitPro/devkitARM/bin/../lib/gcc/arm-none-eabi/4.8.2/../../../../arm-none-eabi/lib/thumb/libg.a(lib_a-sysclose.o)
 .ARM.attributes
                0x0000000000001dcd       0x30 /home/linux/devkitPro/devkitARM/bin/../lib/gcc/arm-none-eabi/4.8.2/../../../../arm-none-eabi/lib/thumb/libg.a(lib_a-syslseek.o)
 .ARM.attributes
                0x0000000000001dfd       0x30 /home/linux/devkitPro/devkitARM/bin/../lib/gcc/arm-none-eabi/4.8.2/../../../../arm-none-eabi/lib/thumb/libg.a(lib_a-sysopen.o)
 .ARM.attributes
                0x0000000000001e2d       0x30 /home/linux/devkitPro/devkitARM/bin/../lib/gcc/arm-none-eabi/4.8.2/../../../../arm-none-eabi/lib/thumb/libg.a(lib_a-sysread.o)
 .ARM.attributes
                0x0000000000001e5d       0x30 /home/linux/devkitPro/devkitARM/bin/../lib/gcc/arm-none-eabi/4.8.2/../../../../arm-none-eabi/lib/thumb/libg.a(lib_a-syswrite.o)
 .ARM.attributes
                0x0000000000001e8d       0x30 /home/linux/devkitPro/devkitARM/bin/../lib/gcc/arm-none-eabi/4.8.2/../../../../arm-none-eabi/lib/thumb/libg.a(lib_a-time.o)
 .ARM.attributes
                0x0000000000001ebd       0x30 /home/linux/devkitPro/devkitARM/bin/../lib/gcc/arm-none-eabi/4.8.2/../../../../arm-none-eabi/lib/thumb/libg.a(lib_a-towlower.o)
 .ARM.attributes
                0x0000000000001eed       0x30 /home/linux/devkitPro/devkitARM/bin/../lib/gcc/arm-none-eabi/4.8.2/../../../../arm-none-eabi/lib/thumb/libg.a(lib_a-towupper.o)
 .ARM.attributes
                0x0000000000001f1d       0x30 /home/linux/devkitPro/devkitARM/bin/../lib/gcc/arm-none-eabi/4.8.2/../../../../arm-none-eabi/lib/thumb/libg.a(lib_a-tzlock.o)
 .ARM.attributes
                0x0000000000001f4d       0x30 /home/linux/devkitPro/devkitARM/bin/../lib/gcc/arm-none-eabi/4.8.2/../../../../arm-none-eabi/lib/thumb/libg.a(lib_a-tzvars.o)
 .ARM.attributes
                0x0000000000001f7d       0x30 /home/linux/devkitPro/devkitARM/bin/../lib/gcc/arm-none-eabi/4.8.2/../../../../arm-none-eabi/lib/thumb/libg.a(lib_a-ungetc.o)
 .ARM.attributes
                0x0000000000001fad       0x30 /home/linux/devkitPro/devkitARM/bin/../lib/gcc/arm-none-eabi/4.8.2/../../../../arm-none-eabi/lib/thumb/libg.a(lib_a-u_strerr.o)
 .ARM.attributes
                0x0000000000001fdd       0x30 /home/linux/devkitPro/devkitARM/bin/../lib/gcc/arm-none-eabi/4.8.2/../../../../arm-none-eabi/lib/thumb/libg.a(lib_a-vfiprintf.o)
 .ARM.attributes
                0x000000000000200d       0x30 /home/linux/devkitPro/devkitARM/bin/../lib/gcc/arm-none-eabi/4.8.2/../../../../arm-none-eabi/lib/thumb/libg.a(lib_a-vfprintf.o)
 .ARM.attributes
                0x000000000000203d       0x30 /home/linux/devkitPro/devkitARM/bin/../lib/gcc/arm-none-eabi/4.8.2/../../../../arm-none-eabi/lib/thumb/libg.a(lib_a-viprintf.o)
 .ARM.attributes
                0x000000000000206d       0x30 /home/linux/devkitPro/devkitARM/bin/../lib/gcc/arm-none-eabi/4.8.2/../../../../arm-none-eabi/lib/thumb/libg.a(lib_a-wbuf.o)
 .ARM.attributes
                0x000000000000209d       0x30 /home/linux/devkitPro/devkitARM/bin/../lib/gcc/arm-none-eabi/4.8.2/../../../../arm-none-eabi/lib/thumb/libg.a(lib_a-wcrtomb.o)
 .ARM.attributes
                0x00000000000020cd       0x30 /home/linux/devkitPro/devkitARM/bin/../lib/gcc/arm-none-eabi/4.8.2/../../../../arm-none-eabi/lib/thumb/libg.a(lib_a-wcsrtombs.o)
 .ARM.attributes
                0x00000000000020fd       0x30 /home/linux/devkitPro/devkitARM/bin/../lib/gcc/arm-none-eabi/4.8.2/../../../../arm-none-eabi/lib/thumb/libg.a(lib_a-wctob.o)
 .ARM.attributes
                0x000000000000212d       0x30 /home/linux/devkitPro/devkitARM/bin/../lib/gcc/arm-none-eabi/4.8.2/../../../../arm-none-eabi/lib/thumb/libg.a(lib_a-wctomb_r.o)
 .ARM.attributes
                0x000000000000215d       0x30 /home/linux/devkitPro/devkitARM/bin/../lib/gcc/arm-none-eabi/4.8.2/../../../../arm-none-eabi/lib/thumb/libg.a(lib_a-wsetup.o)
 .ARM.attributes
                0x000000000000218d       0x30 /home/linux/devkitPro/devkitARM/bin/../lib/gcc/arm-none-eabi/4.8.2/../../../../arm-none-eabi/lib/thumb/libg.a(lib_a-__atexit.o)
 .ARM.attributes
                0x00000000000021bd       0x30 /home/linux/devkitPro/devkitARM/bin/../lib/gcc/arm-none-eabi/4.8.2/../../../../arm-none-eabi/lib/thumb/libg.a(lib_a-div.o)
 .ARM.attributes
                0x00000000000021ed       0x30 /home/linux/devkitPro/devkitARM/bin/../lib/gcc/arm-none-eabi/4.8.2/../../../../arm-none-eabi/lib/thumb/libg.a(lib_a-dtoa.o)
 .ARM.attributes
                0x000000000000221d       0x30 /home/linux/devkitPro/devkitARM/bin/../lib/gcc/arm-none-eabi/4.8.2/../../../../arm-none-eabi/lib/thumb/libg.a(lib_a-flags.o)
 .ARM.attributes
                0x000000000000224d       0x30 /home/linux/devkitPro/devkitARM/bin/../lib/gcc/arm-none-eabi/4.8.2/../../../../arm-none-eabi/lib/thumb/libg.a(lib_a-fputwc.o)
 .ARM.attributes
                0x000000000000227d       0x30 /home/linux/devkitPro/devkitARM/bin/../lib/gcc/arm-none-eabi/4.8.2/../../../../arm-none-eabi/lib/thumb/libg.a(lib_a-getenv_r.o)
 .ARM.attributes
                0x00000000000022ad       0x30 /home/linux/devkitPro/devkitARM/bin/../lib/gcc/arm-none-eabi/4.8.2/../../../../arm-none-eabi/lib/thumb/libg.a(lib_a-gettzinfo.o)
 .ARM.attributes
                0x00000000000022dd       0x30 /home/linux/devkitPro/devkitARM/bin/../lib/gcc/arm-none-eabi/4.8.2/../../../../arm-none-eabi/lib/thumb/libg.a(lib_a-iswspace.o)
 .ARM.attributes
                0x000000000000230d       0x30 /home/linux/devkitPro/devkitARM/bin/../lib/gcc/arm-none-eabi/4.8.2/../../../../arm-none-eabi/lib/thumb/libg.a(lib_a-jp2uc.o)
 .ARM.attributes
                0x000000000000233d       0x30 /home/linux/devkitPro/devkitARM/bin/../lib/gcc/arm-none-eabi/4.8.2/../../../../arm-none-eabi/lib/thumb/libg.a(lib_a-mbsnrtowcs.o)
 .ARM.attributes
                0x000000000000236d       0x30 /home/linux/devkitPro/devkitARM/bin/../lib/gcc/arm-none-eabi/4.8.2/../../../../arm-none-eabi/lib/thumb/libg.a(lib_a-mprec.o)
 .ARM.attributes
                0x000000000000239d       0x30 /home/linux/devkitPro/devkitARM/bin/../lib/gcc/arm-none-eabi/4.8.2/../../../../arm-none-eabi/lib/thumb/libg.a(lib_a-sccl.o)
 .ARM.attributes
                0x00000000000023cd       0x30 /home/linux/devkitPro/devkitARM/bin/../lib/gcc/arm-none-eabi/4.8.2/../../../../arm-none-eabi/lib/thumb/libg.a(lib_a-strtoll_r.o)
 .ARM.attributes
                0x00000000000023fd       0x30 /home/linux/devkitPro/devkitARM/bin/../lib/gcc/arm-none-eabi/4.8.2/../../../../arm-none-eabi/lib/thumb/libg.a(lib_a-strtoull_r.o)
 .ARM.attributes
                0x000000000000242d       0x30 /home/linux/devkitPro/devkitARM/bin/../lib/gcc/arm-none-eabi/4.8.2/../../../../arm-none-eabi/lib/thumb/libg.a(lib_a-strtoul.o)
 .ARM.attributes
                0x000000000000245d       0x30 /home/linux/devkitPro/devkitARM/bin/../lib/gcc/arm-none-eabi/4.8.2/../../../../arm-none-eabi/lib/thumb/libg.a(lib_a-svfiprintf.o)
 .ARM.attributes
                0x000000000000248d       0x30 /home/linux/devkitPro/devkitARM/bin/../lib/gcc/arm-none-eabi/4.8.2/../../../../arm-none-eabi/lib/thumb/libg.a(lib_a-wcsnrtombs.o)
 .ARM.attributes
                0x00000000000024bd       0x30 /home/linux/devkitPro/devkitARM/bin/../lib/gcc/arm-none-eabi/4.8.2/../../../../arm-none-eabi/lib/thumb/libg.a(lib_a-callocr.o)
 .ARM.attributes
                0x00000000000024ed       0x30 /home/linux/devkitPro/devkitARM/bin/../lib/gcc/arm-none-eabi/4.8.2/../../../../arm-none-eabi/lib/thumb/libg.a(lib_a-environ.o)
 .ARM.attributes
                0x000000000000251d       0x30 /home/linux/devkitPro/devkitARM/bin/../lib/gcc/arm-none-eabi/4.8.2/../../../../arm-none-eabi/lib/thumb/libg.a(lib_a-envlock.o)
 .ARM.attributes
                0x000000000000254d       0x30 /home/linux/devkitPro/devkitARM/bin/../lib/gcc/arm-none-eabi/4.8.2/../../../../arm-none-eabi/lib/thumb/libsysbase.a(iosupport.o)
 .ARM.attributes
                0x000000000000257d       0x30 /home/linux/devkitPro/devkitARM/bin/../lib/gcc/arm-none-eabi/4.8.2/../../../../arm-none-eabi/lib/thumb/libsysbase.a(close.o)
 .ARM.attributes
                0x00000000000025ad       0x30 /home/linux/devkitPro/devkitARM/bin/../lib/gcc/arm-none-eabi/4.8.2/../../../../arm-none-eabi/lib/thumb/libsysbase.a(fstat.o)
 .ARM.attributes
                0x00000000000025dd       0x30 /home/linux/devkitPro/devkitARM/bin/../lib/gcc/arm-none-eabi/4.8.2/../../../../arm-none-eabi/lib/thumb/libsysbase.a(getpid.o)
 .ARM.attributes
                0x000000000000260d       0x30 /home/linux/devkitPro/devkitARM/bin/../lib/gcc/arm-none-eabi/4.8.2/../../../../arm-none-eabi/lib/thumb/libsysbase.a(isatty.o)
 .ARM.attributes
                0x000000000000263d       0x30 /home/linux/devkitPro/devkitARM/bin/../lib/gcc/arm-none-eabi/4.8.2/../../../../arm-none-eabi/lib/thumb/libsysbase.a(kill.o)
 .ARM.attributes
                0x000000000000266d       0x30 /home/linux/devkitPro/devkitARM/bin/../lib/gcc/arm-none-eabi/4.8.2/../../../../arm-none-eabi/lib/thumb/libsysbase.a(lseek.o)
 .ARM.attributes
                0x000000000000269d       0x30 /home/linux/devkitPro/devkitARM/bin/../lib/gcc/arm-none-eabi/4.8.2/../../../../arm-none-eabi/lib/thumb/libsysbase.a(open.o)
 .ARM.attributes
                0x00000000000026cd       0x30 /home/linux/devkitPro/devkitARM/bin/../lib/gcc/arm-none-eabi/4.8.2/../../../../arm-none-eabi/lib/thumb/libsysbase.a(read.o)
 .ARM.attributes
                0x00000000000026fd       0x30 /home/linux/devkitPro/devkitARM/bin/../lib/gcc/arm-none-eabi/4.8.2/../../../../arm-none-eabi/lib/thumb/libsysbase.a(sbrk.o)
 .ARM.attributes
                0x000000000000272d       0x30 /home/linux/devkitPro/devkitARM/bin/../lib/gcc/arm-none-eabi/4.8.2/../../../../arm-none-eabi/lib/thumb/libsysbase.a(times.o)
 .ARM.attributes
                0x000000000000275d       0x30 /home/linux/devkitPro/devkitARM/bin/../lib/gcc/arm-none-eabi/4.8.2/../../../../arm-none-eabi/lib/thumb/libsysbase.a(write.o)
 .ARM.attributes
                0x000000000000278d       0x30 /home/linux/devkitPro/devkitARM/bin/../lib/gcc/arm-none-eabi/4.8.2/../../../../arm-none-eabi/lib/thumb/libsysbase.a(_exit.o)
 .ARM.attributes
                0x00000000000027bd       0x30 /home/linux/devkitPro/devkitARM/bin/../lib/gcc/arm-none-eabi/4.8.2/../../../../arm-none-eabi/lib/thumb/libsysbase.a(malloc_vars.o)
 .ARM.attributes
                0x00000000000027ed       0x30 /home/linux/devkitPro/devkitARM/bin/../lib/gcc/arm-none-eabi/4.8.2/../../../../arm-none-eabi/lib/thumb/libsysbase.a(chdir.o)
 .ARM.attributes
                0x000000000000281d       0x30 /home/linux/devkitPro/devkitARM/bin/../lib/gcc/arm-none-eabi/4.8.2/../../../../arm-none-eabi/lib/thumb/libsysbase.a(build_argv.o)
 .ARM.attributes
                0x000000000000284d       0x30 /home/linux/devkitPro/devkitARM/bin/../lib/gcc/arm-none-eabi/4.8.2/../../../../arm-none-eabi/lib/thumb/libsysbase.a(syscall_support.o)
 .ARM.attributes
                0x000000000000287d       0x30 /home/linux/devkitPro/devkitARM/bin/../lib/gcc/arm-none-eabi/4.8.2/../../../../arm-none-eabi/lib/thumb/libsysbase.a(handle_manager.o)
 .ARM.attributes
                0x00000000000028ad       0x18 /home/linux/devkitPro/devkitARM/bin/../lib/gcc/arm-none-eabi/4.8.2/thumb/libgcc.a(_arm_fixdfsi.o)
 .ARM.attributes
                0x00000000000028c5       0x18 /home/linux/devkitPro/devkitARM/bin/../lib/gcc/arm-none-eabi/4.8.2/thumb/libgcc.a(_aeabi_uldivmod.o)
 .ARM.attributes
                0x00000000000028dd       0x30 /home/linux/devkitPro/devkitARM/bin/../lib/gcc/arm-none-eabi/4.8.2/thumb/libgcc.a(bpabi.o)
 .ARM.attributes
                0x000000000000290d       0x30 /home/linux/devkitPro/devkitARM/bin/../lib/gcc/arm-none-eabi/4.8.2/thumb/libgcc.a(_divdi3.o)
 .ARM.attributes
                0x000000000000293d       0x30 /home/linux/devkitPro/devkitARM/bin/../lib/gcc/arm-none-eabi/4.8.2/thumb/libgcc.a(_udivdi3.o)
 .ARM.attributes
                0x000000000000296d       0x18 /home/linux/devkitPro/devkitARM/bin/../lib/gcc/arm-none-eabi/4.8.2/thumb/libgcc.a(_clzsi2.o)
 .ARM.attributes
                0x0000000000002985       0x30 /home/linux/devkitPro/devkitARM/bin/../lib/gcc/arm-none-eabi/4.8.2/thumb/crtend.o
 .ARM.attributes
                0x00000000000029b5       0x16 /home/linux/devkitPro/devkitARM/bin/../lib/gcc/arm-none-eabi/4.8.2/thumb/crtn.o

.debug
 *(.debug)

.line
 *(.line)

.debug_srcinfo
 *(.debug_srcinfo)

.debug_sfnames
 *(.debug_sfnames)

.debug_aranges  0x0000000000000000      0x5f8
 *(.debug_aranges)
 .debug_aranges
                0x0000000000000000       0x20 main.o
 .debug_aranges
                0x0000000000000020       0x20 Timer.o
 .debug_aranges
                0x0000000000000040       0x20 Game.o
 .debug_aranges
                0x0000000000000060       0x20 Map.o
 .debug_aranges
                0x0000000000000080       0x20 Sprite.o
 .debug_aranges
                0x00000000000000a0       0x20 Player.o
 .debug_aranges
                0x00000000000000c0       0x20 Character.o
 .debug_aranges
                0x00000000000000e0       0x20 CharacterManager.o
 .debug_aranges
                0x0000000000000100       0x58 MapManager.o
 .debug_aranges
                0x0000000000000158       0x20 libs5.o
 .debug_aranges
                0x0000000000000178       0x20 libs5_asm.o
 .debug_aranges
                0x0000000000000198       0x20 /home/linux/devkitPro/libnds/lib/libfilesystem.a(nitrofs.o)
 .debug_aranges
                0x00000000000001b8       0x20 /home/linux/devkitPro/libnds/lib/libfat.a(libfat.o)
 .debug_aranges
                0x00000000000001d8       0x20 /home/linux/devkitPro/libnds/lib/libfat.a(partition.o)
 .debug_aranges
                0x00000000000001f8       0x20 /home/linux/devkitPro/libnds/lib/libfat.a(cache.o)
 .debug_aranges
                0x0000000000000218       0x20 /home/linux/devkitPro/libnds/lib/libfat.a(directory.o)
 .debug_aranges
                0x0000000000000238       0x20 /home/linux/devkitPro/libnds/lib/libfat.a(disc.o)
 .debug_aranges
                0x0000000000000258       0x20 /home/linux/devkitPro/libnds/lib/libfat.a(fatdir.o)
 .debug_aranges
                0x0000000000000278       0x20 /home/linux/devkitPro/libnds/lib/libfat.a(fatfile.o)
 .debug_aranges
                0x0000000000000298       0x20 /home/linux/devkitPro/libnds/lib/libfat.a(file_allocation_table.o)
 .debug_aranges
                0x00000000000002b8       0x20 /home/linux/devkitPro/libnds/lib/libfat.a(filetime.o)
 .debug_aranges
                0x00000000000002d8       0x20 /home/linux/devkitPro/libnds/lib/libfat.a(lock.o)
 .debug_aranges
                0x00000000000002f8       0x20 /home/linux/devkitPro/libnds/lib/libnds9.a(background.o)
 .debug_aranges
                0x0000000000000318       0x20 /home/linux/devkitPro/libnds/lib/libnds9.a(console.o)
 .debug_aranges
                0x0000000000000338       0x20 /home/linux/devkitPro/libnds/lib/libnds9.a(gurumeditation.o)
 .debug_aranges
                0x0000000000000358       0x20 /home/linux/devkitPro/libnds/lib/libnds9.a(keys.o)
 .debug_aranges
                0x0000000000000378       0x20 /home/linux/devkitPro/libnds/lib/libnds9.a(sassert.o)
 .debug_aranges
                0x0000000000000398       0x20 /home/linux/devkitPro/libnds/lib/libnds9.a(trig.o)
 .debug_aranges
                0x00000000000003b8       0x20 /home/linux/devkitPro/libnds/lib/libnds9.a(dldi.o)
 .debug_aranges
                0x00000000000003d8       0x20 /home/linux/devkitPro/libnds/lib/libnds9.a(dsi_sd.o)
 .debug_aranges
                0x00000000000003f8       0x20 /home/linux/devkitPro/libnds/lib/libnds9.a(initSystem.o)
 .debug_aranges
                0x0000000000000418       0x20 /home/linux/devkitPro/libnds/lib/libnds9.a(card.o)
 .debug_aranges
                0x0000000000000438       0x20 /home/linux/devkitPro/libnds/lib/libnds9.a(fifosystem.o)
 .debug_aranges
                0x0000000000000458       0x20 /home/linux/devkitPro/libnds/lib/libnds9.a(interrupts.o)
 .debug_aranges
                0x0000000000000478       0x20 /home/linux/devkitPro/libnds/lib/libnds9.a(libnds_exit.arm.o)
 .debug_aranges
                0x0000000000000498       0x20 /home/linux/devkitPro/libnds/lib/libnds9.a(dcache.o)
 .debug_aranges
                0x00000000000004b8       0x20 /home/linux/devkitPro/libnds/lib/libnds9.a(exceptionHandler.o)
 .debug_aranges
                0x00000000000004d8       0x20 /home/linux/devkitPro/libnds/lib/libnds9.a(dldi_stub.o)
 .debug_aranges
                0x00000000000004f8       0x20 /home/linux/devkitPro/libnds/lib/libnds9.a(mpu_setup.o)
 .debug_aranges
                0x0000000000000518       0x20 /home/linux/devkitPro/libnds/lib/libnds9.a(biosCalls.o)
 .debug_aranges
                0x0000000000000538       0x20 /home/linux/devkitPro/libnds/lib/libnds9.a(debugprint.o)
 .debug_aranges
                0x0000000000000558       0x20 /home/linux/devkitPro/libnds/lib/libnds9.a(interruptDispatcher.o)
 .debug_aranges
                0x0000000000000578       0x20 /home/linux/devkitPro/libnds/lib/libnds9.a(swiSoftReset.o)
 .debug_aranges
                0x0000000000000598       0x20 /home/linux/devkitPro/libnds/lib/libnds9.a(exceptions.o)
 .debug_aranges
                0x00000000000005b8       0x20 /home/linux/devkitPro/libnds/lib/libnds9.a(system.o)
 .debug_aranges
                0x00000000000005d8       0x20 /home/linux/devkitPro/libnds/lib/libnds9.a(video.o)

.debug_pubnames
 *(.debug_pubnames)

.debug_info     0x0000000000000000    0x37e93
 *(.debug_info)
 .debug_info    0x0000000000000000      0x167 main.o
 .debug_info    0x0000000000000167      0xd9e Timer.o
 .debug_info    0x0000000000000f05     0x49d3 Game.o
 .debug_info    0x00000000000058d8     0x48b6 Map.o
 .debug_info    0x000000000000a18e      0xc32 Sprite.o
 .debug_info    0x000000000000adc0      0xd4d Player.o
 .debug_info    0x000000000000bb0d      0xcfe Character.o
 .debug_info    0x000000000000c80b      0xd76 CharacterManager.o
 .debug_info    0x000000000000d581     0xf744 MapManager.o
 .debug_info    0x000000000001ccc5      0x66e libs5.o
 .debug_info    0x000000000001d333       0x7f libs5_asm.o
 .debug_info    0x000000000001d3b2     0x28a3 /home/linux/devkitPro/libnds/lib/libfilesystem.a(nitrofs.o)
 .debug_info    0x000000000001fc55     0x1cf3 /home/linux/devkitPro/libnds/lib/libfat.a(libfat.o)
 .debug_info    0x0000000000021948     0x27ae /home/linux/devkitPro/libnds/lib/libfat.a(partition.o)
 .debug_info    0x00000000000240f6      0xe1e /home/linux/devkitPro/libnds/lib/libfat.a(cache.o)
 .debug_info    0x0000000000024f14     0x2a8c /home/linux/devkitPro/libnds/lib/libfat.a(directory.o)
 .debug_info    0x00000000000279a0      0x24b /home/linux/devkitPro/libnds/lib/libfat.a(disc.o)
 .debug_info    0x0000000000027beb     0x2537 /home/linux/devkitPro/libnds/lib/libfat.a(fatdir.o)
 .debug_info    0x000000000002a122     0x2fd9 /home/linux/devkitPro/libnds/lib/libfat.a(fatfile.o)
 .debug_info    0x000000000002d0fb      0xd21 /home/linux/devkitPro/libnds/lib/libfat.a(file_allocation_table.o)
 .debug_info    0x000000000002de1c      0x28d /home/linux/devkitPro/libnds/lib/libfat.a(filetime.o)
 .debug_info    0x000000000002e0a9      0x124 /home/linux/devkitPro/libnds/lib/libfat.a(lock.o)
 .debug_info    0x000000000002e1cd      0x91a /home/linux/devkitPro/libnds/lib/libnds9.a(background.o)
 .debug_info    0x000000000002eae7     0x2230 /home/linux/devkitPro/libnds/lib/libnds9.a(console.o)
 .debug_info    0x0000000000030d17      0x8df /home/linux/devkitPro/libnds/lib/libnds9.a(gurumeditation.o)
 .debug_info    0x00000000000315f6      0x414 /home/linux/devkitPro/libnds/lib/libnds9.a(keys.o)
 .debug_info    0x0000000000031a0a      0x56a /home/linux/devkitPro/libnds/lib/libnds9.a(sassert.o)
 .debug_info    0x0000000000031f74      0x552 /home/linux/devkitPro/libnds/lib/libnds9.a(trig.o)
 .debug_info    0x00000000000324c6      0x798 /home/linux/devkitPro/libnds/lib/libnds9.a(dldi.o)
 .debug_info    0x0000000000032c5e      0x94f /home/linux/devkitPro/libnds/lib/libnds9.a(dsi_sd.o)
 .debug_info    0x00000000000335ad      0xf4e /home/linux/devkitPro/libnds/lib/libnds9.a(initSystem.o)
 .debug_info    0x00000000000344fb      0x4c2 /home/linux/devkitPro/libnds/lib/libnds9.a(card.o)
 .debug_info    0x00000000000349bd     0x1522 /home/linux/devkitPro/libnds/lib/libnds9.a(fifosystem.o)
 .debug_info    0x0000000000035edf      0x5ac /home/linux/devkitPro/libnds/lib/libnds9.a(interrupts.o)
 .debug_info    0x000000000003648b      0x327 /home/linux/devkitPro/libnds/lib/libnds9.a(libnds_exit.arm.o)
 .debug_info    0x00000000000367b2       0xba /home/linux/devkitPro/libnds/lib/libnds9.a(dcache.o)
 .debug_info    0x000000000003686c       0xc4 /home/linux/devkitPro/libnds/lib/libnds9.a(exceptionHandler.o)
 .debug_info    0x0000000000036930       0xc2 /home/linux/devkitPro/libnds/lib/libnds9.a(dldi_stub.o)
 .debug_info    0x00000000000369f2       0xc4 /home/linux/devkitPro/libnds/lib/libnds9.a(mpu_setup.o)
 .debug_info    0x0000000000036ab6       0xbf /home/linux/devkitPro/libnds/lib/libnds9.a(biosCalls.o)
 .debug_info    0x0000000000036b75       0xc0 /home/linux/devkitPro/libnds/lib/libnds9.a(debugprint.o)
 .debug_info    0x0000000000036c35       0xc9 /home/linux/devkitPro/libnds/lib/libnds9.a(interruptDispatcher.o)
 .debug_info    0x0000000000036cfe       0xc2 /home/linux/devkitPro/libnds/lib/libnds9.a(swiSoftReset.o)
 .debug_info    0x0000000000036dc0       0xed /home/linux/devkitPro/libnds/lib/libnds9.a(exceptions.o)
 .debug_info    0x0000000000036ead      0x8be /home/linux/devkitPro/libnds/lib/libnds9.a(system.o)
 .debug_info    0x000000000003776b      0x728 /home/linux/devkitPro/libnds/lib/libnds9.a(video.o)

.debug_abbrev   0x0000000000000000     0x7684
 *(.debug_abbrev)
 .debug_abbrev  0x0000000000000000      0x110 main.o
 .debug_abbrev  0x0000000000000110      0x334 Timer.o
 .debug_abbrev  0x0000000000000444      0x77f Game.o
 .debug_abbrev  0x0000000000000bc3      0x878 Map.o
 .debug_abbrev  0x000000000000143b      0x2de Sprite.o
 .debug_abbrev  0x0000000000001719      0x320 Player.o
 .debug_abbrev  0x0000000000001a39      0x320 Character.o
 .debug_abbrev  0x0000000000001d59      0x374 CharacterManager.o
 .debug_abbrev  0x00000000000020cd      0xbbc MapManager.o
 .debug_abbrev  0x0000000000002c89      0x150 libs5.o
 .debug_abbrev  0x0000000000002dd9       0x14 libs5_asm.o
 .debug_abbrev  0x0000000000002ded      0x4bc /home/linux/devkitPro/libnds/lib/libfilesystem.a(nitrofs.o)
 .debug_abbrev  0x00000000000032a9      0x3b9 /home/linux/devkitPro/libnds/lib/libfat.a(libfat.o)
 .debug_abbrev  0x0000000000003662      0x46f /home/linux/devkitPro/libnds/lib/libfat.a(partition.o)
 .debug_abbrev  0x0000000000003ad1      0x316 /home/linux/devkitPro/libnds/lib/libfat.a(cache.o)
 .debug_abbrev  0x0000000000003de7      0x4a7 /home/linux/devkitPro/libnds/lib/libfat.a(directory.o)
 .debug_abbrev  0x000000000000428e       0xe3 /home/linux/devkitPro/libnds/lib/libfat.a(disc.o)
 .debug_abbrev  0x0000000000004371      0x39a /home/linux/devkitPro/libnds/lib/libfat.a(fatdir.o)
 .debug_abbrev  0x000000000000470b      0x4de /home/linux/devkitPro/libnds/lib/libfat.a(fatfile.o)
 .debug_abbrev  0x0000000000004be9      0x2f8 /home/linux/devkitPro/libnds/lib/libfat.a(file_allocation_table.o)
 .debug_abbrev  0x0000000000004ee1       0xf0 /home/linux/devkitPro/libnds/lib/libfat.a(filetime.o)
 .debug_abbrev  0x0000000000004fd1       0x7f /home/linux/devkitPro/libnds/lib/libfat.a(lock.o)
 .debug_abbrev  0x0000000000005050      0x2a6 /home/linux/devkitPro/libnds/lib/libnds9.a(background.o)
 .debug_abbrev  0x00000000000052f6      0x51b /home/linux/devkitPro/libnds/lib/libnds9.a(console.o)
 .debug_abbrev  0x0000000000005811      0x25b /home/linux/devkitPro/libnds/lib/libnds9.a(gurumeditation.o)
 .debug_abbrev  0x0000000000005a6c      0x16b /home/linux/devkitPro/libnds/lib/libnds9.a(keys.o)
 .debug_abbrev  0x0000000000005bd7      0x1c3 /home/linux/devkitPro/libnds/lib/libnds9.a(sassert.o)
 .debug_abbrev  0x0000000000005d9a      0x1ff /home/linux/devkitPro/libnds/lib/libnds9.a(trig.o)
 .debug_abbrev  0x0000000000005f99      0x26f /home/linux/devkitPro/libnds/lib/libnds9.a(dldi.o)
 .debug_abbrev  0x0000000000006208      0x21d /home/linux/devkitPro/libnds/lib/libnds9.a(dsi_sd.o)
 .debug_abbrev  0x0000000000006425      0x2fa /home/linux/devkitPro/libnds/lib/libnds9.a(initSystem.o)
 .debug_abbrev  0x000000000000671f      0x1d5 /home/linux/devkitPro/libnds/lib/libnds9.a(card.o)
 .debug_abbrev  0x00000000000068f4      0x469 /home/linux/devkitPro/libnds/lib/libnds9.a(fifosystem.o)
 .debug_abbrev  0x0000000000006d5d      0x239 /home/linux/devkitPro/libnds/lib/libnds9.a(interrupts.o)
 .debug_abbrev  0x0000000000006f96      0x175 /home/linux/devkitPro/libnds/lib/libnds9.a(libnds_exit.arm.o)
 .debug_abbrev  0x000000000000710b       0x14 /home/linux/devkitPro/libnds/lib/libnds9.a(dcache.o)
 .debug_abbrev  0x000000000000711f       0x14 /home/linux/devkitPro/libnds/lib/libnds9.a(exceptionHandler.o)
 .debug_abbrev  0x0000000000007133       0x14 /home/linux/devkitPro/libnds/lib/libnds9.a(dldi_stub.o)
 .debug_abbrev  0x0000000000007147       0x14 /home/linux/devkitPro/libnds/lib/libnds9.a(mpu_setup.o)
 .debug_abbrev  0x000000000000715b       0x14 /home/linux/devkitPro/libnds/lib/libnds9.a(biosCalls.o)
 .debug_abbrev  0x000000000000716f       0x14 /home/linux/devkitPro/libnds/lib/libnds9.a(debugprint.o)
 .debug_abbrev  0x0000000000007183       0x14 /home/linux/devkitPro/libnds/lib/libnds9.a(interruptDispatcher.o)
 .debug_abbrev  0x0000000000007197       0x14 /home/linux/devkitPro/libnds/lib/libnds9.a(swiSoftReset.o)
 .debug_abbrev  0x00000000000071ab       0x9a /home/linux/devkitPro/libnds/lib/libnds9.a(exceptions.o)
 .debug_abbrev  0x0000000000007245      0x250 /home/linux/devkitPro/libnds/lib/libnds9.a(system.o)
 .debug_abbrev  0x0000000000007495      0x1ef /home/linux/devkitPro/libnds/lib/libnds9.a(video.o)

.debug_line     0x0000000000000000     0x9c63
 *(.debug_line)
 .debug_line    0x0000000000000000       0x9a main.o
 .debug_line    0x000000000000009a      0x226 Timer.o
 .debug_line    0x00000000000002c0      0x6af Game.o
 .debug_line    0x000000000000096f      0x704 Map.o
 .debug_line    0x0000000000001073      0x3d0 Sprite.o
 .debug_line    0x0000000000001443      0x424 Player.o
 .debug_line    0x0000000000001867      0x41a Character.o
 .debug_line    0x0000000000001c81      0x486 CharacterManager.o
 .debug_line    0x0000000000002107      0xd7b MapManager.o
 .debug_line    0x0000000000002e82      0x212 libs5.o
 .debug_line    0x0000000000003094       0xdc libs5_asm.o
 .debug_line    0x0000000000003170      0x5c7 /home/linux/devkitPro/libnds/lib/libfilesystem.a(nitrofs.o)
 .debug_line    0x0000000000003737      0x3a7 /home/linux/devkitPro/libnds/lib/libfat.a(libfat.o)
 .debug_line    0x0000000000003ade      0x66d /home/linux/devkitPro/libnds/lib/libfat.a(partition.o)
 .debug_line    0x000000000000414b      0x3aa /home/linux/devkitPro/libnds/lib/libfat.a(cache.o)
 .debug_line    0x00000000000044f5      0x9d5 /home/linux/devkitPro/libnds/lib/libfat.a(directory.o)
 .debug_line    0x0000000000004eca      0x12c /home/linux/devkitPro/libnds/lib/libfat.a(disc.o)
 .debug_line    0x0000000000004ff6      0x5c2 /home/linux/devkitPro/libnds/lib/libfat.a(fatdir.o)
 .debug_line    0x00000000000055b8      0x9c6 /home/linux/devkitPro/libnds/lib/libfat.a(fatfile.o)
 .debug_line    0x0000000000005f7e      0x389 /home/linux/devkitPro/libnds/lib/libfat.a(file_allocation_table.o)
 .debug_line    0x0000000000006307      0x171 /home/linux/devkitPro/libnds/lib/libfat.a(filetime.o)
 .debug_line    0x0000000000006478       0x72 /home/linux/devkitPro/libnds/lib/libfat.a(lock.o)
 .debug_line    0x00000000000064ea      0x2f1 /home/linux/devkitPro/libnds/lib/libnds9.a(background.o)
 .debug_line    0x00000000000067db      0x6af /home/linux/devkitPro/libnds/lib/libnds9.a(console.o)
 .debug_line    0x0000000000006e8a      0x306 /home/linux/devkitPro/libnds/lib/libnds9.a(gurumeditation.o)
 .debug_line    0x0000000000007190      0x24e /home/linux/devkitPro/libnds/lib/libnds9.a(keys.o)
 .debug_line    0x00000000000073de      0x23f /home/linux/devkitPro/libnds/lib/libnds9.a(sassert.o)
 .debug_line    0x000000000000761d      0x2d7 /home/linux/devkitPro/libnds/lib/libnds9.a(trig.o)
 .debug_line    0x00000000000078f4      0x3af /home/linux/devkitPro/libnds/lib/libnds9.a(dldi.o)
 .debug_line    0x0000000000007ca3      0x24b /home/linux/devkitPro/libnds/lib/libnds9.a(dsi_sd.o)
 .debug_line    0x0000000000007eee      0x386 /home/linux/devkitPro/libnds/lib/libnds9.a(initSystem.o)
 .debug_line    0x0000000000008274      0x21b /home/linux/devkitPro/libnds/lib/libnds9.a(card.o)
 .debug_line    0x000000000000848f      0x6fa /home/linux/devkitPro/libnds/lib/libnds9.a(fifosystem.o)
 .debug_line    0x0000000000008b89      0x28e /home/linux/devkitPro/libnds/lib/libnds9.a(interrupts.o)
 .debug_line    0x0000000000008e17      0x1dd /home/linux/devkitPro/libnds/lib/libnds9.a(libnds_exit.arm.o)
 .debug_line    0x0000000000008ff4       0xa2 /home/linux/devkitPro/libnds/lib/libnds9.a(dcache.o)
 .debug_line    0x0000000000009096       0xb8 /home/linux/devkitPro/libnds/lib/libnds9.a(exceptionHandler.o)
 .debug_line    0x000000000000914e       0x8b /home/linux/devkitPro/libnds/lib/libnds9.a(dldi_stub.o)
 .debug_line    0x00000000000091d9      0x101 /home/linux/devkitPro/libnds/lib/libnds9.a(mpu_setup.o)
 .debug_line    0x00000000000092da       0xc3 /home/linux/devkitPro/libnds/lib/libnds9.a(biosCalls.o)
 .debug_line    0x000000000000939d       0x9f /home/linux/devkitPro/libnds/lib/libnds9.a(debugprint.o)
 .debug_line    0x000000000000943c       0xc7 /home/linux/devkitPro/libnds/lib/libnds9.a(interruptDispatcher.o)
 .debug_line    0x0000000000009503       0x97 /home/linux/devkitPro/libnds/lib/libnds9.a(swiSoftReset.o)
 .debug_line    0x000000000000959a      0x1c6 /home/linux/devkitPro/libnds/lib/libnds9.a(exceptions.o)
 .debug_line    0x0000000000009760      0x295 /home/linux/devkitPro/libnds/lib/libnds9.a(system.o)
 .debug_line    0x00000000000099f5      0x26e /home/linux/devkitPro/libnds/lib/libnds9.a(video.o)

.debug_frame    0x0000000000000000     0x1fcc
 *(.debug_frame)
 .debug_frame   0x0000000000000000       0x28 main.o
 .debug_frame   0x0000000000000028       0x98 Timer.o
 .debug_frame   0x00000000000000c0       0x80 Game.o
 .debug_frame   0x0000000000000140       0xb0 Map.o
 .debug_frame   0x00000000000001f0       0x30 Sprite.o
 .debug_frame   0x0000000000000220       0x40 Player.o
 .debug_frame   0x0000000000000260       0x40 Character.o
 .debug_frame   0x00000000000002a0       0x40 CharacterManager.o
 .debug_frame   0x00000000000002e0      0x17c MapManager.o
 .debug_frame   0x000000000000045c      0x188 libs5.o
 .debug_frame   0x00000000000005e4      0x1a4 /home/linux/devkitPro/libnds/lib/libfilesystem.a(nitrofs.o)
 .debug_frame   0x0000000000000788       0xd8 /home/linux/devkitPro/libnds/lib/libfat.a(libfat.o)
 .debug_frame   0x0000000000000860      0x14c /home/linux/devkitPro/libnds/lib/libfat.a(partition.o)
 .debug_frame   0x00000000000009ac      0x1b0 /home/linux/devkitPro/libnds/lib/libfat.a(cache.o)
 .debug_frame   0x0000000000000b5c      0x280 /home/linux/devkitPro/libnds/lib/libfat.a(directory.o)
 .debug_frame   0x0000000000000ddc       0x20 /home/linux/devkitPro/libnds/lib/libfat.a(disc.o)
 .debug_frame   0x0000000000000dfc      0x17c /home/linux/devkitPro/libnds/lib/libfat.a(fatdir.o)
 .debug_frame   0x0000000000000f78      0x234 /home/linux/devkitPro/libnds/lib/libfat.a(fatfile.o)
 .debug_frame   0x00000000000011ac      0x120 /home/linux/devkitPro/libnds/lib/libfat.a(file_allocation_table.o)
 .debug_frame   0x00000000000012cc       0x58 /home/linux/devkitPro/libnds/lib/libfat.a(filetime.o)
 .debug_frame   0x0000000000001324       0x50 /home/linux/devkitPro/libnds/lib/libfat.a(lock.o)
 .debug_frame   0x0000000000001374       0xb4 /home/linux/devkitPro/libnds/lib/libnds9.a(background.o)
 .debug_frame   0x0000000000001428      0x1ac /home/linux/devkitPro/libnds/lib/libnds9.a(console.o)
 .debug_frame   0x00000000000015d4       0x94 /home/linux/devkitPro/libnds/lib/libnds9.a(gurumeditation.o)
 .debug_frame   0x0000000000001668       0x8c /home/linux/devkitPro/libnds/lib/libnds9.a(keys.o)
 .debug_frame   0x00000000000016f4       0x34 /home/linux/devkitPro/libnds/lib/libnds9.a(sassert.o)
 .debug_frame   0x0000000000001728       0xf0 /home/linux/devkitPro/libnds/lib/libnds9.a(trig.o)
 .debug_frame   0x0000000000001818       0x94 /home/linux/devkitPro/libnds/lib/libnds9.a(dldi.o)
 .debug_frame   0x00000000000018ac       0xa0 /home/linux/devkitPro/libnds/lib/libnds9.a(dsi_sd.o)
 .debug_frame   0x000000000000194c       0x2c /home/linux/devkitPro/libnds/lib/libnds9.a(initSystem.o)
 .debug_frame   0x0000000000001978       0xf4 /home/linux/devkitPro/libnds/lib/libnds9.a(card.o)
 .debug_frame   0x0000000000001a6c      0x2c8 /home/linux/devkitPro/libnds/lib/libnds9.a(fifosystem.o)
 .debug_frame   0x0000000000001d34       0xb4 /home/linux/devkitPro/libnds/lib/libnds9.a(interrupts.o)
 .debug_frame   0x0000000000001de8       0x38 /home/linux/devkitPro/libnds/lib/libnds9.a(libnds_exit.arm.o)
 .debug_frame   0x0000000000001e20       0x20 /home/linux/devkitPro/libnds/lib/libnds9.a(exceptions.o)
 .debug_frame   0x0000000000001e40       0xc8 /home/linux/devkitPro/libnds/lib/libnds9.a(system.o)
 .debug_frame   0x0000000000001f08       0xc4 /home/linux/devkitPro/libnds/lib/libnds9.a(video.o)

.debug_str      0x0000000000000000     0xfc60
 *(.debug_str)
 .debug_str     0x0000000000000000      0x139 main.o
                                        0x14d (size before relaxing)
 .debug_str     0x0000000000000139      0x98b Timer.o
                                        0xa9d (size before relaxing)
 .debug_str     0x0000000000000ac4     0x29dc Game.o
                                       0x3711 (size before relaxing)
 .debug_str     0x00000000000034a0      0x1bf Map.o
                                       0x303c (size before relaxing)
 .debug_str     0x000000000000365f       0x5f Sprite.o
                                        0xa68 (size before relaxing)
 .debug_str     0x00000000000036be       0x7e Player.o
                                        0xab0 (size before relaxing)
 .debug_str     0x000000000000373c       0x61 Character.o
                                        0xaaa (size before relaxing)
 .debug_str     0x000000000000379d       0x93 CharacterManager.o
                                        0xb31 (size before relaxing)
 .debug_str     0x0000000000003830     0x7f9a MapManager.o
                                       0xafad (size before relaxing)
 .debug_str     0x000000000000b7ca      0x28f libs5.o
                                        0x380 (size before relaxing)
 .debug_str     0x000000000000ba59      0x77e /home/linux/devkitPro/libnds/lib/libfilesystem.a(nitrofs.o)
                                        0xd80 (size before relaxing)
 .debug_str     0x000000000000c1d7      0x52a /home/linux/devkitPro/libnds/lib/libfat.a(libfat.o)
                                        0xdf8 (size before relaxing)
 .debug_str     0x000000000000c701      0x5a5 /home/linux/devkitPro/libnds/lib/libfat.a(partition.o)
                                       0x11cb (size before relaxing)
 .debug_str     0x000000000000cca6      0x1ce /home/linux/devkitPro/libnds/lib/libfat.a(cache.o)
                                        0x59d (size before relaxing)
 .debug_str     0x000000000000ce74      0x7cc /home/linux/devkitPro/libnds/lib/libfat.a(directory.o)
                                        0xee1 (size before relaxing)
 .debug_str     0x000000000000d640       0x54 /home/linux/devkitPro/libnds/lib/libfat.a(disc.o)
                                        0x2a8 (size before relaxing)
 .debug_str     0x000000000000d694      0x1f9 /home/linux/devkitPro/libnds/lib/libfat.a(fatdir.o)
                                        0xf77 (size before relaxing)
 .debug_str     0x000000000000d88d      0x229 /home/linux/devkitPro/libnds/lib/libfat.a(fatfile.o)
                                       0x1025 (size before relaxing)
 .debug_str     0x000000000000dab6       0xb5 /home/linux/devkitPro/libnds/lib/libfat.a(file_allocation_table.o)
                                        0x673 (size before relaxing)
 .debug_str     0x000000000000db6b       0x67 /home/linux/devkitPro/libnds/lib/libfat.a(filetime.o)
                                        0x232 (size before relaxing)
 .debug_str     0x000000000000dbd2       0x42 /home/linux/devkitPro/libnds/lib/libfat.a(lock.o)
                                        0x193 (size before relaxing)
 .debug_str     0x000000000000dc14      0x2d6 /home/linux/devkitPro/libnds/lib/libnds9.a(background.o)
                                        0x71d (size before relaxing)
 .debug_str     0x000000000000deea      0x2e0 /home/linux/devkitPro/libnds/lib/libnds9.a(console.o)
                                       0x1151 (size before relaxing)
 .debug_str     0x000000000000e1ca      0x132 /home/linux/devkitPro/libnds/lib/libnds9.a(gurumeditation.o)
                                        0x526 (size before relaxing)
 .debug_str     0x000000000000e2fc      0x1d7 /home/linux/devkitPro/libnds/lib/libnds9.a(keys.o)
                                        0x38c (size before relaxing)
 .debug_str     0x000000000000e4d3       0x87 /home/linux/devkitPro/libnds/lib/libnds9.a(sassert.o)
                                        0x448 (size before relaxing)
 .debug_str     0x000000000000e55a       0xfe /home/linux/devkitPro/libnds/lib/libnds9.a(trig.o)
                                        0x278 (size before relaxing)
 .debug_str     0x000000000000e658      0x1cf /home/linux/devkitPro/libnds/lib/libnds9.a(dldi.o)
                                        0x497 (size before relaxing)
 .debug_str     0x000000000000e827      0x36f /home/linux/devkitPro/libnds/lib/libnds9.a(dsi_sd.o)
                                        0x602 (size before relaxing)
 .debug_str     0x000000000000eb96      0x1aa /home/linux/devkitPro/libnds/lib/libnds9.a(initSystem.o)
                                        0xaa0 (size before relaxing)
 .debug_str     0x000000000000ed40       0xdd /home/linux/devkitPro/libnds/lib/libnds9.a(card.o)
                                        0x277 (size before relaxing)
 .debug_str     0x000000000000ee1d      0x4ae /home/linux/devkitPro/libnds/lib/libnds9.a(fifosystem.o)
                                        0x82c (size before relaxing)
 .debug_str     0x000000000000f2cb      0x10e /home/linux/devkitPro/libnds/lib/libnds9.a(interrupts.o)
                                        0x415 (size before relaxing)
 .debug_str     0x000000000000f3d9      0x1b6 /home/linux/devkitPro/libnds/lib/libnds9.a(libnds_exit.arm.o)
                                        0x359 (size before relaxing)
 .debug_str     0x000000000000f58f       0x70 /home/linux/devkitPro/libnds/lib/libnds9.a(exceptions.o)
                                        0x1a6 (size before relaxing)
 .debug_str     0x000000000000f5ff      0x125 /home/linux/devkitPro/libnds/lib/libnds9.a(system.o)
                                        0x674 (size before relaxing)
 .debug_str     0x000000000000f724      0x53c /home/linux/devkitPro/libnds/lib/libnds9.a(video.o)
                                        0xbdb (size before relaxing)

.debug_loc      0x0000000000000000    0x15428
 *(.debug_loc)
 .debug_loc     0x0000000000000000       0x42 main.o
 .debug_loc     0x0000000000000042       0xb2 Game.o
 .debug_loc     0x00000000000000f4      0x681 Map.o
 .debug_loc     0x0000000000000775       0x52 Player.o
 .debug_loc     0x00000000000007c7       0x52 Character.o
 .debug_loc     0x0000000000000819     0x3d69 MapManager.o
 .debug_loc     0x0000000000004582      0xa7d libs5.o
 .debug_loc     0x0000000000004fff     0x1c73 /home/linux/devkitPro/libnds/lib/libfilesystem.a(nitrofs.o)
 .debug_loc     0x0000000000006c72      0x4f6 /home/linux/devkitPro/libnds/lib/libfat.a(libfat.o)
 .debug_loc     0x0000000000007168      0xee3 /home/linux/devkitPro/libnds/lib/libfat.a(partition.o)
 .debug_loc     0x000000000000804b      0xf9a /home/linux/devkitPro/libnds/lib/libfat.a(cache.o)
 .debug_loc     0x0000000000008fe5     0x31ce /home/linux/devkitPro/libnds/lib/libfat.a(directory.o)
 .debug_loc     0x000000000000c1b3     0x1391 /home/linux/devkitPro/libnds/lib/libfat.a(fatdir.o)
 .debug_loc     0x000000000000d544     0x2ff1 /home/linux/devkitPro/libnds/lib/libfat.a(fatfile.o)
 .debug_loc     0x0000000000010535      0xb28 /home/linux/devkitPro/libnds/lib/libfat.a(file_allocation_table.o)
 .debug_loc     0x000000000001105d       0x42 /home/linux/devkitPro/libnds/lib/libfat.a(filetime.o)
 .debug_loc     0x000000000001109f      0x3b8 /home/linux/devkitPro/libnds/lib/libnds9.a(background.o)
 .debug_loc     0x0000000000011457      0xf51 /home/linux/devkitPro/libnds/lib/libnds9.a(console.o)
 .debug_loc     0x00000000000123a8      0x8b5 /home/linux/devkitPro/libnds/lib/libnds9.a(gurumeditation.o)
 .debug_loc     0x0000000000012c5d       0x5a /home/linux/devkitPro/libnds/lib/libnds9.a(sassert.o)
 .debug_loc     0x0000000000012cb7      0x83c /home/linux/devkitPro/libnds/lib/libnds9.a(trig.o)
 .debug_loc     0x00000000000134f3      0x2d9 /home/linux/devkitPro/libnds/lib/libnds9.a(dldi.o)
 .debug_loc     0x00000000000137cc      0x25a /home/linux/devkitPro/libnds/lib/libnds9.a(dsi_sd.o)
 .debug_loc     0x0000000000013a26       0x1f /home/linux/devkitPro/libnds/lib/libnds9.a(initSystem.o)
 .debug_loc     0x0000000000013a45      0x340 /home/linux/devkitPro/libnds/lib/libnds9.a(card.o)
 .debug_loc     0x0000000000013d85     0x10f2 /home/linux/devkitPro/libnds/lib/libnds9.a(fifosystem.o)
 .debug_loc     0x0000000000014e77      0x16a /home/linux/devkitPro/libnds/lib/libnds9.a(interrupts.o)
 .debug_loc     0x0000000000014fe1       0x58 /home/linux/devkitPro/libnds/lib/libnds9.a(libnds_exit.arm.o)
 .debug_loc     0x0000000000015039      0x1ee /home/linux/devkitPro/libnds/lib/libnds9.a(system.o)
 .debug_loc     0x0000000000015227      0x201 /home/linux/devkitPro/libnds/lib/libnds9.a(video.o)

.debug_macinfo
 *(.debug_macinfo)

.debug_weaknames
 *(.debug_weaknames)

.debug_funcnames
 *(.debug_funcnames)

.debug_typenames
 *(.debug_typenames)

.debug_varnames
 *(.debug_varnames)

.stack          0x0000000000080000        0x0
                0x0000000000080000                _stack = .
 *(.stack)
LOAD /home/linux/devkitPro/devkitARM/bin/../lib/gcc/arm-none-eabi/4.8.2/../../../../arm-none-eabi/lib/thumb/ds_arm9_crt0.o
LOAD /home/linux/devkitPro/devkitARM/bin/../lib/gcc/arm-none-eabi/4.8.2/thumb/crti.o
LOAD /home/linux/devkitPro/devkitARM/bin/../lib/gcc/arm-none-eabi/4.8.2/thumb/crtbegin.o
LOAD plain.o
LOAD underground.o
LOAD indoor.o
LOAD main.o
LOAD Timer.o
LOAD Game.o
LOAD Map.o
LOAD Sprite.o
LOAD Player.o
LOAD Character.o
LOAD CharacterManager.o
LOAD MapManager.o
LOAD libs5.o
LOAD libs5_asm.o
LOAD link.o
LOAD grass_effect.o
LOAD water_effect.o
LOAD /home/linux/devkitPro/libnds/lib/libfilesystem.a
LOAD /home/linux/devkitPro/libnds/lib/libfat.a
LOAD /home/linux/devkitPro/libnds/lib/libnds9.a
LOAD /home/linux/devkitPro/devkitARM/bin/../lib/gcc/arm-none-eabi/4.8.2/../../../../arm-none-eabi/lib/thumb/libstdc++.a
LOAD /home/linux/devkitPro/devkitARM/bin/../lib/gcc/arm-none-eabi/4.8.2/../../../../arm-none-eabi/lib/thumb/libm.a
START GROUP
LOAD /home/linux/devkitPro/devkitARM/bin/../lib/gcc/arm-none-eabi/4.8.2/thumb/libgcc.a
LOAD /home/linux/devkitPro/devkitARM/bin/../lib/gcc/arm-none-eabi/4.8.2/../../../../arm-none-eabi/lib/thumb/libg.a
LOAD /home/linux/devkitPro/devkitARM/bin/../lib/gcc/arm-none-eabi/4.8.2/../../../../arm-none-eabi/lib/thumb/libc.a
LOAD /home/linux/devkitPro/devkitARM/bin/../lib/gcc/arm-none-eabi/4.8.2/../../../../arm-none-eabi/lib/thumb/libsysbase.a
END GROUP
LOAD /home/linux/devkitPro/devkitARM/bin/../lib/gcc/arm-none-eabi/4.8.2/thumb/crtend.o
LOAD /home/linux/devkitPro/devkitARM/bin/../lib/gcc/arm-none-eabi/4.8.2/thumb/crtn.o
OUTPUT(/home/linux/Projects/ZeldaOODS/ZeldaOODS.elf elf32-littlearm)

.debug_ranges   0x0000000000000000     0x1ea0
 .debug_ranges  0x0000000000000000       0x10 main.o
 .debug_ranges  0x0000000000000010       0x18 Timer.o
 .debug_ranges  0x0000000000000028       0x48 Game.o
 .debug_ranges  0x0000000000000070      0x180 Map.o
 .debug_ranges  0x00000000000001f0      0x8b8 MapManager.o
 .debug_ranges  0x0000000000000aa8       0x30 libs5.o
 .debug_ranges  0x0000000000000ad8      0x298 /home/linux/devkitPro/libnds/lib/libfilesystem.a(nitrofs.o)
 .debug_ranges  0x0000000000000d70       0x78 /home/linux/devkitPro/libnds/lib/libfat.a(libfat.o)
 .debug_ranges  0x0000000000000de8      0x1d0 /home/linux/devkitPro/libnds/lib/libfat.a(partition.o)
 .debug_ranges  0x0000000000000fb8      0x300 /home/linux/devkitPro/libnds/lib/libfat.a(directory.o)
 .debug_ranges  0x00000000000012b8       0xa8 /home/linux/devkitPro/libnds/lib/libfat.a(fatdir.o)
 .debug_ranges  0x0000000000001360      0x2b8 /home/linux/devkitPro/libnds/lib/libfat.a(fatfile.o)
 .debug_ranges  0x0000000000001618       0x88 /home/linux/devkitPro/libnds/lib/libfat.a(file_allocation_table.o)
 .debug_ranges  0x00000000000016a0       0x48 /home/linux/devkitPro/libnds/lib/libnds9.a(background.o)
 .debug_ranges  0x00000000000016e8      0x210 /home/linux/devkitPro/libnds/lib/libnds9.a(console.o)
 .debug_ranges  0x00000000000018f8       0xc0 /home/linux/devkitPro/libnds/lib/libnds9.a(gurumeditation.o)
 .debug_ranges  0x00000000000019b8       0x38 /home/linux/devkitPro/libnds/lib/libnds9.a(trig.o)
 .debug_ranges  0x00000000000019f0       0x18 /home/linux/devkitPro/libnds/lib/libnds9.a(dldi.o)
 .debug_ranges  0x0000000000001a08       0x30 /home/linux/devkitPro/libnds/lib/libnds9.a(card.o)
 .debug_ranges  0x0000000000001a38      0x378 /home/linux/devkitPro/libnds/lib/libnds9.a(fifosystem.o)
 .debug_ranges  0x0000000000001db0       0xa8 /home/linux/devkitPro/libnds/lib/libnds9.a(interrupts.o)
 .debug_ranges  0x0000000000001e58       0x48 /home/linux/devkitPro/libnds/lib/libnds9.a(video.o)
